
mackb.elf:     file format elf32-avr

Sections:
Idx Name          Size      VMA       LMA       File off  Algn
  0 .data         000000e2  00800100  00005caa  00005d3e  2**0
                  CONTENTS, ALLOC, LOAD, DATA
  1 .text         00005caa  00000000  00000000  00000094  2**1
                  CONTENTS, ALLOC, LOAD, READONLY, CODE
  2 .bss          000000f2  008001e2  008001e2  00005e20  2**0
                  ALLOC
  3 .comment      00000030  00000000  00000000  00005e20  2**0
                  CONTENTS, READONLY
  4 .note.gnu.avr.deviceinfo 0000003c  00000000  00000000  00005e50  2**2
                  CONTENTS, READONLY
  5 .debug_aranges 000000c8  00000000  00000000  00005e8c  2**0
                  CONTENTS, READONLY, DEBUGGING
  6 .debug_info   0000771a  00000000  00000000  00005f54  2**0
                  CONTENTS, READONLY, DEBUGGING
  7 .debug_abbrev 00000439  00000000  00000000  0000d66e  2**0
                  CONTENTS, READONLY, DEBUGGING
  8 .debug_line   0000279f  00000000  00000000  0000daa7  2**0
                  CONTENTS, READONLY, DEBUGGING
  9 .debug_frame  00000248  00000000  00000000  00010248  2**2
                  CONTENTS, READONLY, DEBUGGING
 10 .debug_str    0000070b  00000000  00000000  00010490  2**0
                  CONTENTS, READONLY, DEBUGGING
 11 .debug_loc    00001aa3  00000000  00000000  00010b9b  2**0
                  CONTENTS, READONLY, DEBUGGING
 12 .debug_ranges 00000118  00000000  00000000  0001263e  2**0
                  CONTENTS, READONLY, DEBUGGING

Disassembly of section .text:

00000000 <__vectors>:
       0:	0c 94 15 0d 	jmp	0x1a2a	; 0x1a2a <__ctors_end>
       4:	0c 94 34 0d 	jmp	0x1a68	; 0x1a68 <__bad_interrupt>
       8:	0c 94 34 0d 	jmp	0x1a68	; 0x1a68 <__bad_interrupt>
       c:	0c 94 34 0d 	jmp	0x1a68	; 0x1a68 <__bad_interrupt>
      10:	0c 94 34 0d 	jmp	0x1a68	; 0x1a68 <__bad_interrupt>
      14:	0c 94 34 0d 	jmp	0x1a68	; 0x1a68 <__bad_interrupt>
      18:	0c 94 34 0d 	jmp	0x1a68	; 0x1a68 <__bad_interrupt>
      1c:	0c 94 34 0d 	jmp	0x1a68	; 0x1a68 <__bad_interrupt>
      20:	0c 94 34 0d 	jmp	0x1a68	; 0x1a68 <__bad_interrupt>
      24:	0c 94 34 0d 	jmp	0x1a68	; 0x1a68 <__bad_interrupt>
      28:	0c 94 34 0d 	jmp	0x1a68	; 0x1a68 <__bad_interrupt>
      2c:	0c 94 34 0d 	jmp	0x1a68	; 0x1a68 <__bad_interrupt>
      30:	0c 94 34 0d 	jmp	0x1a68	; 0x1a68 <__bad_interrupt>
      34:	0c 94 34 0d 	jmp	0x1a68	; 0x1a68 <__bad_interrupt>
      38:	0c 94 34 0d 	jmp	0x1a68	; 0x1a68 <__bad_interrupt>
      3c:	0c 94 34 0d 	jmp	0x1a68	; 0x1a68 <__bad_interrupt>
      40:	0c 94 ac 0d 	jmp	0x1b58	; 0x1b58 <__vector_16>
      44:	0c 94 34 0d 	jmp	0x1a68	; 0x1a68 <__bad_interrupt>
      48:	0c 94 83 28 	jmp	0x5106	; 0x5106 <__vector_18>
      4c:	0c 94 34 0d 	jmp	0x1a68	; 0x1a68 <__bad_interrupt>
      50:	0c 94 34 0d 	jmp	0x1a68	; 0x1a68 <__bad_interrupt>
      54:	0c 94 34 0d 	jmp	0x1a68	; 0x1a68 <__bad_interrupt>
      58:	0c 94 34 0d 	jmp	0x1a68	; 0x1a68 <__bad_interrupt>
      5c:	0c 94 34 0d 	jmp	0x1a68	; 0x1a68 <__bad_interrupt>
      60:	0c 94 34 0d 	jmp	0x1a68	; 0x1a68 <__bad_interrupt>
      64:	0c 94 34 0d 	jmp	0x1a68	; 0x1a68 <__bad_interrupt>
      68:	0c 94 34 0d 	jmp	0x1a68	; 0x1a68 <__bad_interrupt>
      6c:	0c 94 34 0d 	jmp	0x1a68	; 0x1a68 <__bad_interrupt>
      70:	0c 94 34 0d 	jmp	0x1a68	; 0x1a68 <__bad_interrupt>
      74:	0c 94 34 0d 	jmp	0x1a68	; 0x1a68 <__bad_interrupt>
      78:	0c 94 34 0d 	jmp	0x1a68	; 0x1a68 <__bad_interrupt>
      7c:	0c 94 34 0d 	jmp	0x1a68	; 0x1a68 <__bad_interrupt>
      80:	0c 94 34 0d 	jmp	0x1a68	; 0x1a68 <__bad_interrupt>
      84:	0c 94 34 0d 	jmp	0x1a68	; 0x1a68 <__bad_interrupt>
      88:	0c 94 34 0d 	jmp	0x1a68	; 0x1a68 <__bad_interrupt>
      8c:	7a 13       	cpse	r23, r26
      8e:	61 25       	eor	r22, r1
      90:	bb 25       	eor	r27, r11
      92:	08 26       	eor	r0, r24
      94:	1f 27       	eor	r17, r31
      96:	6f 27       	eor	r22, r31
      98:	bf 27       	eor	r27, r31
      9a:	db 27       	eor	r29, r27

0000009c <__trampolines_end>:
      9c:	20 20       	and	r2, r0
      9e:	20 20       	and	r2, r0
      a0:	20 20       	and	r2, r0
      a2:	20 20       	and	r2, r0
      a4:	20 20       	and	r2, r0
      a6:	20 20       	and	r2, r0
      a8:	20 20       	and	r2, r0
      aa:	20 20       	and	r2, r0
      ac:	20 20       	and	r2, r0
      ae:	20 20       	and	r2, r0
      b0:	20 20       	and	r2, r0
      b2:	20 20       	and	r2, r0
      b4:	20 20       	and	r2, r0
      b6:	20 20       	and	r2, r0
      b8:	20 20       	and	r2, r0
      ba:	20 20       	and	r2, r0
      bc:	20 20       	and	r2, r0
      be:	20 20       	and	r2, r0
      c0:	20 20       	and	r2, r0
      c2:	20 20       	and	r2, r0
      c4:	20 20       	and	r2, r0
      c6:	20 00       	.word	0x0020	; ????

000000c8 <__c.2840>:
      c8:	7c 2a 2a 2a 2a 2a 2a 2a 2a 2a 2a 2a 2a 2a 2a 2a     |***************
      d8:	2a 2a 2a 2a 2a 2a 2a 2a 2a 2a 2a 2a 2a 2a 2a 2a     ****************
      e8:	2a 2a 2a 2a 2a 2a 2a 2a 2a 2a 20 20 20 7c 00        **********   |.

000000f7 <__c.2838>:
      f7:	7c 31 30 3a 20 4b 41 42 4f 47 59 4f 5a 41 20 53     |10: KABOGYOZA S
     107:	54 45 50 48 45 4e 09 20 20 20 20 20 20 20 20 20     TEPHEN.         
     117:	31 35 2f 55 2f 35 33 36 36 2f 45 56 45 20 7c 00     15/U/5366/EVE |.

00000127 <__c.2836>:
     127:	7c 39 3a 20 41 53 49 47 41 20 53 54 41 4e 4c 45     |9: ASIGA STANLE
     137:	59 09 20 20 20 20 20 20 20 20 20 20 20 20 20 20     Y.              
     147:	31 35 2f 55 2f 36 30 31 32 2f 45 56 45 20 7c 00     15/U/6012/EVE |.

00000157 <__c.2834>:
     157:	7c 38 3a 20 4b 41 54 4f 4e 47 4f 4c 45 20 44 52     |8: KATONGOLE DR
     167:	41 4b 45 09 20 20 20 20 20 20 20 20 20 20 20 20     AKE.            
     177:	31 35 2f 55 2f 36 30 31 32 2f 45 56 45 20 7c 00     15/U/6012/EVE |.

00000187 <__c.2832>:
     187:	7c 37 3a 20 4f 57 4f 54 20 4a 4f 4e 41 54 48 41     |7: OWOT JONATHA
     197:	4e 09 20 20 20 20 20 20 20 20 20 20 20 20 20 20     N.              
     1a7:	31 35 2f 55 2f 31 32 33 36 31 2f 45 56 45 7c 00     15/U/12361/EVE|.

000001b7 <__c.2830>:
     1b7:	7c 36 3a 20 4b 41 42 57 41 4d 41 20 52 4f 4e 41     |6: KABWAMA RONA
     1c7:	4c 44 09 20 20 20 20 20 20 20 20 20 20 20 20 20     LD.             
     1d7:	31 35 2f 55 2f 35 33 39 38 2f 45 56 45 20 7c 00     15/U/5398/EVE |.

000001e7 <__c.2828>:
     1e7:	7c 35 3a 20 4d 55 52 49 4e 47 49 20 52 45 4d 55     |5: MURINGI REMU
     1f7:	4c 55 53 09 20 20 20 20 20 20 20 20 20 20 20 20     LUS.            
     207:	31 35 2f 55 2f 38 33 32 34 2f 45 56 45 20 7c 00     15/U/8324/EVE |.

00000217 <__c.2826>:
     217:	7c 34 3a 20 4d 55 42 4f 4b 55 20 45 4d 4d 41 4e     |4: MUBOKU EMMAN
     227:	55 45 4c 09 20 20 20 20 20 20 20 20 20 20 20 20     UEL.            
     237:	31 35 2f 55 2f 37 37 33 38 2f 45 56 45 20 7c 00     15/U/7738/EVE |.

00000247 <__c.2824>:
     247:	7c 33 3a 20 57 41 54 41 53 41 20 56 49 43 54 4f     |3: WATASA VICTO
     257:	52 20 43 48 52 49 53 09 20 20 20 20 20 20 20 20     R CHRIS.        
     267:	31 35 2f 55 2f 31 33 37 36 32 2f 45 56 45 7c 00     15/U/13762/EVE|.

00000277 <__c.2822>:
     277:	7c 32 3a 20 4b 41 53 49 4e 47 41 42 41 4c 59 41     |2: KASINGABALYA
     287:	20 4a 45 52 4f 4d 45 09 20 20 20 20 20 20 20 20      JEROME.        
     297:	31 35 2f 55 2f 35 38 37 33 2f 45 56 45 20 7c 00     15/U/5873/EVE |.

000002a7 <__c.2820>:
     2a7:	7c 31 3a 20 53 53 45 42 42 41 41 4c 45 20 50 41     |1: SSEBBAALE PA
     2b7:	55 4c 20 20 20 20 20 20 20 20 20 20 20 20 20 31     UL             1
     2c7:	35 2f 55 2f 31 32 37 31 32 2f 45 56 45 7c 00        5/U/12712/EVE|.

000002d6 <__c.2818>:
     2d6:	7c 20 20 20 20 47 52 4f 55 50 20 4d 45 4d 42 45     |    GROUP MEMBE
     2e6:	52 53 20 20 20 20 20 20 20 20 20 20 20 20 20 20     RS              
     2f6:	20 20 20 20 20 20 20 20 20 20 20 20 20 7c 00                     |.

00000305 <__c.2816>:
     305:	7c 20 20 20 20 57 45 4c 43 4f 4d 45 20 54 4f 20     |    WELCOME TO 
     315:	4d 41 43 4b 20 42 45 56 45 52 41 47 45 53 20 20     MACK BEVERAGES  
     325:	20 20 20 20 20 20 20 20 20 20 20 20 20 7c 00                     |.

00000334 <__c.2814>:
     334:	7c 2a 2a 2a 2a 2a 2a 2a 2a 2a 2a 2a 2a 2a 2a 2a     |***************
     344:	2a 2a 2a 2a 2a 2a 2a 2a 2a 2a 2a 2a 2a 2a 2a 2a     ****************
     354:	2a 2a 2a 2a 2a 2a 2a 2a 2a 2a 20 20 20 7c 00        **********   |.

00000363 <__c.2809>:
     363:	20 20 53 65 6c 65 63 74 20 4f 70 74 69 6f 6e 20       Select Option 
     373:	28 20 31 20 2d 20 38 20 29 3a 20 00                 ( 1 - 8 ): .

0000037f <__c.2807>:
     37f:	20 38 20 3a 43 6c 65 61 72 20 45 78 69 73 74 69      8 :Clear Existi
     38f:	6e 67 20 53 65 74 74 69 6e 67 73 00                 ng Settings.

0000039b <__c.2805>:
     39b:	20 37 20 3a 43 68 61 6e 67 65 20 74 68 65 20 76      7 :Change the v
     3ab:	6f 6c 75 6d 65 20 74 6f 20 62 65 20 64 69 73 70     olume to be disp
     3bb:	65 6e 73 65 64 2e 00                                ensed..

000003c2 <__c.2803>:
     3c2:	20 36 20 3a 43 48 45 43 4b 20 48 6f 77 20 6d 75      6 :CHECK How mu
     3d2:	63 68 20 74 69 6d 65 20 74 68 65 20 70 6c 61 6e     ch time the plan
     3e2:	74 20 68 61 64 20 72 65 73 74 65 64 2e 00           t had rested..

000003f0 <__c.2801>:
     3f0:	20 35 20 3a 43 48 45 43 4b 20 48 6f 77 20 6d 75      5 :CHECK How mu
     400:	63 68 20 74 69 6d 65 20 74 68 65 20 70 6c 61 6e     ch time the plan
     410:	74 20 68 61 73 20 77 6f 72 6b 65 64 2e 00           t has worked..

0000041e <__c.2799>:
     41e:	20 34 20 3a 43 48 45 43 4b 20 41 6d 6f 75 6e 74      4 :CHECK Amount
     42e:	20 6f 66 20 66 72 75 69 74 20 6c 65 66 74 20 61      of fruit left a
     43e:	66 74 65 72 20 6d 69 78 69 6e 67 20 74 68 65 20     fter mixing the 
     44e:	64 72 69 6e 6b 2e 00                                drink..

00000455 <__c.2797>:
     455:	20 33 20 3a 43 48 45 43 4b 20 48 6f 77 20 6d 61      3 :CHECK How ma
     465:	6e 79 20 62 6f 74 74 6c 65 73 20 61 72 65 20 66     ny bottles are f
     475:	69 6c 6c 65 64 20 77 69 74 68 20 20 74 68 65 20     illed with  the 
     485:	64 72 69 6e 6b 2e 00                                drink..

0000048c <__c.2795>:
     48c:	20 32 20 3a 43 48 45 43 4b 20 41 6d 6f 75 6e 74      2 :CHECK Amount
     49c:	20 6f 66 20 64 72 69 6e 6b 20 69 6e 20 6c 69 74      of drink in lit
     4ac:	65 72 73 20 69 6e 20 74 68 65 20 73 74 6f 72 61     ers in the stora
     4bc:	67 65 20 63 6f 6e 74 61 69 6e 65 72 2e 00           ge container..

000004ca <__c.2793>:
     4ca:	20 31 20 3a 20 43 6f 6e 66 69 67 75 72 65 20 74      1 : Configure t
     4da:	68 65 20 70 6c 61 6e 74 2e 00                       he plant..

000004e4 <__c.2785>:
     4e4:	50 72 65 73 73 20 45 6e 74 65 72 20 74 6f 20 43     Press Enter to C
     4f4:	6f 6e 74 69 6e 75 65 3b 00                          ontinue;.

000004fd <__c.2783>:
     4fd:	49 6e 76 61 6c 69 64 20 4f 70 74 69 6f 6e 2c 20     Invalid Option, 
     50d:	54 72 79 20 41 67 61 69 6e 20 28 31 20 2d 20 38     Try Again (1 - 8
     51d:	29 3b 00                                            );.

00000520 <__c.2780>:
     520:	50 72 65 73 73 20 45 6e 74 65 72 20 74 6f 20 43     Press Enter to C
     530:	6f 6e 74 69 6e 75 65 3b 00                          ontinue;.

00000539 <__c.2778>:
     539:	53 65 74 74 69 6e 67 73 20 63 6c 65 61 72 65 64     Settings cleared
     549:	20 73 75 63 63 65 73 73 66 75 6c 6c 79 00            successfully.

00000557 <__c.2776>:
     557:	20 43 6c 65 61 72 69 6e 67 20 45 78 69 73 74 69      Clearing Existi
     567:	6e 67 20 53 65 74 74 69 6e 67 00                    ng Setting.

00000572 <__c.2773>:
     572:	20 43 68 61 6e 67 65 20 74 68 65 20 76 6f 6c 75      Change the volu
     582:	6d 65 20 74 6f 20 62 65 20 64 69 73 70 65 6e 73     me to be dispens
     592:	65 64 3a 00                                         ed:.

00000596 <__c.2770>:
     596:	50 72 65 73 73 20 45 6e 74 65 72 20 74 6f 20 43     Press Enter to C
     5a6:	6f 6e 74 69 6e 75 65 3b 00                          ontinue;.

000005af <__c.2768>:
     5af:	20 73 65 63 6f 6e 64 73 00                           seconds.

000005b8 <__c.2762>:
     5b8:	20 54 69 6d 65 20 74 68 65 20 70 6c 61 6e 74 20      Time the plant 
     5c8:	68 61 64 20 72 65 73 74 65 64 20 20 69 73 3a 00     had rested  is:.

000005d8 <__c.2759>:
     5d8:	50 72 65 73 73 20 45 6e 74 65 72 20 74 6f 20 43     Press Enter to C
     5e8:	6f 6e 74 69 6e 75 65 3b 00                          ontinue;.

000005f1 <__c.2757>:
     5f1:	20 73 65 63 6f 6e 64 73 00                           seconds.

000005fa <__c.2751>:
     5fa:	54 69 6d 65 20 74 68 65 20 70 6c 61 6e 74 20 68     Time the plant h
     60a:	61 73 20 77 6f 72 6b 65 64 3a 00                    as worked:.

00000615 <__c.2748>:
     615:	50 72 65 73 73 20 45 6e 74 65 72 20 74 6f 20 43     Press Enter to C
     625:	6f 6e 74 69 6e 75 65 3b 00                          ontinue;.

0000062e <__c.2746>:
     62e:	41 50 50 4c 45 53 20 52 45 4d 41 49 4e 49 4e 47     APPLES REMAINING
     63e:	20 41 52 45 20 3a 00                                 ARE :.

00000645 <__c.2740>:
     645:	47 55 41 56 41 53 20 52 45 4d 41 49 4e 49 4e 47     GUAVAS REMAINING
     655:	20 41 52 45 20 3a 00                                 ARE :.

0000065c <__c.2734>:
     65c:	50 49 4e 45 41 50 50 4c 45 53 20 52 45 4d 41 49     PINEAPPLES REMAI
     66c:	4e 49 4e 47 20 41 52 45 20 3a 00                    NING ARE :.

00000677 <__c.2728>:
     677:	4d 41 4e 47 4f 45 53 20 52 45 4d 41 49 4e 49 4e     MANGOES REMAININ
     687:	47 20 41 52 45 20 3a 00                             G ARE :.

0000068f <__c.2722>:
     68f:	4f 52 41 4e 47 45 53 20 52 45 4d 41 49 4e 49 4e     ORANGES REMAININ
     69f:	47 20 41 52 45 20 3a 00                             G ARE :.

000006a7 <__c.2716>:
     6a7:	20 41 6d 6f 75 6e 74 20 6f 66 20 66 72 75 69 74      Amount of fruit
     6b7:	20 6c 65 66 74 20 61 66 74 65 72 20 6d 69 78 69      left after mixi
     6c7:	6e 67 20 74 68 65 20 64 72 69 6e 6b 20 3a 00        ng the drink :.

000006d6 <__c.2713>:
     6d6:	50 72 65 73 73 20 45 6e 74 65 72 20 74 6f 20 43     Press Enter to C
     6e6:	6f 6e 74 69 6e 75 65 3b 00                          ontinue;.

000006ef <__c.2707>:
     6ef:	20 42 6f 74 74 6c 65 73 20 74 68 61 74 20 61 72      Bottles that ar
     6ff:	65 20 66 69 6c 6c 65 64 20 77 69 74 68 20 20 74     e filled with  t
     70f:	68 65 20 64 72 69 6e 6b 20 3a 00                    he drink :.

0000071a <__c.2704>:
     71a:	50 72 65 73 73 20 45 6e 74 65 72 20 74 6f 20 43     Press Enter to C
     72a:	6f 6e 74 69 6e 75 65 3b 00                          ontinue;.

00000733 <__c.2702>:
     733:	20 6c 69 74 72 65 73 00                              litres.

0000073b <__c.2696>:
     73b:	20 41 6d 6f 75 6e 74 20 6f 66 20 64 72 69 6e 6b      Amount of drink
     74b:	20 69 6e 20 6c 69 74 65 72 73 20 69 6e 20 74 68      in liters in th
     75b:	65 20 73 74 6f 72 61 67 65 20 63 6f 6e 74 61 69     e storage contai
     76b:	6e 65 72 3a 00                                      ner:.

00000770 <__c.2692>:
     770:	50 72 65 73 73 20 45 6e 74 65 72 20 74 6f 20 43     Press Enter to C
     780:	6f 6e 74 69 6e 75 65 3b 00                          ontinue;.

00000789 <__c.2690>:
     789:	49 6e 76 61 6c 69 64 20 4f 70 74 69 6f 6e 2c 20     Invalid Option, 
     799:	54 72 79 20 41 67 61 69 6e 20 28 31 20 2d 20 34     Try Again (1 - 4
     7a9:	29 3b 00                                            );.

000007ac <__c.2687>:
     7ac:	47 75 61 76 61 73 20 70 65 72 63 65 6e 74 61 67     Guavas percentag
     7bc:	65 20 73 65 6c 65 63 74 65 64 3a 00                 e selected:.

000007c8 <__c.2685>:
     7c8:	47 55 41 56 41 53 20 52 45 4d 41 49 4e 49 4e 47     GUAVAS REMAINING
     7d8:	20 41 52 45 20 3a 00                                 ARE :.

000007df <__c.2675>:
     7df:	45 6e 74 65 72 20 74 68 65 20 70 65 72 63 65 6e     Enter the percen
     7ef:	74 61 67 65 20 6f 66 20 67 75 61 76 61 73 00        tage of guavas.

000007fe <__c.2673>:
     7fe:	50 69 6e 65 61 70 70 6c 65 73 20 70 65 72 63 65     Pineapples perce
     80e:	6e 74 61 67 65 20 73 65 6c 65 63 74 65 64 3a 00     ntage selected:.

0000081e <__c.2671>:
     81e:	41 50 50 4c 45 53 20 52 45 4d 41 49 4e 49 4e 47     APPLES REMAINING
     82e:	20 41 52 45 20 3a 00                                 ARE :.

00000835 <__c.2661>:
     835:	45 6e 74 65 72 20 74 68 65 20 70 65 72 63 65 6e     Enter the percen
     845:	74 61 67 65 20 6f 66 20 61 70 70 6c 65 73 00        tage of apples.

00000854 <__c.2659>:
     854:	70 69 6e 65 61 70 70 6c 65 73 20 70 65 72 63 65     pineapples perce
     864:	6e 74 61 67 65 20 73 65 6c 65 63 74 65 64 3a 00     ntage selected:.

00000874 <__c.2657>:
     874:	50 49 4e 45 41 50 50 4c 45 53 20 52 45 4d 41 49     PINEAPPLES REMAI
     884:	4e 49 4e 47 20 41 52 45 20 3a 00                    NING ARE :.

0000088f <__c.2647>:
     88f:	45 6e 74 65 72 20 74 68 65 20 70 65 72 63 65 6e     Enter the percen
     89f:	74 61 67 65 20 6f 66 20 70 69 6e 65 61 70 70 6c     tage of pineappl
     8af:	65 73 00                                            es.

000008b2 <__c.2645>:
     8b2:	4d 61 6e 67 6f 20 70 65 72 63 65 6e 74 61 67 65     Mango percentage
     8c2:	20 73 65 6c 65 63 74 65 64 3a 00                     selected:.

000008cd <__c.2643>:
     8cd:	4d 41 4e 47 4f 45 53 20 52 45 4d 41 49 4e 49 4e     MANGOES REMAININ
     8dd:	47 20 41 52 45 20 3a 00                             G ARE :.

000008e5 <__c.2633>:
     8e5:	45 6e 74 65 72 20 74 68 65 20 70 65 72 63 65 6e     Enter the percen
     8f5:	74 61 67 65 20 6f 66 20 6d 61 6e 67 6f 65 73 00     tage of mangoes.

00000905 <__c.2631>:
     905:	59 6f 75 20 68 61 76 65 20 73 65 6c 65 63 74 65     You have selecte
     915:	64 20 74 68 65 20 66 69 66 74 68 20 63 61 74 65     d the fifth cate
     925:	67 6f 72 79 20 6f 66 20 66 72 75 69 74 73 00        gory of fruits.

00000934 <__c.2629>:
     934:	50 45 52 43 45 4e 54 41 47 45 53 20 46 4f 52 20     PERCENTAGES FOR 
     944:	54 48 45 20 46 4f 55 52 20 46 52 55 49 54 53 20     THE FOUR FRUITS 
     954:	53 48 4f 55 4c 44 20 54 4f 54 41 4c 20 54 4f 20     SHOULD TOTAL TO 
     964:	31 30 30 00                                         100.

00000968 <__c.2622>:
     968:	47 75 61 76 61 73 20 70 65 72 63 65 6e 74 61 67     Guavas percentag
     978:	65 20 73 65 6c 65 63 74 65 64 3a 00                 e selected:.

00000984 <__c.2620>:
     984:	47 55 41 56 41 53 20 52 45 4d 41 49 4e 49 4e 47     GUAVAS REMAINING
     994:	20 41 52 45 20 3a 00                                 ARE :.

0000099b <__c.2610>:
     99b:	45 6e 74 65 72 20 74 68 65 20 70 65 72 63 65 6e     Enter the percen
     9ab:	74 61 67 65 20 6f 66 20 67 75 61 76 61 73 00        tage of guavas.

000009ba <__c.2608>:
     9ba:	61 70 70 6c 65 73 20 70 65 72 63 65 6e 74 61 67     apples percentag
     9ca:	65 20 73 65 6c 65 63 74 65 64 3a 00                 e selected:.

000009d6 <__c.2606>:
     9d6:	41 50 50 4c 45 53 20 52 45 4d 41 49 4e 49 4e 47     APPLES REMAINING
     9e6:	20 41 52 45 20 3a 00                                 ARE :.

000009ed <__c.2596>:
     9ed:	45 6e 74 65 72 20 74 68 65 20 70 65 72 63 65 6e     Enter the percen
     9fd:	74 61 67 65 20 6f 66 20 61 70 70 6c 65 73 00        tage of apples.

00000a0c <__c.2594>:
     a0c:	70 69 6e 65 61 70 70 6c 65 73 20 70 65 72 63 65     pineapples perce
     a1c:	6e 74 61 67 65 20 73 65 6c 65 63 74 65 64 3a 00     ntage selected:.

00000a2c <__c.2592>:
     a2c:	50 49 4e 45 41 50 50 4c 45 53 20 52 45 4d 41 49     PINEAPPLES REMAI
     a3c:	4e 49 4e 47 20 41 52 45 20 3a 00                    NING ARE :.

00000a47 <__c.2582>:
     a47:	45 6e 74 65 72 20 74 68 65 20 70 65 72 63 65 6e     Enter the percen
     a57:	74 61 67 65 20 6f 66 20 70 69 6e 65 61 70 70 6c     tage of pineappl
     a67:	65 73 00                                            es.

00000a6a <__c.2580>:
     a6a:	4f 72 61 6e 67 65 20 70 65 72 63 65 6e 74 61 67     Orange percentag
     a7a:	65 20 73 65 6c 65 63 74 65 64 3a 00                 e selected:.

00000a86 <__c.2578>:
     a86:	4f 52 41 4e 47 45 53 20 52 45 4d 41 49 4e 49 4e     ORANGES REMAININ
     a96:	47 20 41 52 45 20 3a 00                             G ARE :.

00000a9e <__c.2568>:
     a9e:	45 6e 74 65 72 20 74 68 65 20 70 65 72 63 65 6e     Enter the percen
     aae:	74 61 67 65 20 6f 66 20 6f 72 61 6e 67 65 73 00     tage of oranges.

00000abe <__c.2566>:
     abe:	59 6f 75 20 68 61 76 65 20 73 65 6c 65 63 74 65     You have selecte
     ace:	64 20 74 68 65 20 66 6f 75 72 20 63 61 74 65 67     d the four categ
     ade:	6f 72 79 20 6f 66 20 66 72 75 69 74 73 00           ory of fruits.

00000aec <__c.2564>:
     aec:	50 45 52 43 45 4e 54 41 47 45 53 20 46 4f 52 20     PERCENTAGES FOR 
     afc:	54 48 45 20 46 4f 55 52 20 46 52 55 49 54 53 20     THE FOUR FRUITS 
     b0c:	53 48 4f 55 4c 44 20 54 4f 54 41 4c 20 54 4f 20     SHOULD TOTAL TO 
     b1c:	31 30 30 00                                         100.

00000b20 <__c.2557>:
     b20:	47 75 61 76 61 73 20 70 65 72 63 65 6e 74 61 67     Guavas percentag
     b30:	65 20 73 65 6c 65 63 74 65 64 3a 00                 e selected:.

00000b3c <__c.2555>:
     b3c:	47 55 41 56 41 53 20 52 45 4d 41 49 4e 49 4e 47     GUAVAS REMAINING
     b4c:	20 41 52 45 20 3a 00                                 ARE :.

00000b53 <__c.2545>:
     b53:	45 6e 74 65 72 20 74 68 65 20 70 65 72 63 65 6e     Enter the percen
     b63:	74 61 67 65 20 6f 66 20 67 75 61 76 61 73 00        tage of guavas.

00000b72 <__c.2543>:
     b72:	50 69 6e 65 61 70 70 6c 65 73 20 70 65 72 63 65     Pineapples perce
     b82:	6e 74 61 67 65 20 73 65 6c 65 63 74 65 64 3a 00     ntage selected:.

00000b92 <__c.2541>:
     b92:	41 50 50 4c 45 53 20 52 45 4d 41 49 4e 49 4e 47     APPLES REMAINING
     ba2:	20 41 52 45 20 3a 00                                 ARE :.

00000ba9 <__c.2531>:
     ba9:	45 6e 74 65 72 20 74 68 65 20 70 65 72 63 65 6e     Enter the percen
     bb9:	74 61 67 65 20 6f 66 20 61 70 70 6c 65 73 00        tage of apples.

00000bc8 <__c.2529>:
     bc8:	4d 61 6e 67 6f 65 73 20 70 65 72 63 65 6e 74 61     Mangoes percenta
     bd8:	67 65 20 73 65 6c 65 63 74 65 64 3a 00              ge selected:.

00000be5 <__c.2527>:
     be5:	4d 41 4e 47 4f 45 53 20 52 45 4d 41 49 4e 49 4e     MANGOES REMAININ
     bf5:	47 20 41 52 45 20 3a 00                             G ARE :.

00000bfd <__c.2517>:
     bfd:	45 6e 74 65 72 20 74 68 65 20 70 65 72 63 65 6e     Enter the percen
     c0d:	74 61 67 65 20 6f 66 20 6d 61 6e 67 6f 65 73 00     tage of mangoes.

00000c1d <__c.2515>:
     c1d:	4f 72 61 6e 67 65 20 70 65 72 63 65 6e 74 61 67     Orange percentag
     c2d:	65 20 73 65 6c 65 63 74 65 64 3a 00                 e selected:.

00000c39 <__c.2513>:
     c39:	4f 52 41 4e 47 45 53 20 52 45 4d 41 49 4e 49 4e     ORANGES REMAININ
     c49:	47 20 41 52 45 20 3a 00                             G ARE :.

00000c51 <__c.2503>:
     c51:	45 6e 74 65 72 20 74 68 65 20 70 65 72 63 65 6e     Enter the percen
     c61:	74 61 67 65 20 6f 66 20 6f 72 61 6e 67 65 73 00     tage of oranges.

00000c71 <__c.2501>:
     c71:	59 6f 75 20 68 61 76 65 20 73 65 6c 65 63 74 65     You have selecte
     c81:	64 20 74 68 65 20 74 68 69 72 64 20 63 61 74 65     d the third cate
     c91:	67 6f 72 79 20 6f 66 20 66 72 75 69 74 73 00        gory of fruits.

00000ca0 <__c.2499>:
     ca0:	50 45 52 43 45 4e 54 41 47 45 53 20 46 4f 52 20     PERCENTAGES FOR 
     cb0:	54 48 45 20 46 4f 55 52 20 46 52 55 49 54 53 20     THE FOUR FRUITS 
     cc0:	53 48 4f 55 4c 44 20 54 4f 54 41 4c 20 54 4f 20     SHOULD TOTAL TO 
     cd0:	31 30 30 00                                         100.

00000cd4 <__c.2492>:
     cd4:	47 75 61 76 61 73 20 70 65 72 63 65 6e 74 61 67     Guavas percentag
     ce4:	65 20 73 65 6c 65 63 74 65 64 3a 00                 e selected:.

00000cf0 <__c.2490>:
     cf0:	47 55 41 56 41 53 20 52 45 4d 41 49 4e 49 4e 47     GUAVAS REMAINING
     d00:	20 41 52 45 20 3a 00                                 ARE :.

00000d07 <__c.2480>:
     d07:	45 6e 74 65 72 20 74 68 65 20 70 65 72 63 65 6e     Enter the percen
     d17:	74 61 67 65 20 6f 66 20 67 75 61 76 61 73 00        tage of guavas.

00000d26 <__c.2478>:
     d26:	50 69 6e 65 61 70 70 6c 65 73 20 70 65 72 63 65     Pineapples perce
     d36:	6e 74 61 67 65 20 73 65 6c 65 63 74 65 64 3a 00     ntage selected:.

00000d46 <__c.2476>:
     d46:	50 49 4e 45 41 50 50 4c 45 53 20 52 45 4d 41 49     PINEAPPLES REMAI
     d56:	4e 49 4e 47 20 41 52 45 20 3a 00                    NING ARE :.

00000d61 <__c.2466>:
     d61:	45 6e 74 65 72 20 74 68 65 20 70 65 72 63 65 6e     Enter the percen
     d71:	74 61 67 65 20 6f 66 20 70 69 6e 65 61 70 70 6c     tage of pineappl
     d81:	65 73 00                                            es.

00000d84 <__c.2464>:
     d84:	4d 61 6e 67 6f 65 73 20 70 65 72 63 65 6e 74 61     Mangoes percenta
     d94:	67 65 20 73 65 6c 65 63 74 65 64 3a 00              ge selected:.

00000da1 <__c.2462>:
     da1:	4d 41 4e 47 4f 45 53 20 52 45 4d 41 49 4e 49 4e     MANGOES REMAININ
     db1:	47 20 41 52 45 20 3a 00                             G ARE :.

00000db9 <__c.2452>:
     db9:	45 6e 74 65 72 20 74 68 65 20 70 65 72 63 65 6e     Enter the percen
     dc9:	74 61 67 65 20 6f 66 20 6d 61 6e 67 6f 65 73 00     tage of mangoes.

00000dd9 <__c.2450>:
     dd9:	4f 72 61 6e 67 65 20 70 65 72 63 65 6e 74 61 67     Orange percentag
     de9:	65 20 73 65 6c 65 63 74 65 64 3a 00                 e selected:.

00000df5 <__c.2448>:
     df5:	4f 52 41 4e 47 45 53 20 52 45 4d 41 49 4e 49 4e     ORANGES REMAININ
     e05:	47 20 41 52 45 20 3a 00                             G ARE :.

00000e0d <__c.2438>:
     e0d:	45 6e 74 65 72 20 74 68 65 20 70 65 72 63 65 6e     Enter the percen
     e1d:	74 61 67 65 20 6f 66 20 6f 72 61 6e 67 65 73 00     tage of oranges.

00000e2d <__c.2436>:
     e2d:	59 6f 75 20 68 61 76 65 20 73 65 6c 65 63 74 65     You have selecte
     e3d:	64 20 74 68 65 20 73 65 63 6f 6e 64 20 63 61 74     d the second cat
     e4d:	65 67 6f 72 79 20 6f 66 20 66 72 75 69 74 73 00     egory of fruits.

00000e5d <__c.2434>:
     e5d:	50 45 52 43 45 4e 54 41 47 45 53 20 46 4f 52 20     PERCENTAGES FOR 
     e6d:	54 48 45 20 46 4f 55 52 20 46 52 55 49 54 53 20     THE FOUR FRUITS 
     e7d:	53 48 4f 55 4c 44 20 54 4f 54 41 4c 20 54 4f 20     SHOULD TOTAL TO 
     e8d:	31 30 30 00                                         100.

00000e91 <__c.2426>:
     e91:	61 70 70 6c 65 73 20 70 65 72 63 65 6e 74 61 67     apples percentag
     ea1:	65 20 73 65 6c 65 63 74 65 64 3a 00                 e selected:.

00000ead <__c.2424>:
     ead:	41 50 50 4c 45 53 20 52 45 4d 41 49 4e 49 4e 47     APPLES REMAINING
     ebd:	20 41 52 45 20 3a 00                                 ARE :.

00000ec4 <__c.2414>:
     ec4:	45 6e 74 65 72 20 74 68 65 20 70 65 72 63 65 6e     Enter the percen
     ed4:	74 61 67 65 20 6f 66 20 61 70 70 6c 65 73 00        tage of apples.

00000ee3 <__c.2412>:
     ee3:	50 69 6e 65 61 70 70 6c 65 73 20 70 65 72 63 65     Pineapples perce
     ef3:	6e 74 61 67 65 20 73 65 6c 65 63 74 65 64 3a 00     ntage selected:.

00000f03 <__c.2410>:
     f03:	50 49 4e 45 41 50 50 4c 45 53 20 52 45 4d 41 49     PINEAPPLES REMAI
     f13:	4e 49 4e 47 20 41 52 45 20 3a 00                    NING ARE :.

00000f1e <__c.2400>:
     f1e:	45 6e 74 65 72 20 74 68 65 20 70 65 72 63 65 6e     Enter the percen
     f2e:	74 61 67 65 20 6f 66 20 70 69 6e 65 61 70 70 6c     tage of pineappl
     f3e:	65 73 00                                            es.

00000f41 <__c.2398>:
     f41:	4d 61 6e 67 6f 65 73 20 70 65 72 63 65 6e 74 61     Mangoes percenta
     f51:	67 65 20 73 65 6c 65 63 74 65 64 3a 00              ge selected:.

00000f5e <__c.2396>:
     f5e:	4d 41 4e 47 4f 45 53 20 52 45 4d 41 49 4e 49 4e     MANGOES REMAININ
     f6e:	47 20 41 52 45 20 3a 00                             G ARE :.

00000f76 <__c.2386>:
     f76:	45 6e 74 65 72 20 74 68 65 20 70 65 72 63 65 6e     Enter the percen
     f86:	74 61 67 65 20 6f 66 20 6d 61 6e 67 6f 65 73 00     tage of mangoes.

00000f96 <__c.2384>:
     f96:	4f 72 61 6e 67 65 20 70 65 72 63 65 6e 74 61 67     Orange percentag
     fa6:	65 20 73 65 6c 65 63 74 65 64 3a 00                 e selected:.

00000fb2 <__c.2382>:
     fb2:	4f 52 41 4e 47 45 53 20 52 45 4d 41 49 4e 49 4e     ORANGES REMAININ
     fc2:	47 20 41 52 45 20 3a 00                             G ARE :.

00000fca <__c.2372>:
     fca:	45 6e 74 65 72 20 74 68 65 20 70 65 72 63 65 6e     Enter the percen
     fda:	74 61 67 65 20 6f 66 20 6f 72 61 6e 67 65 73 00     tage of oranges.

00000fea <__c.2370>:
     fea:	59 6f 75 20 68 61 76 65 20 73 65 6c 65 63 74 65     You have selecte
     ffa:	64 20 74 68 65 20 66 69 72 73 74 20 63 61 74 65     d the first cate
    100a:	67 6f 72 79 20 6f 66 20 66 72 75 69 74 73 00        gory of fruits.

00001019 <__c.2368>:
    1019:	50 45 52 43 45 4e 54 41 47 45 53 20 46 4f 52 20     PERCENTAGES FOR 
    1029:	54 48 45 20 46 4f 55 52 20 46 52 55 49 54 53 20     THE FOUR FRUITS 
    1039:	53 48 4f 55 4c 44 20 54 4f 54 41 4c 20 54 4f 20     SHOULD TOTAL TO 
    1049:	31 30 30 00                                         100.

0000104d <__c.2361>:
    104d:	20 20 53 65 6c 65 63 74 20 4f 70 74 69 6f 6e 20       Select Option 
    105d:	28 20 31 20 2d 20 35 20 29 3a 20 00                 ( 1 - 5 ): .

00001069 <__c.2359>:
    1069:	20 35 20 3a 4d 61 6e 67 6f 65 73 20 2b 20 50 69      5 :Mangoes + Pi
    1079:	6e 65 61 70 70 6c 65 20 2b 20 41 70 70 6c 65 73     neapple + Apples
    1089:	20 2b 20 47 75 61 76 61 73 2e 00                     + Guavas..

00001094 <__c.2357>:
    1094:	20 34 20 3a 4f 72 61 6e 67 65 73 20 2b 20 50 69      4 :Oranges + Pi
    10a4:	6e 65 61 70 70 6c 65 20 2b 20 41 70 70 6c 65 73     neapple + Apples
    10b4:	20 2b 20 47 75 61 76 61 73 2e 00                     + Guavas..

000010bf <__c.2355>:
    10bf:	20 33 20 3a 4f 72 61 6e 67 65 73 20 2b 20 4d 61      3 :Oranges + Ma
    10cf:	6e 67 6f 65 73 20 2b 20 41 70 70 6c 65 73 20 2b     ngoes + Apples +
    10df:	20 47 75 61 76 61 73 2e 00                           Guavas..

000010e8 <__c.2353>:
    10e8:	20 32 20 3a 4f 72 61 6e 67 65 73 20 2b 20 4d 61      2 :Oranges + Ma
    10f8:	6e 67 6f 65 73 20 2b 20 50 69 6e 65 61 70 70 6c     ngoes + Pineappl
    1108:	65 20 2b 20 47 75 61 76 61 73 2e 00                 e + Guavas..

00001114 <__c.2351>:
    1114:	20 31 20 3a 4f 72 61 6e 67 65 73 20 2b 20 4d 61      1 :Oranges + Ma
    1124:	6e 67 6f 65 73 20 2b 20 50 69 6e 65 61 70 70 6c     ngoes + Pineappl
    1134:	65 20 2b 20 41 70 70 6c 65 73 2e 00                 e + Apples..

00001140 <__c.2349>:
    1140:	20 50 4c 45 41 53 45 20 53 45 4c 45 43 54 20 46      PLEASE SELECT F
    1150:	52 55 49 54 53 20 54 4f 20 4d 49 58 2e 00           RUITS TO MIX..

0000115e <__c.2347>:
    115e:	47 55 41 56 41 53 20 41 56 41 49 4c 41 42 4c 45     GUAVAS AVAILABLE
    116e:	20 41 52 45 20 3a 00                                 ARE :.

00001175 <__c.2341>:
    1175:	20 45 6e 74 65 72 20 47 55 41 56 41 53 20 41 56      Enter GUAVAS AV
    1185:	41 49 4c 41 42 4c 45 3a 00                          AILABLE:.

0000118e <__c.2339>:
    118e:	56 41 4c 55 45 53 20 53 48 4f 55 4c 44 20 42 45     VALUES SHOULD BE
    119e:	20 42 45 54 57 45 45 4e 20 30 30 30 30 2d 39 39      BETWEEN 0000-99
    11ae:	39 39 00                                            99.

000011b1 <__c.2337>:
    11b1:	41 50 50 4c 45 53 20 41 56 41 49 4c 41 42 4c 45     APPLES AVAILABLE
    11c1:	20 41 52 45 20 3a 00                                 ARE :.

000011c8 <__c.2331>:
    11c8:	20 45 6e 74 65 72 20 41 50 50 4c 45 53 20 41 56      Enter APPLES AV
    11d8:	41 49 4c 41 42 4c 45 3a 00                          AILABLE:.

000011e1 <__c.2329>:
    11e1:	56 41 4c 55 45 53 20 53 48 4f 55 4c 44 20 42 45     VALUES SHOULD BE
    11f1:	20 42 45 54 57 45 45 4e 20 30 30 30 30 2d 39 39      BETWEEN 0000-99
    1201:	39 39 00                                            99.

00001204 <__c.2327>:
    1204:	50 49 4e 45 41 50 50 4c 45 53 20 41 56 41 49 4c     PINEAPPLES AVAIL
    1214:	41 42 4c 45 20 41 52 45 20 3a 00                    ABLE ARE :.

0000121f <__c.2321>:
    121f:	20 45 6e 74 65 72 20 50 49 4e 45 41 50 50 4c 45      Enter PINEAPPLE
    122f:	53 20 41 56 41 49 4c 41 42 4c 45 3a 00              S AVAILABLE:.

0000123c <__c.2319>:
    123c:	56 41 4c 55 45 53 20 53 48 4f 55 4c 44 20 42 45     VALUES SHOULD BE
    124c:	20 42 45 54 57 45 45 4e 20 30 30 30 30 2d 39 39      BETWEEN 0000-99
    125c:	39 39 00                                            99.

0000125f <__c.2317>:
    125f:	4d 41 4e 47 4f 45 53 20 41 56 41 49 4c 41 42 4c     MANGOES AVAILABL
    126f:	45 20 41 52 45 20 3a 00                             E ARE :.

00001277 <__c.2311>:
    1277:	20 45 6e 74 65 72 20 4d 41 4e 47 4f 45 53 20 41      Enter MANGOES A
    1287:	56 41 49 4c 41 42 4c 45 3a 00                       VAILABLE:.

00001291 <__c.2309>:
    1291:	56 41 4c 55 45 53 20 53 48 4f 55 4c 44 20 42 45     VALUES SHOULD BE
    12a1:	20 42 45 54 57 45 45 4e 20 30 30 30 30 2d 39 39      BETWEEN 0000-99
    12b1:	39 39 00                                            99.

000012b4 <__c.2307>:
    12b4:	4f 52 41 4e 47 45 53 20 41 56 41 49 4c 41 42 4c     ORANGES AVAILABL
    12c4:	45 20 41 52 45 20 3a 00                             E ARE :.

000012cc <__c.2301>:
    12cc:	20 45 6e 74 65 72 20 4f 52 41 4e 47 45 53 20 41      Enter ORANGES A
    12dc:	56 41 49 4c 41 42 4c 45 3a 00                       VAILABLE:.

000012e6 <__c.2299>:
    12e6:	56 41 4c 55 45 53 20 53 48 4f 55 4c 44 20 42 45     VALUES SHOULD BE
    12f6:	20 42 45 54 57 45 45 4e 20 30 30 30 30 2d 39 39      BETWEEN 0000-99
    1306:	39 39 00                                            99.

00001309 <__c.2293>:
    1309:	50 52 45 53 53 20 45 4e 54 45 52 20 54 4f 20 43     PRESS ENTER TO C
    1319:	4f 4e 54 49 4e 55 45 00                             ONTINUE.

00001321 <__c.2291>:
    1321:	50 4c 45 41 53 45 20 46 49 52 53 54 20 43 4f 4e     PLEASE FIRST CON
    1331:	46 49 47 55 52 45 20 54 48 45 20 50 4c 41 4e 54     FIGURE THE PLANT
	...

00001342 <__c.2289>:
    1342:	50 72 65 73 73 20 45 6e 74 65 72 20 74 6f 20 43     Press Enter to C
    1352:	6f 6e 74 69 6e 75 65 3b 00                          ontinue;.

0000135b <__c.2287>:
    135b:	49 6e 76 61 6c 69 64 20 4f 70 74 69 6f 6e 2c 20     Invalid Option, 
    136b:	54 72 79 20 41 67 61 69 6e 20 28 31 20 2d 20 34     Try Again (1 - 4
    137b:	29 3b 00                                            );.

0000137e <__c.2284>:
    137e:	69 6e 76 61 6c 69 64 20 69 6e 70 75 74 00           invalid input.

0000138c <__c.2282>:
    138c:	50 52 45 53 53 20 45 4e 54 45 52 20 54 4f 20 43     PRESS ENTER TO C
    139c:	48 45 43 4b 20 4d 45 4e 55 2e 2e 20 3a 00           HECK MENU.. :.

000013aa <__c.2280>:
    13aa:	50 4c 41 4e 54 20 43 4f 4e 46 49 47 55 52 41 54     PLANT CONFIGURAT
    13ba:	49 4f 4e 20 43 4f 4d 50 4c 45 54 45 20 50 52 45     ION COMPLETE PRE
    13ca:	53 53 20 42 55 54 54 4f 4e 20 4f 4e 20 54 48 45     SS BUTTON ON THE
    13da:	20 50 4c 41 4e 54 20 54 4f 20 44 49 53 50 45 4e      PLANT TO DISPEN
    13ea:	53 45 20 49 4e 20 42 4f 54 54 4c 45 53 20 3a 00     SE IN BOTTLES :.

000013fa <__c.2278>:
    13fa:	6c 69 74 72 65 73 00                                litres.

00001401 <__c.2276>:
    1401:	54 48 45 20 56 4f 4c 55 4d 45 20 54 48 41 54 20     THE VOLUME THAT 
    1411:	57 49 4c 4c 20 42 45 20 4c 45 46 54 20 41 46 54     WILL BE LEFT AFT
    1421:	45 52 20 44 49 53 50 45 4e 53 49 4e 47 20 49 53     ER DISPENSING IS
    1431:	3a 00                                               :.

00001433 <__c.2274>:
    1433:	6c 69 74 72 65 73 00                                litres.

0000143a <__c.2272>:
    143a:	56 4f 4c 55 4d 45 20 4f 46 20 42 4f 54 54 4c 45     VOLUME OF BOTTLE
    144a:	53 20 49 4e 50 55 54 20 49 53 3a 00                 S INPUT IS:.

00001456 <__c.2262>:
    1456:	62 6f 74 74 6c 65 73 00                             bottles.

0000145e <__c.2260>:
    145e:	42 4f 54 54 4c 45 53 20 54 48 41 54 20 43 41 4e     BOTTLES THAT CAN
    146e:	20 42 45 20 46 49 4c 4c 45 44 20 57 49 54 48 20      BE FILLED WITH 
    147e:	54 48 45 20 41 56 41 49 4c 41 42 4c 45 20 44 52     THE AVAILABLE DR
    148e:	49 4e 4b 3a 00                                      INK:.

00001493 <__c.2258>:
    1493:	53 4f 52 52 59 2e 2e 20 4c 49 51 55 49 44 20 49     SORRY.. LIQUID I
    14a3:	53 20 4e 4f 54 20 45 4e 4f 55 47 48 00              S NOT ENOUGH.

000014b0 <__c.2248>:
    14b0:	45 6e 74 65 72 20 74 68 65 20 6e 75 6d 62 65 72     Enter the number
    14c0:	20 6f 66 20 62 6f 74 74 6c 65 73 20 79 6f 75 20      of bottles you 
    14d0:	77 61 6e 74 20 74 6f 20 66 69 6c 6c 3a 00           want to fill:.

000014de <__c.2246>:
    14de:	50 52 45 53 53 20 45 4e 54 45 52 20 54 4f 20 43     PRESS ENTER TO C
    14ee:	48 45 43 4b 20 4d 45 4e 55 2e 2e 20 3a 00           HECK MENU.. :.

000014fc <__c.2244>:
    14fc:	50 4c 41 4e 54 20 43 4f 4e 46 49 47 55 52 41 54     PLANT CONFIGURAT
    150c:	49 4f 4e 20 43 4f 4d 50 4c 45 54 45 20 50 52 45     ION COMPLETE PRE
    151c:	53 53 20 42 55 54 54 4f 4e 20 4f 4e 20 54 48 45     SS BUTTON ON THE
    152c:	20 50 4c 41 4e 54 20 54 4f 20 44 49 53 50 45 4e      PLANT TO DISPEN
    153c:	53 45 20 49 4e 20 42 4f 54 54 4c 45 53 20 3a 00     SE IN BOTTLES :.

0000154c <__c.2242>:
    154c:	20 6c 69 74 72 65 73 00                              litres.

00001554 <__c.2240>:
    1554:	54 48 45 20 56 4f 4c 55 4d 45 20 54 48 41 54 20     THE VOLUME THAT 
    1564:	57 49 4c 4c 20 42 45 20 4c 45 46 54 20 41 46 54     WILL BE LEFT AFT
    1574:	45 52 20 44 49 53 50 45 4e 53 49 4e 47 20 49 53     ER DISPENSING IS
    1584:	3a 00                                               :.

00001586 <__c.2238>:
    1586:	20 20 62 6f 74 74 6c 65 73 00                         bottles.

00001590 <__c.2236>:
    1590:	4e 55 4d 42 45 52 20 4f 46 20 42 4f 54 54 4c 45     NUMBER OF BOTTLE
    15a0:	53 20 46 52 4f 4d 20 49 4e 50 55 54 20 56 4f 4c     S FROM INPUT VOL
    15b0:	55 4d 45 20 49 53 20 3a 00                          UME IS :.

000015b9 <__c.2222>:
    15b9:	45 6e 74 65 72 20 74 68 65 20 76 6f 6c 75 6d 65     Enter the volume
    15c9:	20 79 6f 75 20 77 61 6e 74 20 74 6f 20 64 69 73      you want to dis
    15d9:	70 65 6e 73 65 20 69 6e 20 6c 69 74 72 65 73 2e     pense in litres.
    15e9:	2e 2e 20 6d 61 78 3d 31 35 30 00                    .. max=150.

000015f4 <__c.2220>:
    15f4:	79 6f 75 72 20 63 68 6f 69 63 65 20 69 73 20 00     your choice is .

00001604 <__c.2218>:
    1604:	43 68 6f 6f 73 65 20 31 20 74 6f 20 65 6e 74 65     Choose 1 to ente
    1614:	72 20 74 68 65 20 6e 75 6d 62 65 72 20 6f 66 20     r the number of 
    1624:	62 6f 74 74 6c 65 73 20 74 6f 20 66 69 6c 6c 00     bottles to fill.

00001634 <__c.2216>:
    1634:	43 68 6f 6f 73 65 20 30 20 74 6f 20 65 6e 74 65     Choose 0 to ente
    1644:	72 20 74 68 65 20 76 6f 6c 75 6d 65 20 74 6f 20     r the volume to 
    1654:	64 69 73 70 65 6e 73 65 00                          dispense.

0000165d <__c.2214>:
    165d:	54 68 65 20 6d 61 63 68 69 6e 65 20 77 69 6c 6c     The machine will
    166d:	20 62 65 20 64 69 73 70 65 6e 73 69 6e 67 20 35      be dispensing 5
    167d:	30 30 6d 6c 20 62 6f 74 74 6c 65 73 2e 00           00ml bottles..

0000168b <__c.2211>:
    168b:	70 72 65 73 73 20 65 6e 74 65 72 20 74 6f 20 63     press enter to c
    169b:	6f 6e 74 69 6e 75 65 20 67 6f 20 62 61 63 6b 20     ontinue go back 
    16ab:	74 6f 20 6d 65 6e 75 2e 2e 00                       to menu...

000016b5 <__c.2209>:
    16b5:	69 6e 76 61 6c 69 64 20 69 6e 70 75 74 00           invalid input.

000016c3 <__c.2207>:
    16c3:	50 52 45 53 53 20 45 4e 54 45 52 20 54 4f 20 43     PRESS ENTER TO C
    16d3:	48 45 43 4b 20 4d 45 4e 55 2e 2e 00                 HECK MENU...

000016df <__c.2205>:
    16df:	50 4c 41 4e 54 20 43 4f 4e 46 49 47 55 52 41 54     PLANT CONFIGURAT
    16ef:	49 4f 4e 20 43 4f 4d 50 4c 45 54 45 20 50 52 45     ION COMPLETE PRE
    16ff:	53 53 20 42 55 54 54 4f 4e 20 4f 4e 20 54 48 45     SS BUTTON ON THE
    170f:	20 50 4c 41 4e 54 20 54 4f 20 44 49 53 50 45 4e      PLANT TO DISPEN
    171f:	53 45 20 49 4e 20 42 4f 54 54 4c 45 53 20 3a 00     SE IN BOTTLES :.

0000172f <__c.2203>:
    172f:	6c 69 74 72 65 73 00                                litres.

00001736 <__c.2201>:
    1736:	54 48 45 20 56 4f 4c 55 4d 45 20 54 48 41 54 20     THE VOLUME THAT 
    1746:	57 49 4c 4c 20 42 45 20 4c 45 46 54 3a 00           WILL BE LEFT:.

00001754 <__c.2199>:
    1754:	6c 69 74 72 65 73 00                                litres.

0000175b <__c.2197>:
    175b:	20 56 4f 4c 55 4d 45 20 4f 46 20 42 4f 54 54 4c      VOLUME OF BOTTL
    176b:	45 53 20 49 4e 50 55 54 20 49 53 3a 00              ES INPUT IS:.

00001778 <__c.2186>:
    1778:	62 6f 74 74 6c 65 73 00                             bottles.

00001780 <__c.2184>:
    1780:	42 4f 54 54 4c 45 53 20 54 48 41 54 20 43 41 4e     BOTTLES THAT CAN
    1790:	20 42 45 20 46 49 4c 4c 45 44 20 57 49 54 48 20      BE FILLED WITH 
    17a0:	54 48 45 20 41 56 41 49 4c 41 42 4c 45 20 44 52     THE AVAILABLE DR
    17b0:	49 4e 4b 3a 00                                      INK:.

000017b5 <__c.2182>:
    17b5:	53 4f 52 52 59 20 54 48 45 20 42 4f 54 54 4c 45     SORRY THE BOTTLE
    17c5:	53 20 59 4f 55 20 48 41 56 45 20 49 4e 50 55 54     S YOU HAVE INPUT
    17d5:	20 41 52 45 4e 54 20 45 4e 4f 55 47 48 00            ARENT ENOUGH.

000017e3 <__c.2172>:
    17e3:	45 6e 74 65 72 20 74 68 65 20 6e 75 6d 62 65 72     Enter the number
    17f3:	20 6f 66 20 62 6f 74 74 6c 65 73 20 79 6f 75 20      of bottles you 
    1803:	77 61 6e 74 20 74 6f 20 66 69 6c 6c 3a 00           want to fill:.

00001811 <__c.2170>:
    1811:	50 52 45 53 53 20 45 4e 54 45 52 20 54 4f 20 43     PRESS ENTER TO C
    1821:	48 45 43 4b 20 4d 45 4e 55 2e 2e 00                 HECK MENU...

0000182d <__c.2168>:
    182d:	50 4c 41 4e 54 20 43 4f 4e 46 49 47 55 52 41 54     PLANT CONFIGURAT
    183d:	49 4f 4e 20 43 4f 4d 50 4c 45 54 45 20 50 52 45     ION COMPLETE PRE
    184d:	53 53 20 42 55 54 54 4f 4e 20 4f 4e 20 54 48 45     SS BUTTON ON THE
    185d:	20 50 4c 41 4e 54 20 54 4f 20 44 49 53 50 45 4e      PLANT TO DISPEN
    186d:	53 45 20 49 4e 20 42 4f 54 54 4c 45 53 20 3a 00     SE IN BOTTLES :.

0000187d <__c.2166>:
    187d:	6c 69 74 72 65 73 00                                litres.

00001884 <__c.2164>:
    1884:	54 48 45 20 56 4f 4c 55 4d 45 20 49 4e 20 4c 49     THE VOLUME IN LI
    1894:	54 52 45 53 20 54 48 41 54 20 57 49 4c 4c 20 42     TRES THAT WILL B
    18a4:	45 20 4c 45 46 54 20 41 46 54 45 52 20 44 49 53     E LEFT AFTER DIS
    18b4:	50 45 4e 53 49 4e 47 20 49 53 20 20 3a 00           PENSING IS  :.

000018c2 <__c.2162>:
    18c2:	62 6f 74 74 6c 65 73 00                             bottles.

000018ca <__c.2160>:
    18ca:	4e 55 4d 42 45 52 20 4f 46 20 42 4f 54 54 4c 45     NUMBER OF BOTTLE
    18da:	53 20 54 48 41 54 20 43 41 4e 20 42 45 20 46 49     S THAT CAN BE FI
    18ea:	4c 4c 45 44 20 57 49 54 48 20 54 48 45 20 53 45     LLED WITH THE SE
    18fa:	4c 45 43 54 45 44 20 56 4f 4c 55 4d 45 3a 00        LECTED VOLUME:.

00001909 <__c.2146>:
    1909:	45 6e 74 65 72 20 74 68 65 20 76 6f 6c 75 6d 65     Enter the volume
    1919:	20 79 6f 75 20 77 61 6e 74 20 74 6f 20 64 69 73      you want to dis
    1929:	70 65 6e 73 65 20 69 6e 20 6c 69 74 72 65 73 20     pense in litres 
    1939:	2e 2e 6d 61 78 3d 31 35 30 00                       ..max=150.

00001943 <__c.2144>:
    1943:	79 6f 75 72 20 63 68 6f 69 63 65 20 69 73 20 00     your choice is .

00001953 <__c.2142>:
    1953:	43 68 6f 6f 73 65 20 31 20 74 6f 20 65 6e 74 65     Choose 1 to ente
    1963:	72 20 74 68 65 20 6e 75 6d 62 65 72 20 6f 66 20     r the number of 
    1973:	62 6f 74 74 6c 65 73 20 74 6f 20 66 69 6c 6c 00     bottles to fill.

00001983 <__c.2140>:
    1983:	43 68 6f 6f 73 65 20 30 20 74 6f 20 65 6e 74 65     Choose 0 to ente
    1993:	72 20 74 68 65 20 76 6f 6c 75 6d 65 20 74 6f 20     r the volume to 
    19a3:	64 69 73 70 65 6e 73 65 00                          dispense.

000019ac <__c.2138>:
    19ac:	54 68 65 20 6d 61 63 68 69 6e 65 20 77 69 6c 6c     The machine will
    19bc:	20 62 65 20 64 69 73 70 65 6e 73 69 6e 67 20 33      be dispensing 3
    19cc:	30 30 6d 6c 20 62 6f 74 74 6c 65 73 2e 00           00ml bottles..

000019da <__c.2135>:
    19da:	20 20 53 65 6c 65 63 74 20 4f 70 74 69 6f 6e 20       Select Option 
    19ea:	28 20 31 20 2d 20 32 20 29 3a 20 00                 ( 1 - 2 ): .

000019f6 <__c.2133>:
    19f6:	20 32 20 3a 35 30 30 6d 6c 2e 00                     2 :500ml..

00001a01 <__c.2131>:
    1a01:	20 31 20 3a 33 30 30 6d 6c 20 2e 00                  1 :300ml ..

00001a0d <__c.2129>:
    1a0d:	20 50 4c 45 41 53 45 20 53 45 4c 45 43 54 20 42      PLEASE SELECT B
    1a1d:	4f 54 54 4c 45 20 53 49 5a 45 2e 00 00              OTTLE SIZE...

00001a2a <__ctors_end>:
    1a2a:	11 24       	eor	r1, r1
    1a2c:	1f be       	out	0x3f, r1	; 63
    1a2e:	cf ef       	ldi	r28, 0xFF	; 255
    1a30:	d0 e1       	ldi	r29, 0x10	; 16
    1a32:	de bf       	out	0x3e, r29	; 62
    1a34:	cd bf       	out	0x3d, r28	; 61

00001a36 <__do_copy_data>:
    1a36:	11 e0       	ldi	r17, 0x01	; 1
    1a38:	a0 e0       	ldi	r26, 0x00	; 0
    1a3a:	b1 e0       	ldi	r27, 0x01	; 1
    1a3c:	ea ea       	ldi	r30, 0xAA	; 170
    1a3e:	fc e5       	ldi	r31, 0x5C	; 92
    1a40:	00 e0       	ldi	r16, 0x00	; 0
    1a42:	0b bf       	out	0x3b, r16	; 59
    1a44:	02 c0       	rjmp	.+4      	; 0x1a4a <__do_copy_data+0x14>
    1a46:	07 90       	elpm	r0, Z+
    1a48:	0d 92       	st	X+, r0
    1a4a:	a2 3e       	cpi	r26, 0xE2	; 226
    1a4c:	b1 07       	cpc	r27, r17
    1a4e:	d9 f7       	brne	.-10     	; 0x1a46 <__do_copy_data+0x10>

00001a50 <__do_clear_bss>:
    1a50:	22 e0       	ldi	r18, 0x02	; 2
    1a52:	a2 ee       	ldi	r26, 0xE2	; 226
    1a54:	b1 e0       	ldi	r27, 0x01	; 1
    1a56:	01 c0       	rjmp	.+2      	; 0x1a5a <.do_clear_bss_start>

00001a58 <.do_clear_bss_loop>:
    1a58:	1d 92       	st	X+, r1

00001a5a <.do_clear_bss_start>:
    1a5a:	a4 3d       	cpi	r26, 0xD4	; 212
    1a5c:	b2 07       	cpc	r27, r18
    1a5e:	e1 f7       	brne	.-8      	; 0x1a58 <.do_clear_bss_loop>
    1a60:	0e 94 1d 29 	call	0x523a	; 0x523a <main>
    1a64:	0c 94 53 2e 	jmp	0x5ca6	; 0x5ca6 <_exit>

00001a68 <__bad_interrupt>:
    1a68:	0c 94 00 00 	jmp	0	; 0x0 <__vectors>

00001a6c <enable>:
	EEAR = uiAddress;
	/* Start eeprom read by writing EERE */
	EECR |= (1<<EERE);
	/* Return data from data register */
	return EEDR;
}
    1a6c:	1f 9a       	sbi	0x03, 7	; 3
    1a6e:	89 ef       	ldi	r24, 0xF9	; 249
    1a70:	90 e0       	ldi	r25, 0x00	; 0
    1a72:	01 97       	sbiw	r24, 0x01	; 1
    1a74:	f1 f7       	brne	.-4      	; 0x1a72 <enable+0x6>
    1a76:	00 c0       	rjmp	.+0      	; 0x1a78 <enable+0xc>
    1a78:	00 00       	nop
    1a7a:	1f 98       	cbi	0x03, 7	; 3
    1a7c:	89 ef       	ldi	r24, 0xF9	; 249
    1a7e:	90 e0       	ldi	r25, 0x00	; 0
    1a80:	01 97       	sbiw	r24, 0x01	; 1
    1a82:	f1 f7       	brne	.-4      	; 0x1a80 <enable+0x14>
    1a84:	00 c0       	rjmp	.+0      	; 0x1a86 <enable+0x1a>
    1a86:	00 00       	nop
    1a88:	08 95       	ret

00001a8a <initialise>:
    1a8a:	cf 93       	push	r28
    1a8c:	df 93       	push	r29
    1a8e:	8f ef       	ldi	r24, 0xFF	; 255
    1a90:	80 93 61 00 	sts	0x0061, r24	; 0x800061 <__TEXT_REGION_LENGTH__+0x7e0061>
    1a94:	13 b8       	out	0x03, r1	; 3
    1a96:	c2 e6       	ldi	r28, 0x62	; 98
    1a98:	d0 e0       	ldi	r29, 0x00	; 0
    1a9a:	8f e0       	ldi	r24, 0x0F	; 15
    1a9c:	88 83       	st	Y, r24
    1a9e:	e6 df       	rcall	.-52     	; 0x1a6c <enable>
    1aa0:	8f e1       	ldi	r24, 0x1F	; 31
    1aa2:	88 83       	st	Y, r24
    1aa4:	e3 df       	rcall	.-58     	; 0x1a6c <enable>
    1aa6:	8f e3       	ldi	r24, 0x3F	; 63
    1aa8:	88 83       	st	Y, r24
    1aaa:	e0 df       	rcall	.-64     	; 0x1a6c <enable>
    1aac:	81 e0       	ldi	r24, 0x01	; 1
    1aae:	88 83       	st	Y, r24
    1ab0:	dd df       	rcall	.-70     	; 0x1a6c <enable>
    1ab2:	df 91       	pop	r29
    1ab4:	cf 91       	pop	r28
    1ab6:	08 95       	ret

00001ab8 <clearscreen>:
    1ab8:	81 e0       	ldi	r24, 0x01	; 1
    1aba:	80 93 62 00 	sts	0x0062, r24	; 0x800062 <__TEXT_REGION_LENGTH__+0x7e0062>
    1abe:	d6 cf       	rjmp	.-84     	; 0x1a6c <enable>
    1ac0:	08 95       	ret

00001ac2 <write_char>:
    1ac2:	1d 9a       	sbi	0x03, 5	; 3
    1ac4:	80 93 62 00 	sts	0x0062, r24	; 0x800062 <__TEXT_REGION_LENGTH__+0x7e0062>
    1ac8:	d1 df       	rcall	.-94     	; 0x1a6c <enable>
    1aca:	83 b1       	in	r24, 0x03	; 3
    1acc:	80 7c       	andi	r24, 0xC0	; 192
    1ace:	83 b9       	out	0x03, r24	; 3
    1ad0:	08 95       	ret

00001ad2 <lcd_write_string>:
    1ad2:	0f 93       	push	r16
    1ad4:	1f 93       	push	r17
    1ad6:	cf 93       	push	r28
    1ad8:	fc 01       	movw	r30, r24
    1ada:	80 81       	ld	r24, Z
    1adc:	88 23       	and	r24, r24
    1ade:	59 f0       	breq	.+22     	; 0x1af6 <lcd_write_string+0x24>
    1ae0:	8f 01       	movw	r16, r30
    1ae2:	c0 e0       	ldi	r28, 0x00	; 0
    1ae4:	90 e0       	ldi	r25, 0x00	; 0
    1ae6:	ed df       	rcall	.-38     	; 0x1ac2 <write_char>
    1ae8:	cf 5f       	subi	r28, 0xFF	; 255
    1aea:	f8 01       	movw	r30, r16
    1aec:	ec 0f       	add	r30, r28
    1aee:	f1 1d       	adc	r31, r1
    1af0:	80 81       	ld	r24, Z
    1af2:	81 11       	cpse	r24, r1
    1af4:	f7 cf       	rjmp	.-18     	; 0x1ae4 <lcd_write_string+0x12>
    1af6:	cf 91       	pop	r28
    1af8:	1f 91       	pop	r17
    1afa:	0f 91       	pop	r16
    1afc:	08 95       	ret

00001afe <motor>:
    1afe:	8c e0       	ldi	r24, 0x0C	; 12
    1b00:	82 bb       	out	0x12, r24	; 18
    1b02:	2f e3       	ldi	r18, 0x3F	; 63
    1b04:	8d e0       	ldi	r24, 0x0D	; 13
    1b06:	93 e0       	ldi	r25, 0x03	; 3
    1b08:	21 50       	subi	r18, 0x01	; 1
    1b0a:	80 40       	sbci	r24, 0x00	; 0
    1b0c:	90 40       	sbci	r25, 0x00	; 0
    1b0e:	e1 f7       	brne	.-8      	; 0x1b08 <motor+0xa>
    1b10:	00 c0       	rjmp	.+0      	; 0x1b12 <motor+0x14>
    1b12:	00 00       	nop
    1b14:	86 e0       	ldi	r24, 0x06	; 6
    1b16:	82 bb       	out	0x12, r24	; 18
    1b18:	2f e3       	ldi	r18, 0x3F	; 63
    1b1a:	8d e0       	ldi	r24, 0x0D	; 13
    1b1c:	93 e0       	ldi	r25, 0x03	; 3
    1b1e:	21 50       	subi	r18, 0x01	; 1
    1b20:	80 40       	sbci	r24, 0x00	; 0
    1b22:	90 40       	sbci	r25, 0x00	; 0
    1b24:	e1 f7       	brne	.-8      	; 0x1b1e <motor+0x20>
    1b26:	00 c0       	rjmp	.+0      	; 0x1b28 <motor+0x2a>
    1b28:	00 00       	nop
    1b2a:	83 e0       	ldi	r24, 0x03	; 3
    1b2c:	82 bb       	out	0x12, r24	; 18
    1b2e:	2f e3       	ldi	r18, 0x3F	; 63
    1b30:	8d e0       	ldi	r24, 0x0D	; 13
    1b32:	93 e0       	ldi	r25, 0x03	; 3
    1b34:	21 50       	subi	r18, 0x01	; 1
    1b36:	80 40       	sbci	r24, 0x00	; 0
    1b38:	90 40       	sbci	r25, 0x00	; 0
    1b3a:	e1 f7       	brne	.-8      	; 0x1b34 <motor+0x36>
    1b3c:	00 c0       	rjmp	.+0      	; 0x1b3e <motor+0x40>
    1b3e:	00 00       	nop
    1b40:	89 e0       	ldi	r24, 0x09	; 9
    1b42:	82 bb       	out	0x12, r24	; 18
    1b44:	2f e3       	ldi	r18, 0x3F	; 63
    1b46:	8d e0       	ldi	r24, 0x0D	; 13
    1b48:	93 e0       	ldi	r25, 0x03	; 3
    1b4a:	21 50       	subi	r18, 0x01	; 1
    1b4c:	80 40       	sbci	r24, 0x00	; 0
    1b4e:	90 40       	sbci	r25, 0x00	; 0
    1b50:	e1 f7       	brne	.-8      	; 0x1b4a <motor+0x4c>
    1b52:	00 c0       	rjmp	.+0      	; 0x1b54 <motor+0x56>
    1b54:	00 00       	nop
    1b56:	08 95       	ret

00001b58 <__vector_16>:
    1b58:	1f 92       	push	r1
    1b5a:	0f 92       	push	r0
    1b5c:	0f b6       	in	r0, 0x3f	; 63
    1b5e:	0f 92       	push	r0
    1b60:	11 24       	eor	r1, r1
    1b62:	8f 93       	push	r24
    1b64:	80 91 7f 02 	lds	r24, 0x027F	; 0x80027f <count>
    1b68:	8f 5f       	subi	r24, 0xFF	; 255
    1b6a:	80 93 7f 02 	sts	0x027F, r24	; 0x80027f <count>
    1b6e:	80 37       	cpi	r24, 0x70	; 112
    1b70:	40 f0       	brcs	.+16     	; 0x1b82 <__vector_16+0x2a>
    1b72:	80 91 7e 02 	lds	r24, 0x027E	; 0x80027e <seconds>
    1b76:	8f 5f       	subi	r24, 0xFF	; 255
    1b78:	80 93 7e 02 	sts	0x027E, r24	; 0x80027e <seconds>
    1b7c:	12 be       	out	0x32, r1	; 50
    1b7e:	10 92 7f 02 	sts	0x027F, r1	; 0x80027f <count>
    1b82:	8f 91       	pop	r24
    1b84:	0f 90       	pop	r0
    1b86:	0f be       	out	0x3f, r0	; 63
    1b88:	0f 90       	pop	r0
    1b8a:	1f 90       	pop	r1
    1b8c:	18 95       	reti

00001b8e <init_timer0>:
    1b8e:	f8 94       	cli
    1b90:	83 b7       	in	r24, 0x33	; 51
    1b92:	84 60       	ori	r24, 0x04	; 4
    1b94:	83 bf       	out	0x33, r24	; 51
    1b96:	12 be       	out	0x32, r1	; 50
    1b98:	87 b7       	in	r24, 0x37	; 55
    1b9a:	81 60       	ori	r24, 0x01	; 1
    1b9c:	87 bf       	out	0x37, r24	; 55
    1b9e:	78 94       	sei
    1ba0:	08 95       	ret

00001ba2 <USART_Init>:
///////////////////////////////////////////////////////////

void USART_Init( unsigned int ubrr )
{
	/* Set baud rate */
	UBRR0H = (unsigned char)(ubrr>>8);
    1ba2:	90 93 90 00 	sts	0x0090, r25	; 0x800090 <__TEXT_REGION_LENGTH__+0x7e0090>
	UBRR0L = (unsigned char)ubrr;
    1ba6:	89 b9       	out	0x09, r24	; 9
	/* Enable receiver and transmitter */
	UCSR0B = (1<<RXEN)|(1<<TXEN) | (1 << RXCIE);
    1ba8:	88 e9       	ldi	r24, 0x98	; 152
    1baa:	8a b9       	out	0x0a, r24	; 10
	/* Set frame format: 8data, 2stop bit */
	UCSR0C = (1<<USBS)|(3<<UCSZ0);
    1bac:	8e e0       	ldi	r24, 0x0E	; 14
    1bae:	80 93 95 00 	sts	0x0095, r24	; 0x800095 <__TEXT_REGION_LENGTH__+0x7e0095>
    1bb2:	08 95       	ret

00001bb4 <receiveByte>:
//Function to receive a single byte
//*************************************************
unsigned char receiveByte( void )
{
	/* Wait for data to be received */
	while ( !(UCSR0A & (1<<RXC)) );
    1bb4:	5f 9b       	sbis	0x0b, 7	; 11
    1bb6:	fe cf       	rjmp	.-4      	; 0x1bb4 <receiveByte>
	/* Get and return received data from buffer */
	return UDR0;
    1bb8:	8c b1       	in	r24, 0x0c	; 12
}
    1bba:	08 95       	ret

00001bbc <transmitByte>:
//Function to transmit a single byte
//***************************************************
void transmitByte( unsigned char data )
{
	/* Wait for empty transmit buffer */
	while ( !( UCSR0A & (1<<UDRE)) )
    1bbc:	5d 9b       	sbis	0x0b, 5	; 11
    1bbe:	fe cf       	rjmp	.-4      	; 0x1bbc <transmitByte>
	;
	/* Put data into buffer, sends the data */
	UDR0 = data;}
    1bc0:	8c b9       	out	0x0c, r24	; 12
    1bc2:	08 95       	ret

00001bc4 <transmitString_F>:

//***************************************************
//Function to transmit a string in Flash
//***************************************************
void transmitString_F(char* string)
{
    1bc4:	cf 93       	push	r28
    1bc6:	df 93       	push	r29
    1bc8:	ec 01       	movw	r28, r24
  while (pgm_read_byte(&(*string)))
    1bca:	fc 01       	movw	r30, r24
    1bcc:	84 91       	lpm	r24, Z
    1bce:	88 23       	and	r24, r24
    1bd0:	41 f0       	breq	.+16     	; 0x1be2 <transmitString_F+0x1e>
    1bd2:	fe 01       	movw	r30, r28
   transmitByte(pgm_read_byte(&(*string++)));
    1bd4:	21 96       	adiw	r28, 0x01	; 1
    1bd6:	84 91       	lpm	r24, Z
    1bd8:	f1 df       	rcall	.-30     	; 0x1bbc <transmitByte>
//***************************************************
//Function to transmit a string in Flash
//***************************************************
void transmitString_F(char* string)
{
  while (pgm_read_byte(&(*string)))
    1bda:	fe 01       	movw	r30, r28
    1bdc:	84 91       	lpm	r24, Z
    1bde:	81 11       	cpse	r24, r1
    1be0:	f8 cf       	rjmp	.-16     	; 0x1bd2 <transmitString_F+0xe>
   transmitByte(pgm_read_byte(&(*string++)));
}
    1be2:	df 91       	pop	r29
    1be4:	cf 91       	pop	r28
    1be6:	08 95       	ret

00001be8 <transmitString>:

//***************************************************
//Function to transmit a string in RAM
//***************************************************
void transmitString(char* string)
{
    1be8:	cf 93       	push	r28
    1bea:	df 93       	push	r29
    1bec:	ec 01       	movw	r28, r24
    while (*string)
    1bee:	88 81       	ld	r24, Y
    1bf0:	88 23       	and	r24, r24
    1bf2:	29 f0       	breq	.+10     	; 0x1bfe <transmitString+0x16>
    1bf4:	21 96       	adiw	r28, 0x01	; 1
		transmitByte(*string++);
    1bf6:	e2 df       	rcall	.-60     	; 0x1bbc <transmitByte>
//***************************************************
//Function to transmit a string in RAM
//***************************************************
void transmitString(char* string)
{
    while (*string)
    1bf8:	89 91       	ld	r24, Y+
    1bfa:	81 11       	cpse	r24, r1
    1bfc:	fc cf       	rjmp	.-8      	; 0x1bf6 <transmitString+0xe>
		transmitByte(*string++);
}
    1bfe:	df 91       	pop	r29
    1c00:	cf 91       	pop	r28
    1c02:	08 95       	ret

00001c04 <transmitInt>:
    } else if (__radix < 2 || __radix > 36) {
	*__s = 0;
	return __s;
    } else {
	extern char *__itoa_ncheck (int, char *, unsigned char);
	return __itoa_ncheck (__val, __s, __radix);
    1c04:	60 91 c4 02 	lds	r22, 0x02C4	; 0x8002c4 <str>
    1c08:	70 91 c5 02 	lds	r23, 0x02C5	; 0x8002c5 <str+0x1>
    1c0c:	4a e0       	ldi	r20, 0x0A	; 10
    1c0e:	90 e0       	ldi	r25, 0x00	; 0
    1c10:	0e 94 0b 2e 	call	0x5c16	; 0x5c16 <__itoa_ncheck>

void transmitInt(uint8_t in){
	itoa(in,str,10);
	transmitString(str);
    1c14:	80 91 c4 02 	lds	r24, 0x02C4	; 0x8002c4 <str>
    1c18:	90 91 c5 02 	lds	r25, 0x02C5	; 0x8002c5 <str+0x1>
    1c1c:	e5 cf       	rjmp	.-54     	; 0x1be8 <transmitString>
    1c1e:	08 95       	ret

00001c20 <bottle_sizes>:
}
  //////////////////////////////////////////////////////////////////////////////////////
  
  void bottle_sizes(){
    1c20:	cf 92       	push	r12
    1c22:	df 92       	push	r13
    1c24:	ef 92       	push	r14
    1c26:	ff 92       	push	r15
    1c28:	0f 93       	push	r16
    1c2a:	1f 93       	push	r17
    1c2c:	cf 93       	push	r28
    1c2e:	df 93       	push	r29
	  if (ini_applewhole != NULL || ini_guavawhole != NULL || ini_mangowhole != NULL || ini_pineapplewhole != NULL || ini_orangewhole != NULL)
    1c30:	80 91 c2 02 	lds	r24, 0x02C2	; 0x8002c2 <ini_applewhole>
    1c34:	90 91 c3 02 	lds	r25, 0x02C3	; 0x8002c3 <ini_applewhole+0x1>
    1c38:	89 2b       	or	r24, r25
    1c3a:	c9 f4       	brne	.+50     	; 0x1c6e <bottle_sizes+0x4e>
    1c3c:	80 91 96 02 	lds	r24, 0x0296	; 0x800296 <ini_guavawhole>
    1c40:	90 91 97 02 	lds	r25, 0x0297	; 0x800297 <ini_guavawhole+0x1>
    1c44:	89 2b       	or	r24, r25
    1c46:	99 f4       	brne	.+38     	; 0x1c6e <bottle_sizes+0x4e>
    1c48:	80 91 8a 02 	lds	r24, 0x028A	; 0x80028a <ini_mangowhole>
    1c4c:	90 91 8b 02 	lds	r25, 0x028B	; 0x80028b <ini_mangowhole+0x1>
    1c50:	89 2b       	or	r24, r25
    1c52:	69 f4       	brne	.+26     	; 0x1c6e <bottle_sizes+0x4e>
    1c54:	80 91 c8 02 	lds	r24, 0x02C8	; 0x8002c8 <ini_pineapplewhole>
    1c58:	90 91 c9 02 	lds	r25, 0x02C9	; 0x8002c9 <ini_pineapplewhole+0x1>
    1c5c:	89 2b       	or	r24, r25
    1c5e:	39 f4       	brne	.+14     	; 0x1c6e <bottle_sizes+0x4e>
    1c60:	80 91 b6 02 	lds	r24, 0x02B6	; 0x8002b6 <ini_orangewhole>
    1c64:	90 91 b7 02 	lds	r25, 0x02B7	; 0x8002b7 <ini_orangewhole+0x1>
    1c68:	89 2b       	or	r24, r25
    1c6a:	09 f4       	brne	.+2      	; 0x1c6e <bottle_sizes+0x4e>
    1c6c:	1e c5       	rjmp	.+2620   	; 0x26aa <bottle_sizes+0xa8a>
	  {
	  ///////////////////////////////////////////////////////////////////
	  TX_NEWLINE;
    1c6e:	8d e0       	ldi	r24, 0x0D	; 13
    1c70:	a5 df       	rcall	.-182    	; 0x1bbc <transmitByte>
    1c72:	8a e0       	ldi	r24, 0x0A	; 10
    1c74:	a3 df       	rcall	.-186    	; 0x1bbc <transmitByte>
	  transmitString_F(PSTR(" PLEASE SELECT BOTTLE SIZE."));
    1c76:	8d e0       	ldi	r24, 0x0D	; 13
    1c78:	9a e1       	ldi	r25, 0x1A	; 26
    1c7a:	a4 df       	rcall	.-184    	; 0x1bc4 <transmitString_F>
	  TX_NEWLINE;
    1c7c:	8d e0       	ldi	r24, 0x0D	; 13
    1c7e:	9e df       	rcall	.-196    	; 0x1bbc <transmitByte>
    1c80:	8a e0       	ldi	r24, 0x0A	; 10
    1c82:	9c df       	rcall	.-200    	; 0x1bbc <transmitByte>
	  transmitString_F(PSTR(" 1 :300ml ."));
    1c84:	81 e0       	ldi	r24, 0x01	; 1
    1c86:	9a e1       	ldi	r25, 0x1A	; 26
    1c88:	9d df       	rcall	.-198    	; 0x1bc4 <transmitString_F>
	  TX_NEWLINE;
    1c8a:	8d e0       	ldi	r24, 0x0D	; 13
    1c8c:	97 df       	rcall	.-210    	; 0x1bbc <transmitByte>
    1c8e:	8a e0       	ldi	r24, 0x0A	; 10
    1c90:	95 df       	rcall	.-214    	; 0x1bbc <transmitByte>
	  transmitString_F(PSTR(" 2 :500ml."));
    1c92:	86 ef       	ldi	r24, 0xF6	; 246
    1c94:	99 e1       	ldi	r25, 0x19	; 25
    1c96:	96 df       	rcall	.-212    	; 0x1bc4 <transmitString_F>
	  TX_NEWLINE;
    1c98:	8d e0       	ldi	r24, 0x0D	; 13
    1c9a:	90 df       	rcall	.-224    	; 0x1bbc <transmitByte>
    1c9c:	8a e0       	ldi	r24, 0x0A	; 10
    1c9e:	8e df       	rcall	.-228    	; 0x1bbc <transmitByte>
	  transmitString_F(PSTR("  Select Option ( 1 - 2 ): "));
    1ca0:	8a ed       	ldi	r24, 0xDA	; 218
    1ca2:	99 e1       	ldi	r25, 0x19	; 25
    1ca4:	8f df       	rcall	.-226    	; 0x1bc4 <transmitString_F>
	  TX_NEWLINE;
    1ca6:	8d e0       	ldi	r24, 0x0D	; 13
    1ca8:	89 df       	rcall	.-238    	; 0x1bbc <transmitByte>
    1caa:	8a e0       	ldi	r24, 0x0A	; 10
    1cac:	87 df       	rcall	.-242    	; 0x1bbc <transmitByte>
	  transmitByte(' ');
    1cae:	80 e2       	ldi	r24, 0x20	; 32
    1cb0:	85 df       	rcall	.-246    	; 0x1bbc <transmitByte>
	  option2 = receiveByte();
    1cb2:	80 df       	rcall	.-256    	; 0x1bb4 <receiveByte>
    1cb4:	80 93 8c 02 	sts	0x028C, r24	; 0x80028c <option2>
	  TX_NEWLINE;
    1cb8:	8d e0       	ldi	r24, 0x0D	; 13
    1cba:	80 df       	rcall	.-256    	; 0x1bbc <transmitByte>
    1cbc:	8a e0       	ldi	r24, 0x0A	; 10
    1cbe:	7e df       	rcall	.-260    	; 0x1bbc <transmitByte>
	  switch (option2)
    1cc0:	80 91 8c 02 	lds	r24, 0x028C	; 0x80028c <option2>
    1cc4:	81 33       	cpi	r24, 0x31	; 49
    1cc6:	21 f0       	breq	.+8      	; 0x1cd0 <bottle_sizes+0xb0>
    1cc8:	82 33       	cpi	r24, 0x32	; 50
    1cca:	09 f4       	brne	.+2      	; 0x1cce <bottle_sizes+0xae>
    1ccc:	69 c2       	rjmp	.+1234   	; 0x21a0 <bottle_sizes+0x580>
    1cce:	de c4       	rjmp	.+2492   	; 0x268c <bottle_sizes+0xa6c>
	  {
		  case '1':TX_NEWLINE;
    1cd0:	8d e0       	ldi	r24, 0x0D	; 13
    1cd2:	74 df       	rcall	.-280    	; 0x1bbc <transmitByte>
    1cd4:	8a e0       	ldi	r24, 0x0A	; 10
    1cd6:	72 df       	rcall	.-284    	; 0x1bbc <transmitByte>
		  selectedvolume=0.3;
    1cd8:	8a e9       	ldi	r24, 0x9A	; 154
    1cda:	99 e9       	ldi	r25, 0x99	; 153
    1cdc:	a9 e9       	ldi	r26, 0x99	; 153
    1cde:	be e3       	ldi	r27, 0x3E	; 62
    1ce0:	80 93 86 02 	sts	0x0286, r24	; 0x800286 <selectedvolume>
    1ce4:	90 93 87 02 	sts	0x0287, r25	; 0x800287 <selectedvolume+0x1>
    1ce8:	a0 93 88 02 	sts	0x0288, r26	; 0x800288 <selectedvolume+0x2>
    1cec:	b0 93 89 02 	sts	0x0289, r27	; 0x800289 <selectedvolume+0x3>
		  transmitString_F(PSTR("The machine will be dispensing 300ml bottles."));
    1cf0:	8c ea       	ldi	r24, 0xAC	; 172
    1cf2:	99 e1       	ldi	r25, 0x19	; 25
    1cf4:	67 df       	rcall	.-306    	; 0x1bc4 <transmitString_F>
		  TX_NEWLINE;
    1cf6:	8d e0       	ldi	r24, 0x0D	; 13
    1cf8:	61 df       	rcall	.-318    	; 0x1bbc <transmitByte>
    1cfa:	8a e0       	ldi	r24, 0x0A	; 10
    1cfc:	5f df       	rcall	.-322    	; 0x1bbc <transmitByte>
		  transmitString_F(PSTR("Choose 0 to enter the volume to dispense"));
    1cfe:	83 e8       	ldi	r24, 0x83	; 131
    1d00:	99 e1       	ldi	r25, 0x19	; 25
    1d02:	60 df       	rcall	.-320    	; 0x1bc4 <transmitString_F>
		  TX_NEWLINE;
    1d04:	8d e0       	ldi	r24, 0x0D	; 13
    1d06:	5a df       	rcall	.-332    	; 0x1bbc <transmitByte>
    1d08:	8a e0       	ldi	r24, 0x0A	; 10
    1d0a:	58 df       	rcall	.-336    	; 0x1bbc <transmitByte>
		  transmitString_F(PSTR("Choose 1 to enter the number of bottles to fill"));
    1d0c:	83 e5       	ldi	r24, 0x53	; 83
    1d0e:	99 e1       	ldi	r25, 0x19	; 25
    1d10:	59 df       	rcall	.-334    	; 0x1bc4 <transmitString_F>
		  TX_NEWLINE;
    1d12:	8d e0       	ldi	r24, 0x0D	; 13
    1d14:	53 df       	rcall	.-346    	; 0x1bbc <transmitByte>
    1d16:	8a e0       	ldi	r24, 0x0A	; 10
    1d18:	51 df       	rcall	.-350    	; 0x1bbc <transmitByte>
		  transmitByte(' ');
    1d1a:	80 e2       	ldi	r24, 0x20	; 32
    1d1c:	4f df       	rcall	.-354    	; 0x1bbc <transmitByte>
		  data= receiveByte(); transmitByte(data);
    1d1e:	4a df       	rcall	.-364    	; 0x1bb4 <receiveByte>
    1d20:	80 93 af 02 	sts	0x02AF, r24	; 0x8002af <data>
    1d24:	4b df       	rcall	.-362    	; 0x1bbc <transmitByte>
		  TX_NEWLINE;
    1d26:	8d e0       	ldi	r24, 0x0D	; 13
    1d28:	49 df       	rcall	.-366    	; 0x1bbc <transmitByte>
    1d2a:	8a e0       	ldi	r24, 0x0A	; 10
    1d2c:	47 df       	rcall	.-370    	; 0x1bbc <transmitByte>
		  choicearray[0] = (data & 0x0f); //
    1d2e:	80 91 af 02 	lds	r24, 0x02AF	; 0x8002af <data>
    1d32:	8f 70       	andi	r24, 0x0F	; 15
    1d34:	90 e0       	ldi	r25, 0x00	; 0
    1d36:	90 93 0d 02 	sts	0x020D, r25	; 0x80020d <choicearray+0x1>
    1d3a:	80 93 0c 02 	sts	0x020C, r24	; 0x80020c <choicearray>
		  TX_NEWLINE;
    1d3e:	8d e0       	ldi	r24, 0x0D	; 13
    1d40:	3d df       	rcall	.-390    	; 0x1bbc <transmitByte>
    1d42:	8a e0       	ldi	r24, 0x0A	; 10
    1d44:	3b df       	rcall	.-394    	; 0x1bbc <transmitByte>
		  transmitString_F(PSTR("your choice is "));
    1d46:	83 e4       	ldi	r24, 0x43	; 67
    1d48:	99 e1       	ldi	r25, 0x19	; 25
    1d4a:	3c df       	rcall	.-392    	; 0x1bc4 <transmitString_F>
		  transmitInt(choicearray[0]);
    1d4c:	80 91 0c 02 	lds	r24, 0x020C	; 0x80020c <choicearray>
    1d50:	59 df       	rcall	.-334    	; 0x1c04 <transmitInt>
		  TX_NEWLINE;
    1d52:	8d e0       	ldi	r24, 0x0D	; 13
    1d54:	33 df       	rcall	.-410    	; 0x1bbc <transmitByte>
    1d56:	8a e0       	ldi	r24, 0x0A	; 10
    1d58:	31 df       	rcall	.-414    	; 0x1bbc <transmitByte>
		  if ((choicearray[0])==0)
    1d5a:	80 91 0c 02 	lds	r24, 0x020C	; 0x80020c <choicearray>
    1d5e:	90 91 0d 02 	lds	r25, 0x020D	; 0x80020d <choicearray+0x1>
    1d62:	00 97       	sbiw	r24, 0x00	; 0
    1d64:	09 f0       	breq	.+2      	; 0x1d68 <bottle_sizes+0x148>
    1d66:	ee c0       	rjmp	.+476    	; 0x1f44 <bottle_sizes+0x324>
		  {
			  transmitString_F(PSTR("Enter the volume you want to dispense in litres ..max=150"));//this should be out of 50
    1d68:	89 e0       	ldi	r24, 0x09	; 9
    1d6a:	99 e1       	ldi	r25, 0x19	; 25
    1d6c:	2b df       	rcall	.-426    	; 0x1bc4 <transmitString_F>
			  TX_NEWLINE;
    1d6e:	8d e0       	ldi	r24, 0x0D	; 13
    1d70:	25 df       	rcall	.-438    	; 0x1bbc <transmitByte>
    1d72:	8a e0       	ldi	r24, 0x0A	; 10
    1d74:	23 df       	rcall	.-442    	; 0x1bbc <transmitByte>
			  transmitByte(' ');
    1d76:	80 e2       	ldi	r24, 0x20	; 32
    1d78:	21 df       	rcall	.-446    	; 0x1bbc <transmitByte>
			  data= receiveByte(); transmitByte(data);
    1d7a:	1c df       	rcall	.-456    	; 0x1bb4 <receiveByte>
    1d7c:	80 93 af 02 	sts	0x02AF, r24	; 0x8002af <data>
    1d80:	1d df       	rcall	.-454    	; 0x1bbc <transmitByte>
			  dispensevolume[0] = (data & 0x0f); //
    1d82:	ce e0       	ldi	r28, 0x0E	; 14
    1d84:	d2 e0       	ldi	r29, 0x02	; 2
    1d86:	80 91 af 02 	lds	r24, 0x02AF	; 0x8002af <data>
    1d8a:	8f 70       	andi	r24, 0x0F	; 15
    1d8c:	90 e0       	ldi	r25, 0x00	; 0
    1d8e:	99 83       	std	Y+1, r25	; 0x01
    1d90:	88 83       	st	Y, r24
			  
			  transmitByte(' ');
    1d92:	80 e2       	ldi	r24, 0x20	; 32
    1d94:	13 df       	rcall	.-474    	; 0x1bbc <transmitByte>
			  data = receiveByte(); transmitByte(data);
    1d96:	0e df       	rcall	.-484    	; 0x1bb4 <receiveByte>
    1d98:	80 93 af 02 	sts	0x02AF, r24	; 0x8002af <data>
    1d9c:	0f df       	rcall	.-482    	; 0x1bbc <transmitByte>
			  
			  dispensevolume[1] = (data & 0x0f);
    1d9e:	80 91 af 02 	lds	r24, 0x02AF	; 0x8002af <data>
    1da2:	8f 70       	andi	r24, 0x0F	; 15
    1da4:	90 e0       	ldi	r25, 0x00	; 0
    1da6:	9b 83       	std	Y+3, r25	; 0x03
    1da8:	8a 83       	std	Y+2, r24	; 0x02
			  transmitByte(' ');
    1daa:	80 e2       	ldi	r24, 0x20	; 32
    1dac:	07 df       	rcall	.-498    	; 0x1bbc <transmitByte>
			  data = receiveByte(); transmitByte(data);
    1dae:	02 df       	rcall	.-508    	; 0x1bb4 <receiveByte>
    1db0:	80 93 af 02 	sts	0x02AF, r24	; 0x8002af <data>
    1db4:	03 df       	rcall	.-506    	; 0x1bbc <transmitByte>
			  dispensevolume[2] = (data & 0x0f);
    1db6:	80 91 af 02 	lds	r24, 0x02AF	; 0x8002af <data>
    1dba:	8f 70       	andi	r24, 0x0F	; 15
    1dbc:	90 e0       	ldi	r25, 0x00	; 0
    1dbe:	9d 83       	std	Y+5, r25	; 0x05
    1dc0:	8c 83       	std	Y+4, r24	; 0x04
			  TX_NEWLINE;
    1dc2:	8d e0       	ldi	r24, 0x0D	; 13
    1dc4:	fb de       	rcall	.-522    	; 0x1bbc <transmitByte>
    1dc6:	8a e0       	ldi	r24, 0x0A	; 10
    1dc8:	f9 de       	rcall	.-526    	; 0x1bbc <transmitByte>
			  for (int i=0;i<3;i++)
			  {
				  dispensevolumewhole=10*dispensevolumewhole+dispensevolume[i];
    1dca:	40 91 a9 02 	lds	r20, 0x02A9	; 0x8002a9 <dispensevolumewhole>
    1dce:	50 91 aa 02 	lds	r21, 0x02AA	; 0x8002aa <dispensevolumewhole+0x1>
    1dd2:	9a 01       	movw	r18, r20
    1dd4:	22 0f       	add	r18, r18
    1dd6:	33 1f       	adc	r19, r19
    1dd8:	44 0f       	add	r20, r20
    1dda:	55 1f       	adc	r21, r21
    1ddc:	44 0f       	add	r20, r20
    1dde:	55 1f       	adc	r21, r21
    1de0:	44 0f       	add	r20, r20
    1de2:	55 1f       	adc	r21, r21
    1de4:	24 0f       	add	r18, r20
    1de6:	35 1f       	adc	r19, r21
    1de8:	88 81       	ld	r24, Y
    1dea:	99 81       	ldd	r25, Y+1	; 0x01
    1dec:	28 0f       	add	r18, r24
    1dee:	39 1f       	adc	r19, r25
    1df0:	c9 01       	movw	r24, r18
    1df2:	88 0f       	add	r24, r24
    1df4:	99 1f       	adc	r25, r25
    1df6:	22 0f       	add	r18, r18
    1df8:	33 1f       	adc	r19, r19
    1dfa:	22 0f       	add	r18, r18
    1dfc:	33 1f       	adc	r19, r19
    1dfe:	22 0f       	add	r18, r18
    1e00:	33 1f       	adc	r19, r19
    1e02:	82 0f       	add	r24, r18
    1e04:	93 1f       	adc	r25, r19
    1e06:	2a 81       	ldd	r18, Y+2	; 0x02
    1e08:	3b 81       	ldd	r19, Y+3	; 0x03
    1e0a:	82 0f       	add	r24, r18
    1e0c:	93 1f       	adc	r25, r19
    1e0e:	9c 01       	movw	r18, r24
    1e10:	22 0f       	add	r18, r18
    1e12:	33 1f       	adc	r19, r19
    1e14:	88 0f       	add	r24, r24
    1e16:	99 1f       	adc	r25, r25
    1e18:	88 0f       	add	r24, r24
    1e1a:	99 1f       	adc	r25, r25
    1e1c:	88 0f       	add	r24, r24
    1e1e:	99 1f       	adc	r25, r25
    1e20:	82 0f       	add	r24, r18
    1e22:	93 1f       	adc	r25, r19
    1e24:	0c 80       	ldd	r0, Y+4	; 0x04
    1e26:	dd 81       	ldd	r29, Y+5	; 0x05
    1e28:	c0 2d       	mov	r28, r0
    1e2a:	c8 0f       	add	r28, r24
    1e2c:	d9 1f       	adc	r29, r25
    1e2e:	d0 93 aa 02 	sts	0x02AA, r29	; 0x8002aa <dispensevolumewhole+0x1>
    1e32:	c0 93 a9 02 	sts	0x02A9, r28	; 0x8002a9 <dispensevolumewhole>
			  }
			  numberofbottles=dispensevolumewhole/selectedvolume;
    1e36:	be 01       	movw	r22, r28
    1e38:	0d 2e       	mov	r0, r29
    1e3a:	00 0c       	add	r0, r0
    1e3c:	88 0b       	sbc	r24, r24
    1e3e:	99 0b       	sbc	r25, r25
    1e40:	0e 94 ec 2c 	call	0x59d8	; 0x59d8 <__floatsisf>
    1e44:	20 91 86 02 	lds	r18, 0x0286	; 0x800286 <selectedvolume>
    1e48:	30 91 87 02 	lds	r19, 0x0287	; 0x800287 <selectedvolume+0x1>
    1e4c:	40 91 88 02 	lds	r20, 0x0288	; 0x800288 <selectedvolume+0x2>
    1e50:	50 91 89 02 	lds	r21, 0x0289	; 0x800289 <selectedvolume+0x3>
    1e54:	0e 94 51 2c 	call	0x58a2	; 0x58a2 <__divsf3>
    1e58:	0e 94 b9 2c 	call	0x5972	; 0x5972 <__fixsfsi>
			  numberofbottles1=numberofbottles;
    1e5c:	70 93 b9 02 	sts	0x02B9, r23	; 0x8002b9 <numberofbottles1+0x1>
    1e60:	60 93 b8 02 	sts	0x02B8, r22	; 0x8002b8 <numberofbottles1>
			  
			  for (int i = 2; i >= 0; i--)
			  {
				  numberofbottlesarray[i] = numberofbottles% 10;
    1e64:	00 e0       	ldi	r16, 0x00	; 0
    1e66:	12 e0       	ldi	r17, 0x02	; 2
    1e68:	2a e0       	ldi	r18, 0x0A	; 10
    1e6a:	30 e0       	ldi	r19, 0x00	; 0
    1e6c:	cb 01       	movw	r24, r22
    1e6e:	b9 01       	movw	r22, r18
    1e70:	0e 94 db 2d 	call	0x5bb6	; 0x5bb6 <__divmodhi4>
    1e74:	d8 01       	movw	r26, r16
    1e76:	15 96       	adiw	r26, 0x05	; 5
    1e78:	9c 93       	st	X, r25
    1e7a:	8e 93       	st	-X, r24
    1e7c:	14 97       	sbiw	r26, 0x04	; 4
    1e7e:	cb 01       	movw	r24, r22
    1e80:	b9 01       	movw	r22, r18
    1e82:	0e 94 db 2d 	call	0x5bb6	; 0x5bb6 <__divmodhi4>
    1e86:	f8 01       	movw	r30, r16
    1e88:	93 83       	std	Z+3, r25	; 0x03
    1e8a:	82 83       	std	Z+2, r24	; 0x02
    1e8c:	cb 01       	movw	r24, r22
    1e8e:	b9 01       	movw	r22, r18
    1e90:	0e 94 db 2d 	call	0x5bb6	; 0x5bb6 <__divmodhi4>
    1e94:	91 83       	std	Z+1, r25	; 0x01
    1e96:	80 83       	st	Z, r24
    1e98:	70 93 bb 02 	sts	0x02BB, r23	; 0x8002bb <numberofbottles+0x1>
    1e9c:	60 93 ba 02 	sts	0x02BA, r22	; 0x8002ba <numberofbottles>
				  numberofbottles = numberofbottles/ 10;
			  }
			  volumeleft=150-dispensevolumewhole;
    1ea0:	86 e9       	ldi	r24, 0x96	; 150
    1ea2:	90 e0       	ldi	r25, 0x00	; 0
    1ea4:	8c 1b       	sub	r24, r28
    1ea6:	9d 0b       	sbc	r25, r29
			  for (int i = 2; i >= 0; i--)
			  {
				  volume1[i] = volumeleft% 10;
    1ea8:	c4 ef       	ldi	r28, 0xF4	; 244
    1eaa:	d1 e0       	ldi	r29, 0x01	; 1
    1eac:	b9 01       	movw	r22, r18
    1eae:	0e 94 db 2d 	call	0x5bb6	; 0x5bb6 <__divmodhi4>
    1eb2:	9d 83       	std	Y+5, r25	; 0x05
    1eb4:	8c 83       	std	Y+4, r24	; 0x04
    1eb6:	cb 01       	movw	r24, r22
    1eb8:	b9 01       	movw	r22, r18
    1eba:	0e 94 db 2d 	call	0x5bb6	; 0x5bb6 <__divmodhi4>
    1ebe:	9b 83       	std	Y+3, r25	; 0x03
    1ec0:	8a 83       	std	Y+2, r24	; 0x02
    1ec2:	cb 01       	movw	r24, r22
    1ec4:	b9 01       	movw	r22, r18
    1ec6:	0e 94 db 2d 	call	0x5bb6	; 0x5bb6 <__divmodhi4>
    1eca:	99 83       	std	Y+1, r25	; 0x01
    1ecc:	88 83       	st	Y, r24
    1ece:	70 93 d3 02 	sts	0x02D3, r23	; 0x8002d3 <volumeleft+0x1>
    1ed2:	60 93 d2 02 	sts	0x02D2, r22	; 0x8002d2 <volumeleft>
				  volumeleft = volumeleft/ 10;
			  }
			  
			  TX_NEWLINE;
    1ed6:	8d e0       	ldi	r24, 0x0D	; 13
    1ed8:	71 de       	rcall	.-798    	; 0x1bbc <transmitByte>
    1eda:	8a e0       	ldi	r24, 0x0A	; 10
    1edc:	6f de       	rcall	.-802    	; 0x1bbc <transmitByte>
			  transmitString_F(PSTR("NUMBER OF BOTTLES THAT CAN BE FILLED WITH THE SELECTED VOLUME:"));
    1ede:	8a ec       	ldi	r24, 0xCA	; 202
    1ee0:	98 e1       	ldi	r25, 0x18	; 24
    1ee2:	70 de       	rcall	.-800    	; 0x1bc4 <transmitString_F>
			  transmitInt(numberofbottlesarray[0]);
    1ee4:	d8 01       	movw	r26, r16
    1ee6:	8c 91       	ld	r24, X
    1ee8:	8d de       	rcall	.-742    	; 0x1c04 <transmitInt>
			  transmitInt(numberofbottlesarray[1]);
    1eea:	f8 01       	movw	r30, r16
    1eec:	82 81       	ldd	r24, Z+2	; 0x02
    1eee:	8a de       	rcall	.-748    	; 0x1c04 <transmitInt>
			  transmitInt(numberofbottlesarray[2]);
    1ef0:	d8 01       	movw	r26, r16
    1ef2:	14 96       	adiw	r26, 0x04	; 4
    1ef4:	8c 91       	ld	r24, X
    1ef6:	86 de       	rcall	.-756    	; 0x1c04 <transmitInt>
			  transmitString_F(PSTR("bottles"));
    1ef8:	82 ec       	ldi	r24, 0xC2	; 194
    1efa:	98 e1       	ldi	r25, 0x18	; 24
    1efc:	63 de       	rcall	.-826    	; 0x1bc4 <transmitString_F>
			  TX_NEWLINE;
    1efe:	8d e0       	ldi	r24, 0x0D	; 13
    1f00:	5d de       	rcall	.-838    	; 0x1bbc <transmitByte>
    1f02:	8a e0       	ldi	r24, 0x0A	; 10
    1f04:	5b de       	rcall	.-842    	; 0x1bbc <transmitByte>
			  transmitString_F(PSTR("THE VOLUME IN LITRES THAT WILL BE LEFT AFTER DISPENSING IS  :"));
    1f06:	84 e8       	ldi	r24, 0x84	; 132
    1f08:	98 e1       	ldi	r25, 0x18	; 24
    1f0a:	5c de       	rcall	.-840    	; 0x1bc4 <transmitString_F>
			  transmitInt(volume1[0]);
    1f0c:	88 81       	ld	r24, Y
    1f0e:	7a de       	rcall	.-780    	; 0x1c04 <transmitInt>
			  transmitInt(volume1[1]);
    1f10:	8a 81       	ldd	r24, Y+2	; 0x02
    1f12:	78 de       	rcall	.-784    	; 0x1c04 <transmitInt>
			  transmitInt(volume1[2]);
    1f14:	8c 81       	ldd	r24, Y+4	; 0x04
    1f16:	76 de       	rcall	.-788    	; 0x1c04 <transmitInt>
			  transmitString_F(PSTR("litres"));
    1f18:	8d e7       	ldi	r24, 0x7D	; 125
    1f1a:	98 e1       	ldi	r25, 0x18	; 24
    1f1c:	53 de       	rcall	.-858    	; 0x1bc4 <transmitString_F>
			  TX_NEWLINE;
    1f1e:	8d e0       	ldi	r24, 0x0D	; 13
    1f20:	4d de       	rcall	.-870    	; 0x1bbc <transmitByte>
    1f22:	8a e0       	ldi	r24, 0x0A	; 10
    1f24:	4b de       	rcall	.-874    	; 0x1bbc <transmitByte>
			  TX_NEWLINE;
    1f26:	8d e0       	ldi	r24, 0x0D	; 13
    1f28:	49 de       	rcall	.-878    	; 0x1bbc <transmitByte>
    1f2a:	8a e0       	ldi	r24, 0x0A	; 10
    1f2c:	47 de       	rcall	.-882    	; 0x1bbc <transmitByte>
			  transmitString_F(PSTR("PLANT CONFIGURATION COMPLETE PRESS BUTTON ON THE PLANT TO DISPENSE IN BOTTLES :"));
    1f2e:	8d e2       	ldi	r24, 0x2D	; 45
    1f30:	98 e1       	ldi	r25, 0x18	; 24
    1f32:	48 de       	rcall	.-880    	; 0x1bc4 <transmitString_F>
			  TX_NEWLINE;
    1f34:	8d e0       	ldi	r24, 0x0D	; 13
    1f36:	42 de       	rcall	.-892    	; 0x1bbc <transmitByte>
    1f38:	8a e0       	ldi	r24, 0x0A	; 10
    1f3a:	40 de       	rcall	.-896    	; 0x1bbc <transmitByte>
			  transmitString_F(PSTR("PRESS ENTER TO CHECK MENU.."));
    1f3c:	81 e1       	ldi	r24, 0x11	; 17
    1f3e:	98 e1       	ldi	r25, 0x18	; 24
    1f40:	41 de       	rcall	.-894    	; 0x1bc4 <transmitString_F>
    1f42:	c1 c3       	rjmp	.+1922   	; 0x26c6 <bottle_sizes+0xaa6>
		  }
		  else if(choicearray[0]==1){
    1f44:	01 97       	sbiw	r24, 0x01	; 1
    1f46:	09 f0       	breq	.+2      	; 0x1f4a <bottle_sizes+0x32a>
    1f48:	24 c1       	rjmp	.+584    	; 0x2192 <bottle_sizes+0x572>
			  transmitString_F(PSTR("Enter the number of bottles you want to fill:"));//this should be out of 50
    1f4a:	83 ee       	ldi	r24, 0xE3	; 227
    1f4c:	97 e1       	ldi	r25, 0x17	; 23
    1f4e:	3a de       	rcall	.-908    	; 0x1bc4 <transmitString_F>
			  TX_NEWLINE;
    1f50:	8d e0       	ldi	r24, 0x0D	; 13
    1f52:	34 de       	rcall	.-920    	; 0x1bbc <transmitByte>
    1f54:	8a e0       	ldi	r24, 0x0A	; 10
    1f56:	32 de       	rcall	.-924    	; 0x1bbc <transmitByte>
			  data= receiveByte(); transmitByte(data);
    1f58:	2d de       	rcall	.-934    	; 0x1bb4 <receiveByte>
    1f5a:	80 93 af 02 	sts	0x02AF, r24	; 0x8002af <data>
    1f5e:	2e de       	rcall	.-932    	; 0x1bbc <transmitByte>
			  numberofbottlesarr[0] = (data & 0x0f); //
    1f60:	ca ef       	ldi	r28, 0xFA	; 250
    1f62:	d1 e0       	ldi	r29, 0x01	; 1
    1f64:	80 91 af 02 	lds	r24, 0x02AF	; 0x8002af <data>
    1f68:	8f 70       	andi	r24, 0x0F	; 15
    1f6a:	90 e0       	ldi	r25, 0x00	; 0
    1f6c:	99 83       	std	Y+1, r25	; 0x01
    1f6e:	88 83       	st	Y, r24
			  data= receiveByte(); transmitByte(data);
    1f70:	21 de       	rcall	.-958    	; 0x1bb4 <receiveByte>
    1f72:	80 93 af 02 	sts	0x02AF, r24	; 0x8002af <data>
    1f76:	22 de       	rcall	.-956    	; 0x1bbc <transmitByte>
			  numberofbottlesarr[1] = (data & 0x0f);
    1f78:	80 91 af 02 	lds	r24, 0x02AF	; 0x8002af <data>
    1f7c:	8f 70       	andi	r24, 0x0F	; 15
    1f7e:	90 e0       	ldi	r25, 0x00	; 0
    1f80:	9b 83       	std	Y+3, r25	; 0x03
    1f82:	8a 83       	std	Y+2, r24	; 0x02
			  data= receiveByte(); transmitByte(data);
    1f84:	17 de       	rcall	.-978    	; 0x1bb4 <receiveByte>
    1f86:	80 93 af 02 	sts	0x02AF, r24	; 0x8002af <data>
    1f8a:	18 de       	rcall	.-976    	; 0x1bbc <transmitByte>
			  numberofbottlesarr[2] = (data & 0x0f);
    1f8c:	40 91 af 02 	lds	r20, 0x02AF	; 0x8002af <data>
    1f90:	4f 70       	andi	r20, 0x0F	; 15
    1f92:	50 e0       	ldi	r21, 0x00	; 0
    1f94:	5d 83       	std	Y+5, r21	; 0x05
    1f96:	4c 83       	std	Y+4, r20	; 0x04
			  for (int i=0;i<3;i++)
			  {
				  numberofbottlesarrwhole=10*numberofbottlesarrwhole+numberofbottlesarr[i];
    1f98:	60 91 d0 02 	lds	r22, 0x02D0	; 0x8002d0 <numberofbottlesarrwhole>
    1f9c:	70 91 d1 02 	lds	r23, 0x02D1	; 0x8002d1 <numberofbottlesarrwhole+0x1>
    1fa0:	9b 01       	movw	r18, r22
    1fa2:	22 0f       	add	r18, r18
    1fa4:	33 1f       	adc	r19, r19
    1fa6:	66 0f       	add	r22, r22
    1fa8:	77 1f       	adc	r23, r23
    1faa:	66 0f       	add	r22, r22
    1fac:	77 1f       	adc	r23, r23
    1fae:	66 0f       	add	r22, r22
    1fb0:	77 1f       	adc	r23, r23
    1fb2:	26 0f       	add	r18, r22
    1fb4:	37 1f       	adc	r19, r23
    1fb6:	88 81       	ld	r24, Y
    1fb8:	99 81       	ldd	r25, Y+1	; 0x01
    1fba:	28 0f       	add	r18, r24
    1fbc:	39 1f       	adc	r19, r25
    1fbe:	c9 01       	movw	r24, r18
    1fc0:	88 0f       	add	r24, r24
    1fc2:	99 1f       	adc	r25, r25
    1fc4:	22 0f       	add	r18, r18
    1fc6:	33 1f       	adc	r19, r19
    1fc8:	22 0f       	add	r18, r18
    1fca:	33 1f       	adc	r19, r19
    1fcc:	22 0f       	add	r18, r18
    1fce:	33 1f       	adc	r19, r19
    1fd0:	82 0f       	add	r24, r18
    1fd2:	93 1f       	adc	r25, r19
    1fd4:	2a 81       	ldd	r18, Y+2	; 0x02
    1fd6:	3b 81       	ldd	r19, Y+3	; 0x03
    1fd8:	82 0f       	add	r24, r18
    1fda:	93 1f       	adc	r25, r19
    1fdc:	ec 01       	movw	r28, r24
    1fde:	cc 0f       	add	r28, r28
    1fe0:	dd 1f       	adc	r29, r29
    1fe2:	88 0f       	add	r24, r24
    1fe4:	99 1f       	adc	r25, r25
    1fe6:	88 0f       	add	r24, r24
    1fe8:	99 1f       	adc	r25, r25
    1fea:	88 0f       	add	r24, r24
    1fec:	99 1f       	adc	r25, r25
    1fee:	8c 0f       	add	r24, r28
    1ff0:	9d 1f       	adc	r25, r29
    1ff2:	ea 01       	movw	r28, r20
    1ff4:	c8 0f       	add	r28, r24
    1ff6:	d9 1f       	adc	r29, r25
    1ff8:	d0 93 d1 02 	sts	0x02D1, r29	; 0x8002d1 <numberofbottlesarrwhole+0x1>
    1ffc:	c0 93 d0 02 	sts	0x02D0, r28	; 0x8002d0 <numberofbottlesarrwhole>
			  }
			  numberofbottles1=numberofbottlesarrwhole;
    2000:	d0 93 b9 02 	sts	0x02B9, r29	; 0x8002b9 <numberofbottles1+0x1>
    2004:	c0 93 b8 02 	sts	0x02B8, r28	; 0x8002b8 <numberofbottles1>
			  
			  if(numberofbottlesarrwhole>500){
    2008:	c5 3f       	cpi	r28, 0xF5	; 245
    200a:	b1 e0       	ldi	r27, 0x01	; 1
    200c:	db 07       	cpc	r29, r27
    200e:	0c f4       	brge	.+2      	; 0x2012 <bottle_sizes+0x3f2>
    2010:	3a c0       	rjmp	.+116    	; 0x2086 <bottle_sizes+0x466>
				  dispensedvolume=500*selectedvolume;
    2012:	20 e0       	ldi	r18, 0x00	; 0
    2014:	30 e0       	ldi	r19, 0x00	; 0
    2016:	4a ef       	ldi	r20, 0xFA	; 250
    2018:	53 e4       	ldi	r21, 0x43	; 67
    201a:	60 91 86 02 	lds	r22, 0x0286	; 0x800286 <selectedvolume>
    201e:	70 91 87 02 	lds	r23, 0x0287	; 0x800287 <selectedvolume+0x1>
    2022:	80 91 88 02 	lds	r24, 0x0288	; 0x800288 <selectedvolume+0x2>
    2026:	90 91 89 02 	lds	r25, 0x0289	; 0x800289 <selectedvolume+0x3>
    202a:	0e 94 78 2d 	call	0x5af0	; 0x5af0 <__mulsf3>
    202e:	0e 94 b9 2c 	call	0x5972	; 0x5972 <__fixsfsi>
    2032:	70 93 9d 02 	sts	0x029D, r23	; 0x80029d <dispensedvolume+0x1>
    2036:	60 93 9c 02 	sts	0x029C, r22	; 0x80029c <dispensedvolume>
				  numberofbottles=500;
				  for (int i = 2; i >= 0; i--)
				  {
					  numberofbottlesarray[i] = numberofbottles% 10;
    203a:	c0 e0       	ldi	r28, 0x00	; 0
    203c:	d2 e0       	ldi	r29, 0x02	; 2
    203e:	1d 82       	std	Y+5, r1	; 0x05
    2040:	1c 82       	std	Y+4, r1	; 0x04
    2042:	1b 82       	std	Y+3, r1	; 0x03
    2044:	1a 82       	std	Y+2, r1	; 0x02
    2046:	85 e0       	ldi	r24, 0x05	; 5
    2048:	90 e0       	ldi	r25, 0x00	; 0
    204a:	99 83       	std	Y+1, r25	; 0x01
    204c:	88 83       	st	Y, r24
    204e:	10 92 bb 02 	sts	0x02BB, r1	; 0x8002bb <numberofbottles+0x1>
    2052:	10 92 ba 02 	sts	0x02BA, r1	; 0x8002ba <numberofbottles>
					  numberofbottles = numberofbottles/ 10;
				  }
				  
				  TX_NEWLINE;
    2056:	8d e0       	ldi	r24, 0x0D	; 13
    2058:	b1 dd       	rcall	.-1182   	; 0x1bbc <transmitByte>
    205a:	8a e0       	ldi	r24, 0x0A	; 10
    205c:	af dd       	rcall	.-1186   	; 0x1bbc <transmitByte>
				  transmitString_F(PSTR("SORRY THE BOTTLES YOU HAVE INPUT ARENT ENOUGH"));
    205e:	85 eb       	ldi	r24, 0xB5	; 181
    2060:	97 e1       	ldi	r25, 0x17	; 23
    2062:	b0 dd       	rcall	.-1184   	; 0x1bc4 <transmitString_F>
				  TX_NEWLINE;
    2064:	8d e0       	ldi	r24, 0x0D	; 13
    2066:	aa dd       	rcall	.-1196   	; 0x1bbc <transmitByte>
    2068:	8a e0       	ldi	r24, 0x0A	; 10
    206a:	a8 dd       	rcall	.-1200   	; 0x1bbc <transmitByte>
				  transmitString_F(PSTR("BOTTLES THAT CAN BE FILLED WITH THE AVAILABLE DRINK:"));
    206c:	80 e8       	ldi	r24, 0x80	; 128
    206e:	97 e1       	ldi	r25, 0x17	; 23
    2070:	a9 dd       	rcall	.-1198   	; 0x1bc4 <transmitString_F>
				  transmitInt(numberofbottlesarray[0]);
    2072:	88 81       	ld	r24, Y
    2074:	c7 dd       	rcall	.-1138   	; 0x1c04 <transmitInt>
				  transmitInt(numberofbottlesarray[1]);
    2076:	8a 81       	ldd	r24, Y+2	; 0x02
    2078:	c5 dd       	rcall	.-1142   	; 0x1c04 <transmitInt>
				  transmitInt(numberofbottlesarray[2]);
    207a:	8c 81       	ldd	r24, Y+4	; 0x04
    207c:	c3 dd       	rcall	.-1146   	; 0x1c04 <transmitInt>
				  transmitString_F(PSTR("bottles"));
    207e:	88 e7       	ldi	r24, 0x78	; 120
    2080:	97 e1       	ldi	r25, 0x17	; 23
    2082:	a0 dd       	rcall	.-1216   	; 0x1bc4 <transmitString_F>
				  break;
    2084:	20 c3       	rjmp	.+1600   	; 0x26c6 <bottle_sizes+0xaa6>
				  TX_NEWLINE;
				  } else if(numberofbottlesarrwhole<=500){
				  dispensedvolume=numberofbottlesarrwhole*selectedvolume;
    2086:	be 01       	movw	r22, r28
    2088:	0d 2e       	mov	r0, r29
    208a:	00 0c       	add	r0, r0
    208c:	88 0b       	sbc	r24, r24
    208e:	99 0b       	sbc	r25, r25
    2090:	0e 94 ec 2c 	call	0x59d8	; 0x59d8 <__floatsisf>
    2094:	20 91 86 02 	lds	r18, 0x0286	; 0x800286 <selectedvolume>
    2098:	30 91 87 02 	lds	r19, 0x0287	; 0x800287 <selectedvolume+0x1>
    209c:	40 91 88 02 	lds	r20, 0x0288	; 0x800288 <selectedvolume+0x2>
    20a0:	50 91 89 02 	lds	r21, 0x0289	; 0x800289 <selectedvolume+0x3>
    20a4:	0e 94 78 2d 	call	0x5af0	; 0x5af0 <__mulsf3>
    20a8:	0e 94 b9 2c 	call	0x5972	; 0x5972 <__fixsfsi>
    20ac:	6b 01       	movw	r12, r22
    20ae:	7c 01       	movw	r14, r24
				  numberofbottlesarrwhole1=numberofbottlesarrwhole;
    20b0:	d0 93 83 02 	sts	0x0283, r29	; 0x800283 <numberofbottlesarrwhole1+0x1>
    20b4:	c0 93 82 02 	sts	0x0282, r28	; 0x800282 <numberofbottlesarrwhole1>
			  }
			  
			  
			  dispensedvolume1=dispensedvolume;
    20b8:	70 93 a4 02 	sts	0x02A4, r23	; 0x8002a4 <dispensedvolume1+0x1>
    20bc:	60 93 a3 02 	sts	0x02A3, r22	; 0x8002a3 <dispensedvolume1>
			  for (int i = 2; i >= 0; i--)
			  {
				  volume[i] = dispensedvolume% 10;
    20c0:	06 e0       	ldi	r16, 0x06	; 6
    20c2:	12 e0       	ldi	r17, 0x02	; 2
    20c4:	2a e0       	ldi	r18, 0x0A	; 10
    20c6:	30 e0       	ldi	r19, 0x00	; 0
    20c8:	cb 01       	movw	r24, r22
    20ca:	b9 01       	movw	r22, r18
    20cc:	0e 94 db 2d 	call	0x5bb6	; 0x5bb6 <__divmodhi4>
    20d0:	f8 01       	movw	r30, r16
    20d2:	95 83       	std	Z+5, r25	; 0x05
    20d4:	84 83       	std	Z+4, r24	; 0x04
    20d6:	cb 01       	movw	r24, r22
    20d8:	b9 01       	movw	r22, r18
    20da:	0e 94 db 2d 	call	0x5bb6	; 0x5bb6 <__divmodhi4>
    20de:	93 83       	std	Z+3, r25	; 0x03
    20e0:	82 83       	std	Z+2, r24	; 0x02
    20e2:	cb 01       	movw	r24, r22
    20e4:	b9 01       	movw	r22, r18
    20e6:	0e 94 db 2d 	call	0x5bb6	; 0x5bb6 <__divmodhi4>
    20ea:	91 83       	std	Z+1, r25	; 0x01
    20ec:	80 83       	st	Z, r24
    20ee:	70 93 9d 02 	sts	0x029D, r23	; 0x80029d <dispensedvolume+0x1>
    20f2:	60 93 9c 02 	sts	0x029C, r22	; 0x80029c <dispensedvolume>
				  dispensedvolume = dispensedvolume/ 10;
			  }
			  
			  ///////////////////////////////////////////////////////////////////
			  
			  volumeleft=150-dispensedvolume1;
    20f6:	86 e9       	ldi	r24, 0x96	; 150
    20f8:	90 e0       	ldi	r25, 0x00	; 0
    20fa:	8c 19       	sub	r24, r12
    20fc:	9d 09       	sbc	r25, r13
			  for (int i = 2; i >= 0; i--)
			  {
				  volume1[i] = volumeleft% 10;
    20fe:	c4 ef       	ldi	r28, 0xF4	; 244
    2100:	d1 e0       	ldi	r29, 0x01	; 1
    2102:	b9 01       	movw	r22, r18
    2104:	0e 94 db 2d 	call	0x5bb6	; 0x5bb6 <__divmodhi4>
    2108:	9d 83       	std	Y+5, r25	; 0x05
    210a:	8c 83       	std	Y+4, r24	; 0x04
    210c:	cb 01       	movw	r24, r22
    210e:	b9 01       	movw	r22, r18
    2110:	0e 94 db 2d 	call	0x5bb6	; 0x5bb6 <__divmodhi4>
    2114:	9b 83       	std	Y+3, r25	; 0x03
    2116:	8a 83       	std	Y+2, r24	; 0x02
    2118:	cb 01       	movw	r24, r22
    211a:	b9 01       	movw	r22, r18
    211c:	0e 94 db 2d 	call	0x5bb6	; 0x5bb6 <__divmodhi4>
    2120:	99 83       	std	Y+1, r25	; 0x01
    2122:	88 83       	st	Y, r24
    2124:	70 93 d3 02 	sts	0x02D3, r23	; 0x8002d3 <volumeleft+0x1>
    2128:	60 93 d2 02 	sts	0x02D2, r22	; 0x8002d2 <volumeleft>
				  volumeleft = volumeleft/ 10;
			  }
			  
			  TX_NEWLINE;
    212c:	8d e0       	ldi	r24, 0x0D	; 13
    212e:	46 dd       	rcall	.-1396   	; 0x1bbc <transmitByte>
    2130:	8a e0       	ldi	r24, 0x0A	; 10
    2132:	44 dd       	rcall	.-1400   	; 0x1bbc <transmitByte>
			  transmitString_F(PSTR(" VOLUME OF BOTTLES INPUT IS:"));
    2134:	8b e5       	ldi	r24, 0x5B	; 91
    2136:	97 e1       	ldi	r25, 0x17	; 23
    2138:	45 dd       	rcall	.-1398   	; 0x1bc4 <transmitString_F>
			  transmitInt(volume[0]);
    213a:	d8 01       	movw	r26, r16
    213c:	8c 91       	ld	r24, X
    213e:	62 dd       	rcall	.-1340   	; 0x1c04 <transmitInt>
			  transmitInt(volume[1]);
    2140:	f8 01       	movw	r30, r16
    2142:	82 81       	ldd	r24, Z+2	; 0x02
    2144:	5f dd       	rcall	.-1346   	; 0x1c04 <transmitInt>
			  transmitInt(volume[2]);
    2146:	d8 01       	movw	r26, r16
    2148:	14 96       	adiw	r26, 0x04	; 4
    214a:	8c 91       	ld	r24, X
    214c:	5b dd       	rcall	.-1354   	; 0x1c04 <transmitInt>
			  transmitString_F(PSTR("litres"));
    214e:	84 e5       	ldi	r24, 0x54	; 84
    2150:	97 e1       	ldi	r25, 0x17	; 23
    2152:	38 dd       	rcall	.-1424   	; 0x1bc4 <transmitString_F>
			  TX_NEWLINE;
    2154:	8d e0       	ldi	r24, 0x0D	; 13
    2156:	32 dd       	rcall	.-1436   	; 0x1bbc <transmitByte>
    2158:	8a e0       	ldi	r24, 0x0A	; 10
    215a:	30 dd       	rcall	.-1440   	; 0x1bbc <transmitByte>
			  transmitString_F(PSTR("THE VOLUME THAT WILL BE LEFT:"));
    215c:	86 e3       	ldi	r24, 0x36	; 54
    215e:	97 e1       	ldi	r25, 0x17	; 23
    2160:	31 dd       	rcall	.-1438   	; 0x1bc4 <transmitString_F>
			  transmitInt(volume1[0]);
    2162:	88 81       	ld	r24, Y
    2164:	4f dd       	rcall	.-1378   	; 0x1c04 <transmitInt>
			  transmitInt(volume1[1]);
    2166:	8a 81       	ldd	r24, Y+2	; 0x02
    2168:	4d dd       	rcall	.-1382   	; 0x1c04 <transmitInt>
			  transmitInt(volume1[2]);
    216a:	8c 81       	ldd	r24, Y+4	; 0x04
    216c:	4b dd       	rcall	.-1386   	; 0x1c04 <transmitInt>
			  transmitString_F(PSTR("litres"));
    216e:	8f e2       	ldi	r24, 0x2F	; 47
    2170:	97 e1       	ldi	r25, 0x17	; 23
    2172:	28 dd       	rcall	.-1456   	; 0x1bc4 <transmitString_F>
			  TX_NEWLINE;
    2174:	8d e0       	ldi	r24, 0x0D	; 13
    2176:	22 dd       	rcall	.-1468   	; 0x1bbc <transmitByte>
    2178:	8a e0       	ldi	r24, 0x0A	; 10
    217a:	20 dd       	rcall	.-1472   	; 0x1bbc <transmitByte>
			  transmitString_F(PSTR("PLANT CONFIGURATION COMPLETE PRESS BUTTON ON THE PLANT TO DISPENSE IN BOTTLES :"));
    217c:	8f ed       	ldi	r24, 0xDF	; 223
    217e:	96 e1       	ldi	r25, 0x16	; 22
    2180:	21 dd       	rcall	.-1470   	; 0x1bc4 <transmitString_F>
			  TX_NEWLINE;
    2182:	8d e0       	ldi	r24, 0x0D	; 13
    2184:	1b dd       	rcall	.-1482   	; 0x1bbc <transmitByte>
    2186:	8a e0       	ldi	r24, 0x0A	; 10
    2188:	19 dd       	rcall	.-1486   	; 0x1bbc <transmitByte>
			  transmitString_F(PSTR("PRESS ENTER TO CHECK MENU.."));
    218a:	83 ec       	ldi	r24, 0xC3	; 195
    218c:	96 e1       	ldi	r25, 0x16	; 22
    218e:	1a dd       	rcall	.-1484   	; 0x1bc4 <transmitString_F>
    2190:	9a c2       	rjmp	.+1332   	; 0x26c6 <bottle_sizes+0xaa6>
			  
			  /////////////////////////////////////////////////////////////////////
		  }
		  else if(choicearray[0]!=(1|0)){
			  transmitString_F(PSTR("invalid input"));
    2192:	85 eb       	ldi	r24, 0xB5	; 181
    2194:	96 e1       	ldi	r25, 0x16	; 22
    2196:	16 dd       	rcall	.-1492   	; 0x1bc4 <transmitString_F>
			  transmitString_F(PSTR("press enter to continue go back to menu.."));
    2198:	8b e8       	ldi	r24, 0x8B	; 139
    219a:	96 e1       	ldi	r25, 0x16	; 22
    219c:	13 dd       	rcall	.-1498   	; 0x1bc4 <transmitString_F>
    219e:	93 c2       	rjmp	.+1318   	; 0x26c6 <bottle_sizes+0xaa6>
		  }
		  
		  break;
		  
		  case '2':TX_NEWLINE;
    21a0:	8d e0       	ldi	r24, 0x0D	; 13
    21a2:	0c dd       	rcall	.-1512   	; 0x1bbc <transmitByte>
    21a4:	8a e0       	ldi	r24, 0x0A	; 10
    21a6:	0a dd       	rcall	.-1516   	; 0x1bbc <transmitByte>
		  selectedvolume=0.5;
    21a8:	80 e0       	ldi	r24, 0x00	; 0
    21aa:	90 e0       	ldi	r25, 0x00	; 0
    21ac:	a0 e0       	ldi	r26, 0x00	; 0
    21ae:	bf e3       	ldi	r27, 0x3F	; 63
    21b0:	80 93 86 02 	sts	0x0286, r24	; 0x800286 <selectedvolume>
    21b4:	90 93 87 02 	sts	0x0287, r25	; 0x800287 <selectedvolume+0x1>
    21b8:	a0 93 88 02 	sts	0x0288, r26	; 0x800288 <selectedvolume+0x2>
    21bc:	b0 93 89 02 	sts	0x0289, r27	; 0x800289 <selectedvolume+0x3>
		  transmitString_F(PSTR("The machine will be dispensing 500ml bottles."));
    21c0:	8d e5       	ldi	r24, 0x5D	; 93
    21c2:	96 e1       	ldi	r25, 0x16	; 22
    21c4:	ff dc       	rcall	.-1538   	; 0x1bc4 <transmitString_F>
		  TX_NEWLINE;
    21c6:	8d e0       	ldi	r24, 0x0D	; 13
    21c8:	f9 dc       	rcall	.-1550   	; 0x1bbc <transmitByte>
    21ca:	8a e0       	ldi	r24, 0x0A	; 10
    21cc:	f7 dc       	rcall	.-1554   	; 0x1bbc <transmitByte>
		  transmitString_F(PSTR("Choose 0 to enter the volume to dispense"));
    21ce:	84 e3       	ldi	r24, 0x34	; 52
    21d0:	96 e1       	ldi	r25, 0x16	; 22
    21d2:	f8 dc       	rcall	.-1552   	; 0x1bc4 <transmitString_F>
		  TX_NEWLINE;
    21d4:	8d e0       	ldi	r24, 0x0D	; 13
    21d6:	f2 dc       	rcall	.-1564   	; 0x1bbc <transmitByte>
    21d8:	8a e0       	ldi	r24, 0x0A	; 10
    21da:	f0 dc       	rcall	.-1568   	; 0x1bbc <transmitByte>
		  transmitString_F(PSTR("Choose 1 to enter the number of bottles to fill"));
    21dc:	84 e0       	ldi	r24, 0x04	; 4
    21de:	96 e1       	ldi	r25, 0x16	; 22
    21e0:	f1 dc       	rcall	.-1566   	; 0x1bc4 <transmitString_F>
		  TX_NEWLINE;
    21e2:	8d e0       	ldi	r24, 0x0D	; 13
    21e4:	eb dc       	rcall	.-1578   	; 0x1bbc <transmitByte>
    21e6:	8a e0       	ldi	r24, 0x0A	; 10
    21e8:	e9 dc       	rcall	.-1582   	; 0x1bbc <transmitByte>
		  transmitByte(' ');
    21ea:	80 e2       	ldi	r24, 0x20	; 32
    21ec:	e7 dc       	rcall	.-1586   	; 0x1bbc <transmitByte>
		  data= receiveByte(); transmitByte(data);
    21ee:	e2 dc       	rcall	.-1596   	; 0x1bb4 <receiveByte>
    21f0:	80 93 af 02 	sts	0x02AF, r24	; 0x8002af <data>
    21f4:	e3 dc       	rcall	.-1594   	; 0x1bbc <transmitByte>
		  TX_NEWLINE;
    21f6:	8d e0       	ldi	r24, 0x0D	; 13
    21f8:	e1 dc       	rcall	.-1598   	; 0x1bbc <transmitByte>
    21fa:	8a e0       	ldi	r24, 0x0A	; 10
    21fc:	df dc       	rcall	.-1602   	; 0x1bbc <transmitByte>
		  choicearray[0] = (data & 0x0f); //
    21fe:	80 91 af 02 	lds	r24, 0x02AF	; 0x8002af <data>
    2202:	8f 70       	andi	r24, 0x0F	; 15
    2204:	90 e0       	ldi	r25, 0x00	; 0
    2206:	90 93 0d 02 	sts	0x020D, r25	; 0x80020d <choicearray+0x1>
    220a:	80 93 0c 02 	sts	0x020C, r24	; 0x80020c <choicearray>
		  TX_NEWLINE;
    220e:	8d e0       	ldi	r24, 0x0D	; 13
    2210:	d5 dc       	rcall	.-1622   	; 0x1bbc <transmitByte>
    2212:	8a e0       	ldi	r24, 0x0A	; 10
    2214:	d3 dc       	rcall	.-1626   	; 0x1bbc <transmitByte>
		  transmitString_F(PSTR("your choice is "));
    2216:	84 ef       	ldi	r24, 0xF4	; 244
    2218:	95 e1       	ldi	r25, 0x15	; 21
    221a:	d4 dc       	rcall	.-1624   	; 0x1bc4 <transmitString_F>
		  transmitInt(choicearray[0]);
    221c:	80 91 0c 02 	lds	r24, 0x020C	; 0x80020c <choicearray>
    2220:	f1 dc       	rcall	.-1566   	; 0x1c04 <transmitInt>
		  TX_NEWLINE;
    2222:	8d e0       	ldi	r24, 0x0D	; 13
    2224:	cb dc       	rcall	.-1642   	; 0x1bbc <transmitByte>
    2226:	8a e0       	ldi	r24, 0x0A	; 10
    2228:	c9 dc       	rcall	.-1646   	; 0x1bbc <transmitByte>
		  if ((choicearray[0])==0)
    222a:	80 91 0c 02 	lds	r24, 0x020C	; 0x80020c <choicearray>
    222e:	90 91 0d 02 	lds	r25, 0x020D	; 0x80020d <choicearray+0x1>
    2232:	00 97       	sbiw	r24, 0x00	; 0
    2234:	09 f0       	breq	.+2      	; 0x2238 <bottle_sizes+0x618>
    2236:	e7 c0       	rjmp	.+462    	; 0x2406 <bottle_sizes+0x7e6>
		  {
			  transmitString_F(PSTR("Enter the volume you want to dispense in litres... max=150"));//this should be out of 50
    2238:	89 eb       	ldi	r24, 0xB9	; 185
    223a:	95 e1       	ldi	r25, 0x15	; 21
    223c:	c3 dc       	rcall	.-1658   	; 0x1bc4 <transmitString_F>
			  TX_NEWLINE;
    223e:	8d e0       	ldi	r24, 0x0D	; 13
    2240:	bd dc       	rcall	.-1670   	; 0x1bbc <transmitByte>
    2242:	8a e0       	ldi	r24, 0x0A	; 10
    2244:	bb dc       	rcall	.-1674   	; 0x1bbc <transmitByte>
			  transmitByte(' ');
    2246:	80 e2       	ldi	r24, 0x20	; 32
    2248:	b9 dc       	rcall	.-1678   	; 0x1bbc <transmitByte>
			  data= receiveByte(); transmitByte(data);
    224a:	b4 dc       	rcall	.-1688   	; 0x1bb4 <receiveByte>
    224c:	80 93 af 02 	sts	0x02AF, r24	; 0x8002af <data>
    2250:	b5 dc       	rcall	.-1686   	; 0x1bbc <transmitByte>
			  dispensevolume[0] = (data & 0x0f); //
    2252:	ce e0       	ldi	r28, 0x0E	; 14
    2254:	d2 e0       	ldi	r29, 0x02	; 2
    2256:	80 91 af 02 	lds	r24, 0x02AF	; 0x8002af <data>
    225a:	8f 70       	andi	r24, 0x0F	; 15
    225c:	90 e0       	ldi	r25, 0x00	; 0
    225e:	99 83       	std	Y+1, r25	; 0x01
    2260:	88 83       	st	Y, r24
			  
			  transmitByte(' ');
    2262:	80 e2       	ldi	r24, 0x20	; 32
    2264:	ab dc       	rcall	.-1706   	; 0x1bbc <transmitByte>
			  data = receiveByte(); transmitByte(data);
    2266:	a6 dc       	rcall	.-1716   	; 0x1bb4 <receiveByte>
    2268:	80 93 af 02 	sts	0x02AF, r24	; 0x8002af <data>
    226c:	a7 dc       	rcall	.-1714   	; 0x1bbc <transmitByte>
			  
			  dispensevolume[1] = (data & 0x0f);
    226e:	80 91 af 02 	lds	r24, 0x02AF	; 0x8002af <data>
    2272:	8f 70       	andi	r24, 0x0F	; 15
    2274:	90 e0       	ldi	r25, 0x00	; 0
    2276:	9b 83       	std	Y+3, r25	; 0x03
    2278:	8a 83       	std	Y+2, r24	; 0x02
			  transmitByte(' ');
    227a:	80 e2       	ldi	r24, 0x20	; 32
    227c:	9f dc       	rcall	.-1730   	; 0x1bbc <transmitByte>
			  data = receiveByte(); transmitByte(data);
    227e:	9a dc       	rcall	.-1740   	; 0x1bb4 <receiveByte>
    2280:	80 93 af 02 	sts	0x02AF, r24	; 0x8002af <data>
    2284:	9b dc       	rcall	.-1738   	; 0x1bbc <transmitByte>
			  dispensevolume[2] = (data & 0x0f);
    2286:	80 91 af 02 	lds	r24, 0x02AF	; 0x8002af <data>
    228a:	8f 70       	andi	r24, 0x0F	; 15
    228c:	90 e0       	ldi	r25, 0x00	; 0
    228e:	9d 83       	std	Y+5, r25	; 0x05
    2290:	8c 83       	std	Y+4, r24	; 0x04
			  TX_NEWLINE;
    2292:	8d e0       	ldi	r24, 0x0D	; 13
    2294:	93 dc       	rcall	.-1754   	; 0x1bbc <transmitByte>
    2296:	8a e0       	ldi	r24, 0x0A	; 10
    2298:	91 dc       	rcall	.-1758   	; 0x1bbc <transmitByte>
			  for (int i=0;i<3;i++)
			  {
				  dispensevolumewhole=10*dispensevolumewhole+dispensevolume[i];
    229a:	40 91 a9 02 	lds	r20, 0x02A9	; 0x8002a9 <dispensevolumewhole>
    229e:	50 91 aa 02 	lds	r21, 0x02AA	; 0x8002aa <dispensevolumewhole+0x1>
    22a2:	9a 01       	movw	r18, r20
    22a4:	22 0f       	add	r18, r18
    22a6:	33 1f       	adc	r19, r19
    22a8:	44 0f       	add	r20, r20
    22aa:	55 1f       	adc	r21, r21
    22ac:	44 0f       	add	r20, r20
    22ae:	55 1f       	adc	r21, r21
    22b0:	44 0f       	add	r20, r20
    22b2:	55 1f       	adc	r21, r21
    22b4:	24 0f       	add	r18, r20
    22b6:	35 1f       	adc	r19, r21
    22b8:	88 81       	ld	r24, Y
    22ba:	99 81       	ldd	r25, Y+1	; 0x01
    22bc:	28 0f       	add	r18, r24
    22be:	39 1f       	adc	r19, r25
    22c0:	c9 01       	movw	r24, r18
    22c2:	88 0f       	add	r24, r24
    22c4:	99 1f       	adc	r25, r25
    22c6:	22 0f       	add	r18, r18
    22c8:	33 1f       	adc	r19, r19
    22ca:	22 0f       	add	r18, r18
    22cc:	33 1f       	adc	r19, r19
    22ce:	22 0f       	add	r18, r18
    22d0:	33 1f       	adc	r19, r19
    22d2:	82 0f       	add	r24, r18
    22d4:	93 1f       	adc	r25, r19
    22d6:	2a 81       	ldd	r18, Y+2	; 0x02
    22d8:	3b 81       	ldd	r19, Y+3	; 0x03
    22da:	82 0f       	add	r24, r18
    22dc:	93 1f       	adc	r25, r19
    22de:	9c 01       	movw	r18, r24
    22e0:	22 0f       	add	r18, r18
    22e2:	33 1f       	adc	r19, r19
    22e4:	88 0f       	add	r24, r24
    22e6:	99 1f       	adc	r25, r25
    22e8:	88 0f       	add	r24, r24
    22ea:	99 1f       	adc	r25, r25
    22ec:	88 0f       	add	r24, r24
    22ee:	99 1f       	adc	r25, r25
    22f0:	82 0f       	add	r24, r18
    22f2:	93 1f       	adc	r25, r19
    22f4:	0c 80       	ldd	r0, Y+4	; 0x04
    22f6:	dd 81       	ldd	r29, Y+5	; 0x05
    22f8:	c0 2d       	mov	r28, r0
    22fa:	c8 0f       	add	r28, r24
    22fc:	d9 1f       	adc	r29, r25
    22fe:	d0 93 aa 02 	sts	0x02AA, r29	; 0x8002aa <dispensevolumewhole+0x1>
    2302:	c0 93 a9 02 	sts	0x02A9, r28	; 0x8002a9 <dispensevolumewhole>
			  }
			  numberofbottles=dispensevolumewhole/selectedvolume;
    2306:	be 01       	movw	r22, r28
    2308:	0d 2e       	mov	r0, r29
    230a:	00 0c       	add	r0, r0
    230c:	88 0b       	sbc	r24, r24
    230e:	99 0b       	sbc	r25, r25
    2310:	0e 94 ec 2c 	call	0x59d8	; 0x59d8 <__floatsisf>
    2314:	20 91 86 02 	lds	r18, 0x0286	; 0x800286 <selectedvolume>
    2318:	30 91 87 02 	lds	r19, 0x0287	; 0x800287 <selectedvolume+0x1>
    231c:	40 91 88 02 	lds	r20, 0x0288	; 0x800288 <selectedvolume+0x2>
    2320:	50 91 89 02 	lds	r21, 0x0289	; 0x800289 <selectedvolume+0x3>
    2324:	0e 94 51 2c 	call	0x58a2	; 0x58a2 <__divsf3>
    2328:	0e 94 b9 2c 	call	0x5972	; 0x5972 <__fixsfsi>
			  numberofbottles1=numberofbottles;
    232c:	70 93 b9 02 	sts	0x02B9, r23	; 0x8002b9 <numberofbottles1+0x1>
    2330:	60 93 b8 02 	sts	0x02B8, r22	; 0x8002b8 <numberofbottles1>
			  
			  for (int i = 2; i >= 0; i--)
			  {
				  numberofbottlesarray[i] = numberofbottles% 10;
    2334:	00 e0       	ldi	r16, 0x00	; 0
    2336:	12 e0       	ldi	r17, 0x02	; 2
    2338:	2a e0       	ldi	r18, 0x0A	; 10
    233a:	30 e0       	ldi	r19, 0x00	; 0
    233c:	cb 01       	movw	r24, r22
    233e:	b9 01       	movw	r22, r18
    2340:	0e 94 db 2d 	call	0x5bb6	; 0x5bb6 <__divmodhi4>
    2344:	f8 01       	movw	r30, r16
    2346:	95 83       	std	Z+5, r25	; 0x05
    2348:	84 83       	std	Z+4, r24	; 0x04
    234a:	cb 01       	movw	r24, r22
    234c:	b9 01       	movw	r22, r18
    234e:	0e 94 db 2d 	call	0x5bb6	; 0x5bb6 <__divmodhi4>
    2352:	93 83       	std	Z+3, r25	; 0x03
    2354:	82 83       	std	Z+2, r24	; 0x02
    2356:	cb 01       	movw	r24, r22
    2358:	b9 01       	movw	r22, r18
    235a:	0e 94 db 2d 	call	0x5bb6	; 0x5bb6 <__divmodhi4>
    235e:	91 83       	std	Z+1, r25	; 0x01
    2360:	80 83       	st	Z, r24
    2362:	70 93 bb 02 	sts	0x02BB, r23	; 0x8002bb <numberofbottles+0x1>
    2366:	60 93 ba 02 	sts	0x02BA, r22	; 0x8002ba <numberofbottles>
				  numberofbottles = numberofbottles/ 10;
			  }
			  volumeleft=150-dispensevolumewhole;
    236a:	86 e9       	ldi	r24, 0x96	; 150
    236c:	90 e0       	ldi	r25, 0x00	; 0
    236e:	8c 1b       	sub	r24, r28
    2370:	9d 0b       	sbc	r25, r29
			  for (int i = 2; i >= 0; i--)
			  {
				  volume1[i] = volumeleft% 10;
    2372:	c4 ef       	ldi	r28, 0xF4	; 244
    2374:	d1 e0       	ldi	r29, 0x01	; 1
    2376:	b9 01       	movw	r22, r18
    2378:	0e 94 db 2d 	call	0x5bb6	; 0x5bb6 <__divmodhi4>
    237c:	9d 83       	std	Y+5, r25	; 0x05
    237e:	8c 83       	std	Y+4, r24	; 0x04
    2380:	cb 01       	movw	r24, r22
    2382:	b9 01       	movw	r22, r18
    2384:	0e 94 db 2d 	call	0x5bb6	; 0x5bb6 <__divmodhi4>
    2388:	9b 83       	std	Y+3, r25	; 0x03
    238a:	8a 83       	std	Y+2, r24	; 0x02
    238c:	cb 01       	movw	r24, r22
    238e:	b9 01       	movw	r22, r18
    2390:	0e 94 db 2d 	call	0x5bb6	; 0x5bb6 <__divmodhi4>
    2394:	99 83       	std	Y+1, r25	; 0x01
    2396:	88 83       	st	Y, r24
    2398:	70 93 d3 02 	sts	0x02D3, r23	; 0x8002d3 <volumeleft+0x1>
    239c:	60 93 d2 02 	sts	0x02D2, r22	; 0x8002d2 <volumeleft>
				  volumeleft = volumeleft/ 10;
			  }
			  
			  TX_NEWLINE;
    23a0:	8d e0       	ldi	r24, 0x0D	; 13
    23a2:	0c dc       	rcall	.-2024   	; 0x1bbc <transmitByte>
    23a4:	8a e0       	ldi	r24, 0x0A	; 10
    23a6:	0a dc       	rcall	.-2028   	; 0x1bbc <transmitByte>
			  transmitString_F(PSTR("NUMBER OF BOTTLES FROM INPUT VOLUME IS :"));
    23a8:	80 e9       	ldi	r24, 0x90	; 144
    23aa:	95 e1       	ldi	r25, 0x15	; 21
    23ac:	0b dc       	rcall	.-2026   	; 0x1bc4 <transmitString_F>
			  transmitInt(numberofbottlesarray[0]);
    23ae:	d8 01       	movw	r26, r16
    23b0:	8c 91       	ld	r24, X
    23b2:	28 dc       	rcall	.-1968   	; 0x1c04 <transmitInt>
			  transmitInt(numberofbottlesarray[1]);
    23b4:	f8 01       	movw	r30, r16
    23b6:	82 81       	ldd	r24, Z+2	; 0x02
    23b8:	25 dc       	rcall	.-1974   	; 0x1c04 <transmitInt>
			  transmitInt(numberofbottlesarray[2]);
    23ba:	d8 01       	movw	r26, r16
    23bc:	14 96       	adiw	r26, 0x04	; 4
    23be:	8c 91       	ld	r24, X
    23c0:	21 dc       	rcall	.-1982   	; 0x1c04 <transmitInt>
			  transmitString_F(PSTR("  bottles"));
    23c2:	86 e8       	ldi	r24, 0x86	; 134
    23c4:	95 e1       	ldi	r25, 0x15	; 21
    23c6:	fe db       	rcall	.-2052   	; 0x1bc4 <transmitString_F>
			  
			  TX_NEWLINE;
    23c8:	8d e0       	ldi	r24, 0x0D	; 13
    23ca:	f8 db       	rcall	.-2064   	; 0x1bbc <transmitByte>
    23cc:	8a e0       	ldi	r24, 0x0A	; 10
    23ce:	f6 db       	rcall	.-2068   	; 0x1bbc <transmitByte>
			  transmitString_F(PSTR("THE VOLUME THAT WILL BE LEFT AFTER DISPENSING IS:"));
    23d0:	84 e5       	ldi	r24, 0x54	; 84
    23d2:	95 e1       	ldi	r25, 0x15	; 21
    23d4:	f7 db       	rcall	.-2066   	; 0x1bc4 <transmitString_F>
			  transmitInt(volume1[0]);
    23d6:	88 81       	ld	r24, Y
    23d8:	15 dc       	rcall	.-2006   	; 0x1c04 <transmitInt>
			  transmitInt(volume1[1]);
    23da:	8a 81       	ldd	r24, Y+2	; 0x02
    23dc:	13 dc       	rcall	.-2010   	; 0x1c04 <transmitInt>
			  transmitInt(volume1[2]);
    23de:	8c 81       	ldd	r24, Y+4	; 0x04
    23e0:	11 dc       	rcall	.-2014   	; 0x1c04 <transmitInt>
			  transmitString_F(PSTR(" litres"));
    23e2:	8c e4       	ldi	r24, 0x4C	; 76
    23e4:	95 e1       	ldi	r25, 0x15	; 21
    23e6:	ee db       	rcall	.-2084   	; 0x1bc4 <transmitString_F>
			  TX_NEWLINE;
    23e8:	8d e0       	ldi	r24, 0x0D	; 13
    23ea:	e8 db       	rcall	.-2096   	; 0x1bbc <transmitByte>
    23ec:	8a e0       	ldi	r24, 0x0A	; 10
    23ee:	e6 db       	rcall	.-2100   	; 0x1bbc <transmitByte>
			  transmitString_F(PSTR("PLANT CONFIGURATION COMPLETE PRESS BUTTON ON THE PLANT TO DISPENSE IN BOTTLES :"));
    23f0:	8c ef       	ldi	r24, 0xFC	; 252
    23f2:	94 e1       	ldi	r25, 0x14	; 20
    23f4:	e7 db       	rcall	.-2098   	; 0x1bc4 <transmitString_F>
			  TX_NEWLINE;
    23f6:	8d e0       	ldi	r24, 0x0D	; 13
    23f8:	e1 db       	rcall	.-2110   	; 0x1bbc <transmitByte>
    23fa:	8a e0       	ldi	r24, 0x0A	; 10
    23fc:	df db       	rcall	.-2114   	; 0x1bbc <transmitByte>
			  transmitString_F(PSTR("PRESS ENTER TO CHECK MENU.. :"));
    23fe:	8e ed       	ldi	r24, 0xDE	; 222
    2400:	94 e1       	ldi	r25, 0x14	; 20
    2402:	e0 db       	rcall	.-2112   	; 0x1bc4 <transmitString_F>
    2404:	60 c1       	rjmp	.+704    	; 0x26c6 <bottle_sizes+0xaa6>
		  }
		  else if(choicearray[0]==1){
    2406:	01 97       	sbiw	r24, 0x01	; 1
    2408:	09 f0       	breq	.+2      	; 0x240c <bottle_sizes+0x7ec>
    240a:	3c c1       	rjmp	.+632    	; 0x2684 <bottle_sizes+0xa64>
			  transmitString_F(PSTR("Enter the number of bottles you want to fill:"));//this should be out of 50
    240c:	80 eb       	ldi	r24, 0xB0	; 176
    240e:	94 e1       	ldi	r25, 0x14	; 20
    2410:	d9 db       	rcall	.-2126   	; 0x1bc4 <transmitString_F>
			  TX_NEWLINE;
    2412:	8d e0       	ldi	r24, 0x0D	; 13
    2414:	d3 db       	rcall	.-2138   	; 0x1bbc <transmitByte>
    2416:	8a e0       	ldi	r24, 0x0A	; 10
    2418:	d1 db       	rcall	.-2142   	; 0x1bbc <transmitByte>
			  data= receiveByte(); transmitByte(data);
    241a:	cc db       	rcall	.-2152   	; 0x1bb4 <receiveByte>
    241c:	80 93 af 02 	sts	0x02AF, r24	; 0x8002af <data>
    2420:	cd db       	rcall	.-2150   	; 0x1bbc <transmitByte>
			  numberofbottlesarr[0] = (data & 0x0f); //
    2422:	ca ef       	ldi	r28, 0xFA	; 250
    2424:	d1 e0       	ldi	r29, 0x01	; 1
    2426:	80 91 af 02 	lds	r24, 0x02AF	; 0x8002af <data>
    242a:	8f 70       	andi	r24, 0x0F	; 15
    242c:	90 e0       	ldi	r25, 0x00	; 0
    242e:	99 83       	std	Y+1, r25	; 0x01
    2430:	88 83       	st	Y, r24
			  data= receiveByte(); transmitByte(data);
    2432:	c0 db       	rcall	.-2176   	; 0x1bb4 <receiveByte>
    2434:	80 93 af 02 	sts	0x02AF, r24	; 0x8002af <data>
    2438:	c1 db       	rcall	.-2174   	; 0x1bbc <transmitByte>
			  numberofbottlesarr[1] = (data & 0x0f);
    243a:	80 91 af 02 	lds	r24, 0x02AF	; 0x8002af <data>
    243e:	8f 70       	andi	r24, 0x0F	; 15
    2440:	90 e0       	ldi	r25, 0x00	; 0
    2442:	9b 83       	std	Y+3, r25	; 0x03
    2444:	8a 83       	std	Y+2, r24	; 0x02
			  data= receiveByte(); transmitByte(data);
    2446:	b6 db       	rcall	.-2196   	; 0x1bb4 <receiveByte>
    2448:	80 93 af 02 	sts	0x02AF, r24	; 0x8002af <data>
    244c:	b7 db       	rcall	.-2194   	; 0x1bbc <transmitByte>
			  numberofbottlesarr[2] = (data & 0x0f);
    244e:	40 91 af 02 	lds	r20, 0x02AF	; 0x8002af <data>
    2452:	4f 70       	andi	r20, 0x0F	; 15
    2454:	50 e0       	ldi	r21, 0x00	; 0
    2456:	5d 83       	std	Y+5, r21	; 0x05
    2458:	4c 83       	std	Y+4, r20	; 0x04
			  for (int i=0;i<3;i++)
			  {
				  numberofbottlesarrwhole=10*numberofbottlesarrwhole+numberofbottlesarr[i];
    245a:	60 91 d0 02 	lds	r22, 0x02D0	; 0x8002d0 <numberofbottlesarrwhole>
    245e:	70 91 d1 02 	lds	r23, 0x02D1	; 0x8002d1 <numberofbottlesarrwhole+0x1>
    2462:	9b 01       	movw	r18, r22
    2464:	22 0f       	add	r18, r18
    2466:	33 1f       	adc	r19, r19
    2468:	66 0f       	add	r22, r22
    246a:	77 1f       	adc	r23, r23
    246c:	66 0f       	add	r22, r22
    246e:	77 1f       	adc	r23, r23
    2470:	66 0f       	add	r22, r22
    2472:	77 1f       	adc	r23, r23
    2474:	26 0f       	add	r18, r22
    2476:	37 1f       	adc	r19, r23
    2478:	88 81       	ld	r24, Y
    247a:	99 81       	ldd	r25, Y+1	; 0x01
    247c:	28 0f       	add	r18, r24
    247e:	39 1f       	adc	r19, r25
    2480:	c9 01       	movw	r24, r18
    2482:	88 0f       	add	r24, r24
    2484:	99 1f       	adc	r25, r25
    2486:	22 0f       	add	r18, r18
    2488:	33 1f       	adc	r19, r19
    248a:	22 0f       	add	r18, r18
    248c:	33 1f       	adc	r19, r19
    248e:	22 0f       	add	r18, r18
    2490:	33 1f       	adc	r19, r19
    2492:	82 0f       	add	r24, r18
    2494:	93 1f       	adc	r25, r19
    2496:	2a 81       	ldd	r18, Y+2	; 0x02
    2498:	3b 81       	ldd	r19, Y+3	; 0x03
    249a:	82 0f       	add	r24, r18
    249c:	93 1f       	adc	r25, r19
    249e:	ec 01       	movw	r28, r24
    24a0:	cc 0f       	add	r28, r28
    24a2:	dd 1f       	adc	r29, r29
    24a4:	88 0f       	add	r24, r24
    24a6:	99 1f       	adc	r25, r25
    24a8:	88 0f       	add	r24, r24
    24aa:	99 1f       	adc	r25, r25
    24ac:	88 0f       	add	r24, r24
    24ae:	99 1f       	adc	r25, r25
    24b0:	8c 0f       	add	r24, r28
    24b2:	9d 1f       	adc	r25, r29
    24b4:	ea 01       	movw	r28, r20
    24b6:	c8 0f       	add	r28, r24
    24b8:	d9 1f       	adc	r29, r25
    24ba:	d0 93 d1 02 	sts	0x02D1, r29	; 0x8002d1 <numberofbottlesarrwhole+0x1>
    24be:	c0 93 d0 02 	sts	0x02D0, r28	; 0x8002d0 <numberofbottlesarrwhole>
			  }
			  numberofbottles1=numberofbottlesarrwhole;
    24c2:	d0 93 b9 02 	sts	0x02B9, r29	; 0x8002b9 <numberofbottles1+0x1>
    24c6:	c0 93 b8 02 	sts	0x02B8, r28	; 0x8002b8 <numberofbottles1>
			  
			  if(numberofbottlesarrwhole>300){
    24ca:	cd 32       	cpi	r28, 0x2D	; 45
    24cc:	b1 e0       	ldi	r27, 0x01	; 1
    24ce:	db 07       	cpc	r29, r27
    24d0:	0c f4       	brge	.+2      	; 0x24d4 <bottle_sizes+0x8b4>
    24d2:	3e c0       	rjmp	.+124    	; 0x2550 <bottle_sizes+0x930>
				  dispensedvolume=300*selectedvolume;
    24d4:	20 e0       	ldi	r18, 0x00	; 0
    24d6:	30 e0       	ldi	r19, 0x00	; 0
    24d8:	46 e9       	ldi	r20, 0x96	; 150
    24da:	53 e4       	ldi	r21, 0x43	; 67
    24dc:	60 91 86 02 	lds	r22, 0x0286	; 0x800286 <selectedvolume>
    24e0:	70 91 87 02 	lds	r23, 0x0287	; 0x800287 <selectedvolume+0x1>
    24e4:	80 91 88 02 	lds	r24, 0x0288	; 0x800288 <selectedvolume+0x2>
    24e8:	90 91 89 02 	lds	r25, 0x0289	; 0x800289 <selectedvolume+0x3>
    24ec:	0e 94 78 2d 	call	0x5af0	; 0x5af0 <__mulsf3>
    24f0:	0e 94 b9 2c 	call	0x5972	; 0x5972 <__fixsfsi>
    24f4:	70 93 9d 02 	sts	0x029D, r23	; 0x80029d <dispensedvolume+0x1>
    24f8:	60 93 9c 02 	sts	0x029C, r22	; 0x80029c <dispensedvolume>
				  numberofbottles=300;
				  for (int i = 2; i >= 0; i--)
				  {
					  numberofbottlesarray[i] = numberofbottles% 10;
    24fc:	c0 e0       	ldi	r28, 0x00	; 0
    24fe:	d2 e0       	ldi	r29, 0x02	; 2
    2500:	1d 82       	std	Y+5, r1	; 0x05
    2502:	1c 82       	std	Y+4, r1	; 0x04
    2504:	1b 82       	std	Y+3, r1	; 0x03
    2506:	1a 82       	std	Y+2, r1	; 0x02
    2508:	83 e0       	ldi	r24, 0x03	; 3
    250a:	90 e0       	ldi	r25, 0x00	; 0
    250c:	99 83       	std	Y+1, r25	; 0x01
    250e:	88 83       	st	Y, r24
    2510:	10 92 bb 02 	sts	0x02BB, r1	; 0x8002bb <numberofbottles+0x1>
    2514:	10 92 ba 02 	sts	0x02BA, r1	; 0x8002ba <numberofbottles>
					  numberofbottles = numberofbottles/ 10;
				  }
				  TX_NEWLINE;
    2518:	8d e0       	ldi	r24, 0x0D	; 13
    251a:	50 db       	rcall	.-2400   	; 0x1bbc <transmitByte>
    251c:	8a e0       	ldi	r24, 0x0A	; 10
    251e:	4e db       	rcall	.-2404   	; 0x1bbc <transmitByte>
				  transmitString_F(PSTR("SORRY.. LIQUID IS NOT ENOUGH"));
    2520:	83 e9       	ldi	r24, 0x93	; 147
    2522:	94 e1       	ldi	r25, 0x14	; 20
    2524:	4f db       	rcall	.-2402   	; 0x1bc4 <transmitString_F>
				  TX_NEWLINE;
    2526:	8d e0       	ldi	r24, 0x0D	; 13
    2528:	49 db       	rcall	.-2414   	; 0x1bbc <transmitByte>
    252a:	8a e0       	ldi	r24, 0x0A	; 10
    252c:	47 db       	rcall	.-2418   	; 0x1bbc <transmitByte>
				  transmitString_F(PSTR("BOTTLES THAT CAN BE FILLED WITH THE AVAILABLE DRINK:"));
    252e:	8e e5       	ldi	r24, 0x5E	; 94
    2530:	94 e1       	ldi	r25, 0x14	; 20
    2532:	48 db       	rcall	.-2416   	; 0x1bc4 <transmitString_F>
				  transmitInt(numberofbottlesarray[0]);
    2534:	88 81       	ld	r24, Y
    2536:	66 db       	rcall	.-2356   	; 0x1c04 <transmitInt>
				  transmitInt(numberofbottlesarray[1]);
    2538:	8a 81       	ldd	r24, Y+2	; 0x02
    253a:	64 db       	rcall	.-2360   	; 0x1c04 <transmitInt>
				  transmitInt(numberofbottlesarray[2]);
    253c:	8c 81       	ldd	r24, Y+4	; 0x04
    253e:	62 db       	rcall	.-2364   	; 0x1c04 <transmitInt>
				  transmitString_F(PSTR("bottles"));
    2540:	86 e5       	ldi	r24, 0x56	; 86
    2542:	94 e1       	ldi	r25, 0x14	; 20
    2544:	3f db       	rcall	.-2434   	; 0x1bc4 <transmitString_F>
				  TX_NEWLINE;
    2546:	8d e0       	ldi	r24, 0x0D	; 13
    2548:	39 db       	rcall	.-2446   	; 0x1bbc <transmitByte>
    254a:	8a e0       	ldi	r24, 0x0A	; 10
    254c:	37 db       	rcall	.-2450   	; 0x1bbc <transmitByte>
    254e:	1b c0       	rjmp	.+54     	; 0x2586 <bottle_sizes+0x966>
			  }
			  
			  else if(numberofbottlesarrwhole<=300){
				  dispensedvolume=numberofbottlesarrwhole*selectedvolume;
    2550:	be 01       	movw	r22, r28
    2552:	0d 2e       	mov	r0, r29
    2554:	00 0c       	add	r0, r0
    2556:	88 0b       	sbc	r24, r24
    2558:	99 0b       	sbc	r25, r25
    255a:	0e 94 ec 2c 	call	0x59d8	; 0x59d8 <__floatsisf>
    255e:	20 91 86 02 	lds	r18, 0x0286	; 0x800286 <selectedvolume>
    2562:	30 91 87 02 	lds	r19, 0x0287	; 0x800287 <selectedvolume+0x1>
    2566:	40 91 88 02 	lds	r20, 0x0288	; 0x800288 <selectedvolume+0x2>
    256a:	50 91 89 02 	lds	r21, 0x0289	; 0x800289 <selectedvolume+0x3>
    256e:	0e 94 78 2d 	call	0x5af0	; 0x5af0 <__mulsf3>
    2572:	0e 94 b9 2c 	call	0x5972	; 0x5972 <__fixsfsi>
    2576:	70 93 9d 02 	sts	0x029D, r23	; 0x80029d <dispensedvolume+0x1>
    257a:	60 93 9c 02 	sts	0x029C, r22	; 0x80029c <dispensedvolume>
				  numberofbottlesarrwhole1=numberofbottlesarrwhole;
    257e:	d0 93 83 02 	sts	0x0283, r29	; 0x800283 <numberofbottlesarrwhole1+0x1>
    2582:	c0 93 82 02 	sts	0x0282, r28	; 0x800282 <numberofbottlesarrwhole1>
			  }
			  
			  dispensedvolume1=dispensedvolume;
    2586:	e0 91 9c 02 	lds	r30, 0x029C	; 0x80029c <dispensedvolume>
    258a:	f0 91 9d 02 	lds	r31, 0x029D	; 0x80029d <dispensedvolume+0x1>
    258e:	f0 93 a4 02 	sts	0x02A4, r31	; 0x8002a4 <dispensedvolume1+0x1>
    2592:	e0 93 a3 02 	sts	0x02A3, r30	; 0x8002a3 <dispensedvolume1>
			  
			  for (int i = 2; i >= 0; i--)
			  {
				  volume[i] = dispensedvolume% 10;
    2596:	06 e0       	ldi	r16, 0x06	; 6
    2598:	12 e0       	ldi	r17, 0x02	; 2
    259a:	2a e0       	ldi	r18, 0x0A	; 10
    259c:	30 e0       	ldi	r19, 0x00	; 0
    259e:	cf 01       	movw	r24, r30
    25a0:	b9 01       	movw	r22, r18
    25a2:	0e 94 db 2d 	call	0x5bb6	; 0x5bb6 <__divmodhi4>
    25a6:	d8 01       	movw	r26, r16
    25a8:	15 96       	adiw	r26, 0x05	; 5
    25aa:	9c 93       	st	X, r25
    25ac:	8e 93       	st	-X, r24
    25ae:	14 97       	sbiw	r26, 0x04	; 4
    25b0:	cb 01       	movw	r24, r22
    25b2:	b9 01       	movw	r22, r18
    25b4:	0e 94 db 2d 	call	0x5bb6	; 0x5bb6 <__divmodhi4>
    25b8:	d8 01       	movw	r26, r16
    25ba:	13 96       	adiw	r26, 0x03	; 3
    25bc:	9c 93       	st	X, r25
    25be:	8e 93       	st	-X, r24
    25c0:	12 97       	sbiw	r26, 0x02	; 2
    25c2:	cb 01       	movw	r24, r22
    25c4:	b9 01       	movw	r22, r18
    25c6:	0e 94 db 2d 	call	0x5bb6	; 0x5bb6 <__divmodhi4>
    25ca:	d8 01       	movw	r26, r16
    25cc:	8d 93       	st	X+, r24
    25ce:	9c 93       	st	X, r25
    25d0:	70 93 9d 02 	sts	0x029D, r23	; 0x80029d <dispensedvolume+0x1>
    25d4:	60 93 9c 02 	sts	0x029C, r22	; 0x80029c <dispensedvolume>
				  dispensedvolume = dispensedvolume/ 10;
			  }
			  volumeleft=150-dispensedvolume1;
    25d8:	86 e9       	ldi	r24, 0x96	; 150
    25da:	90 e0       	ldi	r25, 0x00	; 0
    25dc:	8e 1b       	sub	r24, r30
    25de:	9f 0b       	sbc	r25, r31
			  for (int i = 2; i >= 0; i--)
			  {
				  volume1[i] = volumeleft% 10;
    25e0:	c4 ef       	ldi	r28, 0xF4	; 244
    25e2:	d1 e0       	ldi	r29, 0x01	; 1
    25e4:	b9 01       	movw	r22, r18
    25e6:	0e 94 db 2d 	call	0x5bb6	; 0x5bb6 <__divmodhi4>
    25ea:	9d 83       	std	Y+5, r25	; 0x05
    25ec:	8c 83       	std	Y+4, r24	; 0x04
    25ee:	cb 01       	movw	r24, r22
    25f0:	b9 01       	movw	r22, r18
    25f2:	0e 94 db 2d 	call	0x5bb6	; 0x5bb6 <__divmodhi4>
    25f6:	9b 83       	std	Y+3, r25	; 0x03
    25f8:	8a 83       	std	Y+2, r24	; 0x02
    25fa:	cb 01       	movw	r24, r22
    25fc:	b9 01       	movw	r22, r18
    25fe:	0e 94 db 2d 	call	0x5bb6	; 0x5bb6 <__divmodhi4>
    2602:	99 83       	std	Y+1, r25	; 0x01
    2604:	88 83       	st	Y, r24
    2606:	70 93 d3 02 	sts	0x02D3, r23	; 0x8002d3 <volumeleft+0x1>
    260a:	60 93 d2 02 	sts	0x02D2, r22	; 0x8002d2 <volumeleft>
				  volumeleft = volumeleft/ 10;
			  }
			  TX_NEWLINE;
    260e:	8d e0       	ldi	r24, 0x0D	; 13
    2610:	d5 da       	rcall	.-2646   	; 0x1bbc <transmitByte>
    2612:	8a e0       	ldi	r24, 0x0A	; 10
    2614:	d3 da       	rcall	.-2650   	; 0x1bbc <transmitByte>
			  transmitString_F(PSTR("VOLUME OF BOTTLES INPUT IS:"));
    2616:	8a e3       	ldi	r24, 0x3A	; 58
    2618:	94 e1       	ldi	r25, 0x14	; 20
    261a:	d4 da       	rcall	.-2648   	; 0x1bc4 <transmitString_F>
			  transmitInt(volume[0]);
    261c:	f8 01       	movw	r30, r16
    261e:	80 81       	ld	r24, Z
    2620:	f1 da       	rcall	.-2590   	; 0x1c04 <transmitInt>
			  transmitInt(volume[1]);
    2622:	d8 01       	movw	r26, r16
    2624:	12 96       	adiw	r26, 0x02	; 2
    2626:	8c 91       	ld	r24, X
    2628:	ed da       	rcall	.-2598   	; 0x1c04 <transmitInt>
			  transmitInt(volume[2]);
    262a:	f8 01       	movw	r30, r16
    262c:	84 81       	ldd	r24, Z+4	; 0x04
    262e:	ea da       	rcall	.-2604   	; 0x1c04 <transmitInt>
			  transmitString_F(PSTR("litres"));
    2630:	83 e3       	ldi	r24, 0x33	; 51
    2632:	94 e1       	ldi	r25, 0x14	; 20
    2634:	c7 da       	rcall	.-2674   	; 0x1bc4 <transmitString_F>
			  TX_NEWLINE;
    2636:	8d e0       	ldi	r24, 0x0D	; 13
    2638:	c1 da       	rcall	.-2686   	; 0x1bbc <transmitByte>
    263a:	8a e0       	ldi	r24, 0x0A	; 10
    263c:	bf da       	rcall	.-2690   	; 0x1bbc <transmitByte>
			  
			  ///////////////////////////////////////////////////////////////////
			  
			  
			  
			  TX_NEWLINE;
    263e:	8d e0       	ldi	r24, 0x0D	; 13
    2640:	bd da       	rcall	.-2694   	; 0x1bbc <transmitByte>
    2642:	8a e0       	ldi	r24, 0x0A	; 10
    2644:	bb da       	rcall	.-2698   	; 0x1bbc <transmitByte>
			  transmitString_F(PSTR("THE VOLUME THAT WILL BE LEFT AFTER DISPENSING IS:"));
    2646:	81 e0       	ldi	r24, 0x01	; 1
    2648:	94 e1       	ldi	r25, 0x14	; 20
    264a:	bc da       	rcall	.-2696   	; 0x1bc4 <transmitString_F>
			  transmitInt(volume1[0]);
    264c:	88 81       	ld	r24, Y
    264e:	da da       	rcall	.-2636   	; 0x1c04 <transmitInt>
			  transmitInt(volume1[1]);
    2650:	8a 81       	ldd	r24, Y+2	; 0x02
    2652:	d8 da       	rcall	.-2640   	; 0x1c04 <transmitInt>
			  transmitInt(volume1[2]);
    2654:	8c 81       	ldd	r24, Y+4	; 0x04
    2656:	d6 da       	rcall	.-2644   	; 0x1c04 <transmitInt>
			  transmitString_F(PSTR("litres"));
    2658:	8a ef       	ldi	r24, 0xFA	; 250
    265a:	93 e1       	ldi	r25, 0x13	; 19
    265c:	b3 da       	rcall	.-2714   	; 0x1bc4 <transmitString_F>
			  TX_NEWLINE;
    265e:	8d e0       	ldi	r24, 0x0D	; 13
    2660:	ad da       	rcall	.-2726   	; 0x1bbc <transmitByte>
    2662:	8a e0       	ldi	r24, 0x0A	; 10
    2664:	ab da       	rcall	.-2730   	; 0x1bbc <transmitByte>
			  TX_NEWLINE;
    2666:	8d e0       	ldi	r24, 0x0D	; 13
    2668:	a9 da       	rcall	.-2734   	; 0x1bbc <transmitByte>
    266a:	8a e0       	ldi	r24, 0x0A	; 10
    266c:	a7 da       	rcall	.-2738   	; 0x1bbc <transmitByte>
			  transmitString_F(PSTR("PLANT CONFIGURATION COMPLETE PRESS BUTTON ON THE PLANT TO DISPENSE IN BOTTLES :"));
    266e:	8a ea       	ldi	r24, 0xAA	; 170
    2670:	93 e1       	ldi	r25, 0x13	; 19
    2672:	a8 da       	rcall	.-2736   	; 0x1bc4 <transmitString_F>
			  TX_NEWLINE;
    2674:	8d e0       	ldi	r24, 0x0D	; 13
    2676:	a2 da       	rcall	.-2748   	; 0x1bbc <transmitByte>
    2678:	8a e0       	ldi	r24, 0x0A	; 10
    267a:	a0 da       	rcall	.-2752   	; 0x1bbc <transmitByte>
			  transmitString_F(PSTR("PRESS ENTER TO CHECK MENU.. :"));
    267c:	8c e8       	ldi	r24, 0x8C	; 140
    267e:	93 e1       	ldi	r25, 0x13	; 19
    2680:	a1 da       	rcall	.-2750   	; 0x1bc4 <transmitString_F>
    2682:	21 c0       	rjmp	.+66     	; 0x26c6 <bottle_sizes+0xaa6>
			  /////////////////////////////////////////////////////////////////////

			  
		  }
		  else if(choicearray[0]!=(1|0)){
			  transmitString_F(PSTR("invalid input"));
    2684:	8e e7       	ldi	r24, 0x7E	; 126
    2686:	93 e1       	ldi	r25, 0x13	; 19
    2688:	9d da       	rcall	.-2758   	; 0x1bc4 <transmitString_F>
    268a:	1d c0       	rjmp	.+58     	; 0x26c6 <bottle_sizes+0xaa6>
		  }
		  break;
		  
		  default:
		  TX_NEWLINE;
    268c:	8d e0       	ldi	r24, 0x0D	; 13
    268e:	96 da       	rcall	.-2772   	; 0x1bbc <transmitByte>
    2690:	8a e0       	ldi	r24, 0x0A	; 10
    2692:	94 da       	rcall	.-2776   	; 0x1bbc <transmitByte>
		  transmitString_F(PSTR("Invalid Option, Try Again (1 - 4);"));
    2694:	8b e5       	ldi	r24, 0x5B	; 91
    2696:	93 e1       	ldi	r25, 0x13	; 19
    2698:	95 da       	rcall	.-2774   	; 0x1bc4 <transmitString_F>
		  TX_NEWLINE;
    269a:	8d e0       	ldi	r24, 0x0D	; 13
    269c:	8f da       	rcall	.-2786   	; 0x1bbc <transmitByte>
    269e:	8a e0       	ldi	r24, 0x0A	; 10
    26a0:	8d da       	rcall	.-2790   	; 0x1bbc <transmitByte>
		  transmitString_F(PSTR("Press Enter to Continue;"));
    26a2:	82 e4       	ldi	r24, 0x42	; 66
    26a4:	93 e1       	ldi	r25, 0x13	; 19
    26a6:	8e da       	rcall	.-2788   	; 0x1bc4 <transmitString_F>

		  break;
    26a8:	0e c0       	rjmp	.+28     	; 0x26c6 <bottle_sizes+0xaa6>
	  
	  
	  
	  
  }else{
	   TX_NEWLINE;
    26aa:	8d e0       	ldi	r24, 0x0D	; 13
    26ac:	87 da       	rcall	.-2802   	; 0x1bbc <transmitByte>
    26ae:	8a e0       	ldi	r24, 0x0A	; 10
    26b0:	85 da       	rcall	.-2806   	; 0x1bbc <transmitByte>
	   transmitString_F(PSTR("PLEASE FIRST CONFIGURE THE PLANT"));
    26b2:	81 e2       	ldi	r24, 0x21	; 33
    26b4:	93 e1       	ldi	r25, 0x13	; 19
    26b6:	86 da       	rcall	.-2804   	; 0x1bc4 <transmitString_F>
	    TX_NEWLINE;
    26b8:	8d e0       	ldi	r24, 0x0D	; 13
    26ba:	80 da       	rcall	.-2816   	; 0x1bbc <transmitByte>
    26bc:	8a e0       	ldi	r24, 0x0A	; 10
    26be:	7e da       	rcall	.-2820   	; 0x1bbc <transmitByte>
	    transmitString_F(PSTR("PRESS ENTER TO CONTINUE"));
    26c0:	89 e0       	ldi	r24, 0x09	; 9
    26c2:	93 e1       	ldi	r25, 0x13	; 19
    26c4:	7f da       	rcall	.-2818   	; 0x1bc4 <transmitString_F>
	  
	  
  }
  
	  }
    26c6:	df 91       	pop	r29
    26c8:	cf 91       	pop	r28
    26ca:	1f 91       	pop	r17
    26cc:	0f 91       	pop	r16
    26ce:	ff 90       	pop	r15
    26d0:	ef 90       	pop	r14
    26d2:	df 90       	pop	r13
    26d4:	cf 90       	pop	r12
    26d6:	08 95       	ret

000026d8 <menu>:
  /////////////////////////////////////////////////////////////////////////////////////
  
  
  void menu(unsigned char opt){
    26d8:	cf 93       	push	r28
    26da:	df 93       	push	r29
   switch (opt)
    26dc:	90 e0       	ldi	r25, 0x00	; 0
    26de:	fc 01       	movw	r30, r24
    26e0:	f1 97       	sbiw	r30, 0x31	; 49
    26e2:	e8 30       	cpi	r30, 0x08	; 8
    26e4:	f1 05       	cpc	r31, r1
    26e6:	10 f0       	brcs	.+4      	; 0x26ec <menu+0x14>
    26e8:	0c 94 6c 28 	jmp	0x50d8	; 0x50d8 <menu+0x2a00>
    26ec:	ea 5b       	subi	r30, 0xBA	; 186
    26ee:	ff 4f       	sbci	r31, 0xFF	; 255
    26f0:	0c 94 ee 2d 	jmp	0x5bdc	; 0x5bdc <__tablejump2__>
   {
	   case '1': TX_NEWLINE;
    26f4:	8d e0       	ldi	r24, 0x0D	; 13
    26f6:	62 da       	rcall	.-2876   	; 0x1bbc <transmitByte>
    26f8:	8a e0       	ldi	r24, 0x0A	; 10
    26fa:	60 da       	rcall	.-2880   	; 0x1bbc <transmitByte>
	#else
		//round up by default
		__ticks_dc = (uint32_t)(ceil(fabs(__tmp)));
	#endif

	__builtin_avr_delay_cycles(__ticks_dc);
    26fc:	8f e4       	ldi	r24, 0x4F	; 79
    26fe:	93 ec       	ldi	r25, 0xC3	; 195
    2700:	01 97       	sbiw	r24, 0x01	; 1
    2702:	f1 f7       	brne	.-4      	; 0x2700 <menu+0x28>
    2704:	00 c0       	rjmp	.+0      	; 0x2706 <menu+0x2e>
    2706:	00 00       	nop
			_delay_ms(200);
			   TX_NEWLINE;
    2708:	8d e0       	ldi	r24, 0x0D	; 13
    270a:	58 da       	rcall	.-2896   	; 0x1bbc <transmitByte>
    270c:	8a e0       	ldi	r24, 0x0A	; 10
    270e:	56 da       	rcall	.-2900   	; 0x1bbc <transmitByte>
		    transmitString_F(PSTR("VALUES SHOULD BE BETWEEN 0000-9999"));
    2710:	86 ee       	ldi	r24, 0xE6	; 230
    2712:	92 e1       	ldi	r25, 0x12	; 18
    2714:	57 da       	rcall	.-2898   	; 0x1bc4 <transmitString_F>
			TX_NEWLINE;
    2716:	8d e0       	ldi	r24, 0x0D	; 13
    2718:	51 da       	rcall	.-2910   	; 0x1bbc <transmitByte>
    271a:	8a e0       	ldi	r24, 0x0A	; 10
    271c:	4f da       	rcall	.-2914   	; 0x1bbc <transmitByte>
		   transmitString_F( PSTR(" Enter ORANGES AVAILABLE:"));
    271e:	8c ec       	ldi	r24, 0xCC	; 204
    2720:	92 e1       	ldi	r25, 0x12	; 18
    2722:	50 da       	rcall	.-2912   	; 0x1bc4 <transmitString_F>
		   TX_NEWLINE;
    2724:	8d e0       	ldi	r24, 0x0D	; 13
    2726:	4a da       	rcall	.-2924   	; 0x1bbc <transmitByte>
    2728:	8a e0       	ldi	r24, 0x0A	; 10
    272a:	48 da       	rcall	.-2928   	; 0x1bbc <transmitByte>
		  transmitByte(' ');
    272c:	80 e2       	ldi	r24, 0x20	; 32
    272e:	46 da       	rcall	.-2932   	; 0x1bbc <transmitByte>
		   data = receiveByte(); transmitByte(data);
    2730:	41 da       	rcall	.-2942   	; 0x1bb4 <receiveByte>
    2732:	80 93 af 02 	sts	0x02AF, r24	; 0x8002af <data>
    2736:	42 da       	rcall	.-2940   	; 0x1bbc <transmitByte>
		   ini_orange[0] = (data & 0x0f); //
    2738:	c6 e7       	ldi	r28, 0x76	; 118
    273a:	d2 e0       	ldi	r29, 0x02	; 2
    273c:	80 91 af 02 	lds	r24, 0x02AF	; 0x8002af <data>
    2740:	8f 70       	andi	r24, 0x0F	; 15
    2742:	90 e0       	ldi	r25, 0x00	; 0
    2744:	99 83       	std	Y+1, r25	; 0x01
    2746:	88 83       	st	Y, r24
		    transmitByte(' ');	
    2748:	80 e2       	ldi	r24, 0x20	; 32
    274a:	38 da       	rcall	.-2960   	; 0x1bbc <transmitByte>
			data = receiveByte(); transmitByte(data);
    274c:	33 da       	rcall	.-2970   	; 0x1bb4 <receiveByte>
    274e:	80 93 af 02 	sts	0x02AF, r24	; 0x8002af <data>
    2752:	34 da       	rcall	.-2968   	; 0x1bbc <transmitByte>
		   ini_orange[1] = (data & 0x0f); //
    2754:	80 91 af 02 	lds	r24, 0x02AF	; 0x8002af <data>
    2758:	8f 70       	andi	r24, 0x0F	; 15
    275a:	90 e0       	ldi	r25, 0x00	; 0
    275c:	9b 83       	std	Y+3, r25	; 0x03
    275e:	8a 83       	std	Y+2, r24	; 0x02
		    transmitByte(' ');	   
    2760:	80 e2       	ldi	r24, 0x20	; 32
    2762:	2c da       	rcall	.-2984   	; 0x1bbc <transmitByte>
		   data = receiveByte(); transmitByte(data);
    2764:	27 da       	rcall	.-2994   	; 0x1bb4 <receiveByte>
    2766:	80 93 af 02 	sts	0x02AF, r24	; 0x8002af <data>
    276a:	28 da       	rcall	.-2992   	; 0x1bbc <transmitByte>
	       ini_orange[2] = (data & 0x0f); //
    276c:	80 91 af 02 	lds	r24, 0x02AF	; 0x8002af <data>
    2770:	8f 70       	andi	r24, 0x0F	; 15
    2772:	90 e0       	ldi	r25, 0x00	; 0
    2774:	9d 83       	std	Y+5, r25	; 0x05
    2776:	8c 83       	std	Y+4, r24	; 0x04
		    transmitByte(' ');
    2778:	80 e2       	ldi	r24, 0x20	; 32
    277a:	20 da       	rcall	.-3008   	; 0x1bbc <transmitByte>
	       data = receiveByte(); transmitByte(data);
    277c:	1b da       	rcall	.-3018   	; 0x1bb4 <receiveByte>
    277e:	80 93 af 02 	sts	0x02AF, r24	; 0x8002af <data>
    2782:	1c da       	rcall	.-3016   	; 0x1bbc <transmitByte>
	       ini_orange[3] = (data & 0x0f);
    2784:	80 91 af 02 	lds	r24, 0x02AF	; 0x8002af <data>
    2788:	8f 70       	andi	r24, 0x0F	; 15
    278a:	90 e0       	ldi	r25, 0x00	; 0
    278c:	9f 83       	std	Y+7, r25	; 0x07
    278e:	8e 83       	std	Y+6, r24	; 0x06
    2790:	80 91 b6 02 	lds	r24, 0x02B6	; 0x8002b6 <ini_orangewhole>
    2794:	90 91 b7 02 	lds	r25, 0x02B7	; 0x8002b7 <ini_orangewhole+0x1>
    2798:	fe 01       	movw	r30, r28
    279a:	6e e7       	ldi	r22, 0x7E	; 126
    279c:	72 e0       	ldi	r23, 0x02	; 2
		   for (int i=0;i<4;i++)
		   {
			  ini_orangewhole=10*ini_orangewhole+ini_orange[i];
    279e:	21 91       	ld	r18, Z+
    27a0:	31 91       	ld	r19, Z+
    27a2:	ac 01       	movw	r20, r24
    27a4:	44 0f       	add	r20, r20
    27a6:	55 1f       	adc	r21, r21
    27a8:	88 0f       	add	r24, r24
    27aa:	99 1f       	adc	r25, r25
    27ac:	88 0f       	add	r24, r24
    27ae:	99 1f       	adc	r25, r25
    27b0:	88 0f       	add	r24, r24
    27b2:	99 1f       	adc	r25, r25
    27b4:	84 0f       	add	r24, r20
    27b6:	95 1f       	adc	r25, r21
    27b8:	82 0f       	add	r24, r18
    27ba:	93 1f       	adc	r25, r19
		   data = receiveByte(); transmitByte(data);
	       ini_orange[2] = (data & 0x0f); //
		    transmitByte(' ');
	       data = receiveByte(); transmitByte(data);
	       ini_orange[3] = (data & 0x0f);
		   for (int i=0;i<4;i++)
    27bc:	e6 17       	cp	r30, r22
    27be:	f7 07       	cpc	r31, r23
    27c0:	71 f7       	brne	.-36     	; 0x279e <menu+0xc6>
    27c2:	90 93 b7 02 	sts	0x02B7, r25	; 0x8002b7 <ini_orangewhole+0x1>
    27c6:	80 93 b6 02 	sts	0x02B6, r24	; 0x8002b6 <ini_orangewhole>
		   {
			  ini_orangewhole=10*ini_orangewhole+ini_orange[i];
			    }
		
			   TX_NEWLINE;
    27ca:	8d e0       	ldi	r24, 0x0D	; 13
    27cc:	f7 d9       	rcall	.-3090   	; 0x1bbc <transmitByte>
    27ce:	8a e0       	ldi	r24, 0x0A	; 10
    27d0:	f5 d9       	rcall	.-3094   	; 0x1bbc <transmitByte>
			   transmitString_F(PSTR("ORANGES AVAILABLE ARE :"));
    27d2:	84 eb       	ldi	r24, 0xB4	; 180
    27d4:	92 e1       	ldi	r25, 0x12	; 18
    27d6:	f6 d9       	rcall	.-3092   	; 0x1bc4 <transmitString_F>
			   transmitInt(ini_orange[0]);
    27d8:	c6 e7       	ldi	r28, 0x76	; 118
    27da:	d2 e0       	ldi	r29, 0x02	; 2
    27dc:	88 81       	ld	r24, Y
    27de:	12 da       	rcall	.-3036   	; 0x1c04 <transmitInt>
			    transmitInt(ini_orange[1]);
    27e0:	8a 81       	ldd	r24, Y+2	; 0x02
    27e2:	10 da       	rcall	.-3040   	; 0x1c04 <transmitInt>
				 transmitInt(ini_orange[2]);
    27e4:	8c 81       	ldd	r24, Y+4	; 0x04
    27e6:	0e da       	rcall	.-3044   	; 0x1c04 <transmitInt>
				 transmitInt(ini_orange[3]);
    27e8:	8e 81       	ldd	r24, Y+6	; 0x06
    27ea:	0c da       	rcall	.-3048   	; 0x1c04 <transmitInt>
				 		  
	TX_NEWLINE;
    27ec:	8d e0       	ldi	r24, 0x0D	; 13
    27ee:	e6 d9       	rcall	.-3124   	; 0x1bbc <transmitByte>
    27f0:	8a e0       	ldi	r24, 0x0A	; 10
    27f2:	e4 d9       	rcall	.-3128   	; 0x1bbc <transmitByte>
	///////////////////////////
	
	 TX_NEWLINE;
    27f4:	8d e0       	ldi	r24, 0x0D	; 13
    27f6:	e2 d9       	rcall	.-3132   	; 0x1bbc <transmitByte>
    27f8:	8a e0       	ldi	r24, 0x0A	; 10
    27fa:	e0 d9       	rcall	.-3136   	; 0x1bbc <transmitByte>
    27fc:	8f e4       	ldi	r24, 0x4F	; 79
    27fe:	93 ec       	ldi	r25, 0xC3	; 195
    2800:	01 97       	sbiw	r24, 0x01	; 1
    2802:	f1 f7       	brne	.-4      	; 0x2800 <menu+0x128>
    2804:	00 c0       	rjmp	.+0      	; 0x2806 <menu+0x12e>
    2806:	00 00       	nop
			_delay_ms(200);  
			TX_NEWLINE;
    2808:	8d e0       	ldi	r24, 0x0D	; 13
    280a:	d8 d9       	rcall	.-3152   	; 0x1bbc <transmitByte>
    280c:	8a e0       	ldi	r24, 0x0A	; 10
    280e:	d6 d9       	rcall	.-3156   	; 0x1bbc <transmitByte>
		    transmitString_F(PSTR("VALUES SHOULD BE BETWEEN 0000-9999"));
    2810:	81 e9       	ldi	r24, 0x91	; 145
    2812:	92 e1       	ldi	r25, 0x12	; 18
    2814:	d7 d9       	rcall	.-3154   	; 0x1bc4 <transmitString_F>
			TX_NEWLINE;
    2816:	8d e0       	ldi	r24, 0x0D	; 13
    2818:	d1 d9       	rcall	.-3166   	; 0x1bbc <transmitByte>
    281a:	8a e0       	ldi	r24, 0x0A	; 10
    281c:	cf d9       	rcall	.-3170   	; 0x1bbc <transmitByte>
		   transmitString_F( PSTR(" Enter MANGOES AVAILABLE:"));
    281e:	87 e7       	ldi	r24, 0x77	; 119
    2820:	92 e1       	ldi	r25, 0x12	; 18
    2822:	d0 d9       	rcall	.-3168   	; 0x1bc4 <transmitString_F>
		   TX_NEWLINE;
    2824:	8d e0       	ldi	r24, 0x0D	; 13
    2826:	ca d9       	rcall	.-3180   	; 0x1bbc <transmitByte>
    2828:	8a e0       	ldi	r24, 0x0A	; 10
    282a:	c8 d9       	rcall	.-3184   	; 0x1bbc <transmitByte>
		  transmitByte(' ');
    282c:	80 e2       	ldi	r24, 0x20	; 32
    282e:	c6 d9       	rcall	.-3188   	; 0x1bbc <transmitByte>
		   data = receiveByte(); transmitByte(data);
    2830:	c1 d9       	rcall	.-3198   	; 0x1bb4 <receiveByte>
    2832:	80 93 af 02 	sts	0x02AF, r24	; 0x8002af <data>
    2836:	c2 d9       	rcall	.-3196   	; 0x1bbc <transmitByte>
		   ini_mango[0] = (data & 0x0f); //
    2838:	ce e6       	ldi	r28, 0x6E	; 110
    283a:	d2 e0       	ldi	r29, 0x02	; 2
    283c:	80 91 af 02 	lds	r24, 0x02AF	; 0x8002af <data>
    2840:	8f 70       	andi	r24, 0x0F	; 15
    2842:	90 e0       	ldi	r25, 0x00	; 0
    2844:	99 83       	std	Y+1, r25	; 0x01
    2846:	88 83       	st	Y, r24
		    transmitByte(' ');	
    2848:	80 e2       	ldi	r24, 0x20	; 32
    284a:	b8 d9       	rcall	.-3216   	; 0x1bbc <transmitByte>
			data = receiveByte(); transmitByte(data);
    284c:	b3 d9       	rcall	.-3226   	; 0x1bb4 <receiveByte>
    284e:	80 93 af 02 	sts	0x02AF, r24	; 0x8002af <data>
    2852:	b4 d9       	rcall	.-3224   	; 0x1bbc <transmitByte>
		   ini_mango[1] = (data & 0x0f); //
    2854:	80 91 af 02 	lds	r24, 0x02AF	; 0x8002af <data>
    2858:	8f 70       	andi	r24, 0x0F	; 15
    285a:	90 e0       	ldi	r25, 0x00	; 0
    285c:	9b 83       	std	Y+3, r25	; 0x03
    285e:	8a 83       	std	Y+2, r24	; 0x02
		    transmitByte(' ');	   
    2860:	80 e2       	ldi	r24, 0x20	; 32
    2862:	ac d9       	rcall	.-3240   	; 0x1bbc <transmitByte>
		   data = receiveByte(); transmitByte(data);
    2864:	a7 d9       	rcall	.-3250   	; 0x1bb4 <receiveByte>
    2866:	80 93 af 02 	sts	0x02AF, r24	; 0x8002af <data>
    286a:	a8 d9       	rcall	.-3248   	; 0x1bbc <transmitByte>
	       ini_mango[2] = (data & 0x0f); //
    286c:	80 91 af 02 	lds	r24, 0x02AF	; 0x8002af <data>
    2870:	8f 70       	andi	r24, 0x0F	; 15
    2872:	90 e0       	ldi	r25, 0x00	; 0
    2874:	9d 83       	std	Y+5, r25	; 0x05
    2876:	8c 83       	std	Y+4, r24	; 0x04
		    transmitByte(' ');
    2878:	80 e2       	ldi	r24, 0x20	; 32
    287a:	a0 d9       	rcall	.-3264   	; 0x1bbc <transmitByte>
	       data = receiveByte(); transmitByte(data);
    287c:	9b d9       	rcall	.-3274   	; 0x1bb4 <receiveByte>
    287e:	80 93 af 02 	sts	0x02AF, r24	; 0x8002af <data>
    2882:	9c d9       	rcall	.-3272   	; 0x1bbc <transmitByte>
	       ini_mango[3] = (data & 0x0f);
    2884:	80 91 af 02 	lds	r24, 0x02AF	; 0x8002af <data>
    2888:	8f 70       	andi	r24, 0x0F	; 15
    288a:	90 e0       	ldi	r25, 0x00	; 0
    288c:	9f 83       	std	Y+7, r25	; 0x07
    288e:	8e 83       	std	Y+6, r24	; 0x06
    2890:	80 91 8a 02 	lds	r24, 0x028A	; 0x80028a <ini_mangowhole>
    2894:	90 91 8b 02 	lds	r25, 0x028B	; 0x80028b <ini_mangowhole+0x1>
    2898:	fe 01       	movw	r30, r28
    289a:	66 e7       	ldi	r22, 0x76	; 118
    289c:	72 e0       	ldi	r23, 0x02	; 2
		    for (int i=0;i<4;i++)
		   {
			  ini_mangowhole=10*ini_mangowhole+ini_mango[i];
    289e:	21 91       	ld	r18, Z+
    28a0:	31 91       	ld	r19, Z+
    28a2:	ac 01       	movw	r20, r24
    28a4:	44 0f       	add	r20, r20
    28a6:	55 1f       	adc	r21, r21
    28a8:	88 0f       	add	r24, r24
    28aa:	99 1f       	adc	r25, r25
    28ac:	88 0f       	add	r24, r24
    28ae:	99 1f       	adc	r25, r25
    28b0:	88 0f       	add	r24, r24
    28b2:	99 1f       	adc	r25, r25
    28b4:	84 0f       	add	r24, r20
    28b6:	95 1f       	adc	r25, r21
    28b8:	82 0f       	add	r24, r18
    28ba:	93 1f       	adc	r25, r19
		   data = receiveByte(); transmitByte(data);
	       ini_mango[2] = (data & 0x0f); //
		    transmitByte(' ');
	       data = receiveByte(); transmitByte(data);
	       ini_mango[3] = (data & 0x0f);
		    for (int i=0;i<4;i++)
    28bc:	e6 17       	cp	r30, r22
    28be:	f7 07       	cpc	r31, r23
    28c0:	71 f7       	brne	.-36     	; 0x289e <menu+0x1c6>
    28c2:	90 93 8b 02 	sts	0x028B, r25	; 0x80028b <ini_mangowhole+0x1>
    28c6:	80 93 8a 02 	sts	0x028A, r24	; 0x80028a <ini_mangowhole>
		   {
			  ini_mangowhole=10*ini_mangowhole+ini_mango[i];
			    }
			   TX_NEWLINE;
    28ca:	8d e0       	ldi	r24, 0x0D	; 13
    28cc:	77 d9       	rcall	.-3346   	; 0x1bbc <transmitByte>
    28ce:	8a e0       	ldi	r24, 0x0A	; 10
    28d0:	75 d9       	rcall	.-3350   	; 0x1bbc <transmitByte>
			   transmitString_F(PSTR("MANGOES AVAILABLE ARE :"));
    28d2:	8f e5       	ldi	r24, 0x5F	; 95
    28d4:	92 e1       	ldi	r25, 0x12	; 18
    28d6:	76 d9       	rcall	.-3348   	; 0x1bc4 <transmitString_F>
			   transmitInt(ini_mango[0]);
    28d8:	ce e6       	ldi	r28, 0x6E	; 110
    28da:	d2 e0       	ldi	r29, 0x02	; 2
    28dc:	88 81       	ld	r24, Y
    28de:	92 d9       	rcall	.-3292   	; 0x1c04 <transmitInt>
			    transmitInt(ini_mango[1]);
    28e0:	8a 81       	ldd	r24, Y+2	; 0x02
    28e2:	90 d9       	rcall	.-3296   	; 0x1c04 <transmitInt>
				 transmitInt(ini_mango[2]);
    28e4:	8c 81       	ldd	r24, Y+4	; 0x04
    28e6:	8e d9       	rcall	.-3300   	; 0x1c04 <transmitInt>
				 transmitInt(ini_mango[3]);		  
    28e8:	8e 81       	ldd	r24, Y+6	; 0x06
    28ea:	8c d9       	rcall	.-3304   	; 0x1c04 <transmitInt>
	TX_NEWLINE;
    28ec:	8d e0       	ldi	r24, 0x0D	; 13
    28ee:	66 d9       	rcall	.-3380   	; 0x1bbc <transmitByte>
    28f0:	8a e0       	ldi	r24, 0x0A	; 10
    28f2:	64 d9       	rcall	.-3384   	; 0x1bbc <transmitByte>
	//////////////////////////
	 TX_NEWLINE;
    28f4:	8d e0       	ldi	r24, 0x0D	; 13
    28f6:	62 d9       	rcall	.-3388   	; 0x1bbc <transmitByte>
    28f8:	8a e0       	ldi	r24, 0x0A	; 10
    28fa:	60 d9       	rcall	.-3392   	; 0x1bbc <transmitByte>
    28fc:	8f e4       	ldi	r24, 0x4F	; 79
    28fe:	93 ec       	ldi	r25, 0xC3	; 195
    2900:	01 97       	sbiw	r24, 0x01	; 1
    2902:	f1 f7       	brne	.-4      	; 0x2900 <menu+0x228>
    2904:	00 c0       	rjmp	.+0      	; 0x2906 <menu+0x22e>
    2906:	00 00       	nop
			_delay_ms(200);
			TX_NEWLINE;
    2908:	8d e0       	ldi	r24, 0x0D	; 13
    290a:	58 d9       	rcall	.-3408   	; 0x1bbc <transmitByte>
    290c:	8a e0       	ldi	r24, 0x0A	; 10
    290e:	56 d9       	rcall	.-3412   	; 0x1bbc <transmitByte>
		    transmitString_F(PSTR("VALUES SHOULD BE BETWEEN 0000-9999"));
    2910:	8c e3       	ldi	r24, 0x3C	; 60
    2912:	92 e1       	ldi	r25, 0x12	; 18
    2914:	57 d9       	rcall	.-3410   	; 0x1bc4 <transmitString_F>
			TX_NEWLINE;
    2916:	8d e0       	ldi	r24, 0x0D	; 13
    2918:	51 d9       	rcall	.-3422   	; 0x1bbc <transmitByte>
    291a:	8a e0       	ldi	r24, 0x0A	; 10
    291c:	4f d9       	rcall	.-3426   	; 0x1bbc <transmitByte>
		   transmitString_F( PSTR(" Enter PINEAPPLES AVAILABLE:"));
    291e:	8f e1       	ldi	r24, 0x1F	; 31
    2920:	92 e1       	ldi	r25, 0x12	; 18
    2922:	50 d9       	rcall	.-3424   	; 0x1bc4 <transmitString_F>
		   TX_NEWLINE;
    2924:	8d e0       	ldi	r24, 0x0D	; 13
    2926:	4a d9       	rcall	.-3436   	; 0x1bbc <transmitByte>
    2928:	8a e0       	ldi	r24, 0x0A	; 10
    292a:	48 d9       	rcall	.-3440   	; 0x1bbc <transmitByte>
		  transmitByte(' ');
    292c:	80 e2       	ldi	r24, 0x20	; 32
    292e:	46 d9       	rcall	.-3444   	; 0x1bbc <transmitByte>
		   data = receiveByte(); transmitByte(data);
    2930:	41 d9       	rcall	.-3454   	; 0x1bb4 <receiveByte>
    2932:	80 93 af 02 	sts	0x02AF, r24	; 0x8002af <data>
    2936:	42 d9       	rcall	.-3452   	; 0x1bbc <transmitByte>
		   ini_pineapple[0] = (data & 0x0f); //
    2938:	ce e5       	ldi	r28, 0x5E	; 94
    293a:	d2 e0       	ldi	r29, 0x02	; 2
    293c:	80 91 af 02 	lds	r24, 0x02AF	; 0x8002af <data>
    2940:	8f 70       	andi	r24, 0x0F	; 15
    2942:	90 e0       	ldi	r25, 0x00	; 0
    2944:	99 83       	std	Y+1, r25	; 0x01
    2946:	88 83       	st	Y, r24
		    transmitByte(' ');	
    2948:	80 e2       	ldi	r24, 0x20	; 32
    294a:	38 d9       	rcall	.-3472   	; 0x1bbc <transmitByte>
			data = receiveByte(); transmitByte(data);
    294c:	33 d9       	rcall	.-3482   	; 0x1bb4 <receiveByte>
    294e:	80 93 af 02 	sts	0x02AF, r24	; 0x8002af <data>
    2952:	34 d9       	rcall	.-3480   	; 0x1bbc <transmitByte>
		   ini_pineapple[1] = (data & 0x0f); //
    2954:	80 91 af 02 	lds	r24, 0x02AF	; 0x8002af <data>
    2958:	8f 70       	andi	r24, 0x0F	; 15
    295a:	90 e0       	ldi	r25, 0x00	; 0
    295c:	9b 83       	std	Y+3, r25	; 0x03
    295e:	8a 83       	std	Y+2, r24	; 0x02
		    transmitByte(' ');	   
    2960:	80 e2       	ldi	r24, 0x20	; 32
    2962:	2c d9       	rcall	.-3496   	; 0x1bbc <transmitByte>
		   data = receiveByte(); transmitByte(data);
    2964:	27 d9       	rcall	.-3506   	; 0x1bb4 <receiveByte>
    2966:	80 93 af 02 	sts	0x02AF, r24	; 0x8002af <data>
    296a:	28 d9       	rcall	.-3504   	; 0x1bbc <transmitByte>
	       ini_pineapple[2] = (data & 0x0f); //
    296c:	80 91 af 02 	lds	r24, 0x02AF	; 0x8002af <data>
    2970:	8f 70       	andi	r24, 0x0F	; 15
    2972:	90 e0       	ldi	r25, 0x00	; 0
    2974:	9d 83       	std	Y+5, r25	; 0x05
    2976:	8c 83       	std	Y+4, r24	; 0x04
		    transmitByte(' ');
    2978:	80 e2       	ldi	r24, 0x20	; 32
    297a:	20 d9       	rcall	.-3520   	; 0x1bbc <transmitByte>
	       data = receiveByte(); transmitByte(data);
    297c:	1b d9       	rcall	.-3530   	; 0x1bb4 <receiveByte>
    297e:	80 93 af 02 	sts	0x02AF, r24	; 0x8002af <data>
    2982:	1c d9       	rcall	.-3528   	; 0x1bbc <transmitByte>
	       ini_pineapple[3] = (data & 0x0f);
    2984:	80 91 af 02 	lds	r24, 0x02AF	; 0x8002af <data>
    2988:	8f 70       	andi	r24, 0x0F	; 15
    298a:	90 e0       	ldi	r25, 0x00	; 0
    298c:	9f 83       	std	Y+7, r25	; 0x07
    298e:	8e 83       	std	Y+6, r24	; 0x06
    2990:	80 91 c8 02 	lds	r24, 0x02C8	; 0x8002c8 <ini_pineapplewhole>
    2994:	90 91 c9 02 	lds	r25, 0x02C9	; 0x8002c9 <ini_pineapplewhole+0x1>
    2998:	fe 01       	movw	r30, r28
    299a:	66 e6       	ldi	r22, 0x66	; 102
    299c:	72 e0       	ldi	r23, 0x02	; 2
		    for (int i=0;i<4;i++)
		   {
			  ini_pineapplewhole=10*ini_pineapplewhole+ini_pineapple[i];
    299e:	21 91       	ld	r18, Z+
    29a0:	31 91       	ld	r19, Z+
    29a2:	ac 01       	movw	r20, r24
    29a4:	44 0f       	add	r20, r20
    29a6:	55 1f       	adc	r21, r21
    29a8:	88 0f       	add	r24, r24
    29aa:	99 1f       	adc	r25, r25
    29ac:	88 0f       	add	r24, r24
    29ae:	99 1f       	adc	r25, r25
    29b0:	88 0f       	add	r24, r24
    29b2:	99 1f       	adc	r25, r25
    29b4:	84 0f       	add	r24, r20
    29b6:	95 1f       	adc	r25, r21
    29b8:	82 0f       	add	r24, r18
    29ba:	93 1f       	adc	r25, r19
		   data = receiveByte(); transmitByte(data);
	       ini_pineapple[2] = (data & 0x0f); //
		    transmitByte(' ');
	       data = receiveByte(); transmitByte(data);
	       ini_pineapple[3] = (data & 0x0f);
		    for (int i=0;i<4;i++)
    29bc:	e6 17       	cp	r30, r22
    29be:	f7 07       	cpc	r31, r23
    29c0:	71 f7       	brne	.-36     	; 0x299e <menu+0x2c6>
    29c2:	90 93 c9 02 	sts	0x02C9, r25	; 0x8002c9 <ini_pineapplewhole+0x1>
    29c6:	80 93 c8 02 	sts	0x02C8, r24	; 0x8002c8 <ini_pineapplewhole>
		   {
			  ini_pineapplewhole=10*ini_pineapplewhole+ini_pineapple[i];
			    }
			   TX_NEWLINE;
    29ca:	8d e0       	ldi	r24, 0x0D	; 13
    29cc:	f7 d8       	rcall	.-3602   	; 0x1bbc <transmitByte>
    29ce:	8a e0       	ldi	r24, 0x0A	; 10
    29d0:	f5 d8       	rcall	.-3606   	; 0x1bbc <transmitByte>
			   transmitString_F(PSTR("PINEAPPLES AVAILABLE ARE :"));
    29d2:	84 e0       	ldi	r24, 0x04	; 4
    29d4:	92 e1       	ldi	r25, 0x12	; 18
    29d6:	f6 d8       	rcall	.-3604   	; 0x1bc4 <transmitString_F>
			   transmitInt(ini_pineapple[0]);
    29d8:	ce e5       	ldi	r28, 0x5E	; 94
    29da:	d2 e0       	ldi	r29, 0x02	; 2
    29dc:	88 81       	ld	r24, Y
    29de:	12 d9       	rcall	.-3548   	; 0x1c04 <transmitInt>
			    transmitInt(ini_pineapple[1]);
    29e0:	8a 81       	ldd	r24, Y+2	; 0x02
    29e2:	10 d9       	rcall	.-3552   	; 0x1c04 <transmitInt>
				 transmitInt(ini_pineapple[2]);
    29e4:	8c 81       	ldd	r24, Y+4	; 0x04
    29e6:	0e d9       	rcall	.-3556   	; 0x1c04 <transmitInt>
				 transmitInt(ini_pineapple[3]);		  
    29e8:	8e 81       	ldd	r24, Y+6	; 0x06
    29ea:	0c d9       	rcall	.-3560   	; 0x1c04 <transmitInt>
	TX_NEWLINE;
    29ec:	8d e0       	ldi	r24, 0x0D	; 13
    29ee:	e6 d8       	rcall	.-3636   	; 0x1bbc <transmitByte>
    29f0:	8a e0       	ldi	r24, 0x0A	; 10
    29f2:	e4 d8       	rcall	.-3640   	; 0x1bbc <transmitByte>
	
	
	 TX_NEWLINE;
    29f4:	8d e0       	ldi	r24, 0x0D	; 13
    29f6:	e2 d8       	rcall	.-3644   	; 0x1bbc <transmitByte>
    29f8:	8a e0       	ldi	r24, 0x0A	; 10
    29fa:	e0 d8       	rcall	.-3648   	; 0x1bbc <transmitByte>
    29fc:	8f e4       	ldi	r24, 0x4F	; 79
    29fe:	93 ec       	ldi	r25, 0xC3	; 195
    2a00:	01 97       	sbiw	r24, 0x01	; 1
    2a02:	f1 f7       	brne	.-4      	; 0x2a00 <menu+0x328>
    2a04:	00 c0       	rjmp	.+0      	; 0x2a06 <menu+0x32e>
    2a06:	00 00       	nop
			_delay_ms(200);
			TX_NEWLINE;
    2a08:	8d e0       	ldi	r24, 0x0D	; 13
    2a0a:	d8 d8       	rcall	.-3664   	; 0x1bbc <transmitByte>
    2a0c:	8a e0       	ldi	r24, 0x0A	; 10
    2a0e:	d6 d8       	rcall	.-3668   	; 0x1bbc <transmitByte>
		    transmitString_F(PSTR("VALUES SHOULD BE BETWEEN 0000-9999"));
    2a10:	81 ee       	ldi	r24, 0xE1	; 225
    2a12:	91 e1       	ldi	r25, 0x11	; 17
    2a14:	d7 d8       	rcall	.-3666   	; 0x1bc4 <transmitString_F>
			TX_NEWLINE;
    2a16:	8d e0       	ldi	r24, 0x0D	; 13
    2a18:	d1 d8       	rcall	.-3678   	; 0x1bbc <transmitByte>
    2a1a:	8a e0       	ldi	r24, 0x0A	; 10
    2a1c:	cf d8       	rcall	.-3682   	; 0x1bbc <transmitByte>
		   transmitString_F( PSTR(" Enter APPLES AVAILABLE:"));
    2a1e:	88 ec       	ldi	r24, 0xC8	; 200
    2a20:	91 e1       	ldi	r25, 0x11	; 17
    2a22:	d0 d8       	rcall	.-3680   	; 0x1bc4 <transmitString_F>
		   TX_NEWLINE;
    2a24:	8d e0       	ldi	r24, 0x0D	; 13
    2a26:	ca d8       	rcall	.-3692   	; 0x1bbc <transmitByte>
    2a28:	8a e0       	ldi	r24, 0x0A	; 10
    2a2a:	c8 d8       	rcall	.-3696   	; 0x1bbc <transmitByte>
		  transmitByte(' ');
    2a2c:	80 e2       	ldi	r24, 0x20	; 32
    2a2e:	c6 d8       	rcall	.-3700   	; 0x1bbc <transmitByte>
		   data = receiveByte(); transmitByte(data);
    2a30:	c1 d8       	rcall	.-3710   	; 0x1bb4 <receiveByte>
    2a32:	80 93 af 02 	sts	0x02AF, r24	; 0x8002af <data>
    2a36:	c2 d8       	rcall	.-3708   	; 0x1bbc <transmitByte>
		   ini_apple[0] = (data & 0x0f); //
    2a38:	c6 e5       	ldi	r28, 0x56	; 86
    2a3a:	d2 e0       	ldi	r29, 0x02	; 2
    2a3c:	80 91 af 02 	lds	r24, 0x02AF	; 0x8002af <data>
    2a40:	8f 70       	andi	r24, 0x0F	; 15
    2a42:	90 e0       	ldi	r25, 0x00	; 0
    2a44:	99 83       	std	Y+1, r25	; 0x01
    2a46:	88 83       	st	Y, r24
		    transmitByte(' ');	
    2a48:	80 e2       	ldi	r24, 0x20	; 32
    2a4a:	b8 d8       	rcall	.-3728   	; 0x1bbc <transmitByte>
			data = receiveByte(); transmitByte(data);
    2a4c:	b3 d8       	rcall	.-3738   	; 0x1bb4 <receiveByte>
    2a4e:	80 93 af 02 	sts	0x02AF, r24	; 0x8002af <data>
    2a52:	b4 d8       	rcall	.-3736   	; 0x1bbc <transmitByte>
		   ini_apple[1] = (data & 0x0f); //
    2a54:	80 91 af 02 	lds	r24, 0x02AF	; 0x8002af <data>
    2a58:	8f 70       	andi	r24, 0x0F	; 15
    2a5a:	90 e0       	ldi	r25, 0x00	; 0
    2a5c:	9b 83       	std	Y+3, r25	; 0x03
    2a5e:	8a 83       	std	Y+2, r24	; 0x02
		    transmitByte(' ');	   
    2a60:	80 e2       	ldi	r24, 0x20	; 32
    2a62:	ac d8       	rcall	.-3752   	; 0x1bbc <transmitByte>
		   data = receiveByte(); transmitByte(data);
    2a64:	a7 d8       	rcall	.-3762   	; 0x1bb4 <receiveByte>
    2a66:	80 93 af 02 	sts	0x02AF, r24	; 0x8002af <data>
    2a6a:	a8 d8       	rcall	.-3760   	; 0x1bbc <transmitByte>
	       ini_apple[2] = (data & 0x0f); //
    2a6c:	80 91 af 02 	lds	r24, 0x02AF	; 0x8002af <data>
    2a70:	8f 70       	andi	r24, 0x0F	; 15
    2a72:	90 e0       	ldi	r25, 0x00	; 0
    2a74:	9d 83       	std	Y+5, r25	; 0x05
    2a76:	8c 83       	std	Y+4, r24	; 0x04
		    transmitByte(' ');
    2a78:	80 e2       	ldi	r24, 0x20	; 32
    2a7a:	a0 d8       	rcall	.-3776   	; 0x1bbc <transmitByte>
	       data = receiveByte(); transmitByte(data);
    2a7c:	9b d8       	rcall	.-3786   	; 0x1bb4 <receiveByte>
    2a7e:	80 93 af 02 	sts	0x02AF, r24	; 0x8002af <data>
    2a82:	9c d8       	rcall	.-3784   	; 0x1bbc <transmitByte>
	       ini_apple[3] = (data & 0x0f);
    2a84:	80 91 af 02 	lds	r24, 0x02AF	; 0x8002af <data>
    2a88:	8f 70       	andi	r24, 0x0F	; 15
    2a8a:	90 e0       	ldi	r25, 0x00	; 0
    2a8c:	9f 83       	std	Y+7, r25	; 0x07
    2a8e:	8e 83       	std	Y+6, r24	; 0x06
    2a90:	80 91 c2 02 	lds	r24, 0x02C2	; 0x8002c2 <ini_applewhole>
    2a94:	90 91 c3 02 	lds	r25, 0x02C3	; 0x8002c3 <ini_applewhole+0x1>
    2a98:	fe 01       	movw	r30, r28
    2a9a:	6e e5       	ldi	r22, 0x5E	; 94
    2a9c:	72 e0       	ldi	r23, 0x02	; 2
		    for (int i=0;i<4;i++)
		   {
			  ini_applewhole=10*ini_applewhole+ini_apple[i];
    2a9e:	21 91       	ld	r18, Z+
    2aa0:	31 91       	ld	r19, Z+
    2aa2:	ac 01       	movw	r20, r24
    2aa4:	44 0f       	add	r20, r20
    2aa6:	55 1f       	adc	r21, r21
    2aa8:	88 0f       	add	r24, r24
    2aaa:	99 1f       	adc	r25, r25
    2aac:	88 0f       	add	r24, r24
    2aae:	99 1f       	adc	r25, r25
    2ab0:	88 0f       	add	r24, r24
    2ab2:	99 1f       	adc	r25, r25
    2ab4:	84 0f       	add	r24, r20
    2ab6:	95 1f       	adc	r25, r21
    2ab8:	82 0f       	add	r24, r18
    2aba:	93 1f       	adc	r25, r19
		   data = receiveByte(); transmitByte(data);
	       ini_apple[2] = (data & 0x0f); //
		    transmitByte(' ');
	       data = receiveByte(); transmitByte(data);
	       ini_apple[3] = (data & 0x0f);
		    for (int i=0;i<4;i++)
    2abc:	e6 17       	cp	r30, r22
    2abe:	f7 07       	cpc	r31, r23
    2ac0:	71 f7       	brne	.-36     	; 0x2a9e <menu+0x3c6>
    2ac2:	90 93 c3 02 	sts	0x02C3, r25	; 0x8002c3 <ini_applewhole+0x1>
    2ac6:	80 93 c2 02 	sts	0x02C2, r24	; 0x8002c2 <ini_applewhole>
		   {
			  ini_applewhole=10*ini_applewhole+ini_apple[i];
			    }
			   TX_NEWLINE;
    2aca:	8d e0       	ldi	r24, 0x0D	; 13
    2acc:	77 d8       	rcall	.-3858   	; 0x1bbc <transmitByte>
    2ace:	8a e0       	ldi	r24, 0x0A	; 10
    2ad0:	75 d8       	rcall	.-3862   	; 0x1bbc <transmitByte>
			   transmitString_F(PSTR("APPLES AVAILABLE ARE :"));
    2ad2:	81 eb       	ldi	r24, 0xB1	; 177
    2ad4:	91 e1       	ldi	r25, 0x11	; 17
    2ad6:	76 d8       	rcall	.-3860   	; 0x1bc4 <transmitString_F>
			   transmitInt(ini_apple[0]);
    2ad8:	c6 e5       	ldi	r28, 0x56	; 86
    2ada:	d2 e0       	ldi	r29, 0x02	; 2
    2adc:	88 81       	ld	r24, Y
    2ade:	92 d8       	rcall	.-3804   	; 0x1c04 <transmitInt>
			    transmitInt(ini_apple[1]);
    2ae0:	8a 81       	ldd	r24, Y+2	; 0x02
    2ae2:	90 d8       	rcall	.-3808   	; 0x1c04 <transmitInt>
				 transmitInt(ini_apple[2]);
    2ae4:	8c 81       	ldd	r24, Y+4	; 0x04
    2ae6:	8e d8       	rcall	.-3812   	; 0x1c04 <transmitInt>
				 transmitInt(ini_apple[3]);		  
    2ae8:	8e 81       	ldd	r24, Y+6	; 0x06
    2aea:	8c d8       	rcall	.-3816   	; 0x1c04 <transmitInt>
	TX_NEWLINE;
    2aec:	8d e0       	ldi	r24, 0x0D	; 13
    2aee:	66 d8       	rcall	.-3892   	; 0x1bbc <transmitByte>
    2af0:	8a e0       	ldi	r24, 0x0A	; 10
    2af2:	64 d8       	rcall	.-3896   	; 0x1bbc <transmitByte>
	
	 TX_NEWLINE;
    2af4:	8d e0       	ldi	r24, 0x0D	; 13
    2af6:	62 d8       	rcall	.-3900   	; 0x1bbc <transmitByte>
    2af8:	8a e0       	ldi	r24, 0x0A	; 10
    2afa:	60 d8       	rcall	.-3904   	; 0x1bbc <transmitByte>
    2afc:	8f e4       	ldi	r24, 0x4F	; 79
    2afe:	93 ec       	ldi	r25, 0xC3	; 195
    2b00:	01 97       	sbiw	r24, 0x01	; 1
    2b02:	f1 f7       	brne	.-4      	; 0x2b00 <menu+0x428>
    2b04:	00 c0       	rjmp	.+0      	; 0x2b06 <menu+0x42e>
    2b06:	00 00       	nop
			_delay_ms(200);
			TX_NEWLINE;
    2b08:	8d e0       	ldi	r24, 0x0D	; 13
    2b0a:	58 d8       	rcall	.-3920   	; 0x1bbc <transmitByte>
    2b0c:	8a e0       	ldi	r24, 0x0A	; 10
    2b0e:	56 d8       	rcall	.-3924   	; 0x1bbc <transmitByte>
		    transmitString_F(PSTR("VALUES SHOULD BE BETWEEN 0000-9999"));
    2b10:	8e e8       	ldi	r24, 0x8E	; 142
    2b12:	91 e1       	ldi	r25, 0x11	; 17
    2b14:	57 d8       	rcall	.-3922   	; 0x1bc4 <transmitString_F>
			TX_NEWLINE;
    2b16:	8d e0       	ldi	r24, 0x0D	; 13
    2b18:	51 d8       	rcall	.-3934   	; 0x1bbc <transmitByte>
    2b1a:	8a e0       	ldi	r24, 0x0A	; 10
    2b1c:	4f d8       	rcall	.-3938   	; 0x1bbc <transmitByte>
		   transmitString_F( PSTR(" Enter GUAVAS AVAILABLE:"));
    2b1e:	85 e7       	ldi	r24, 0x75	; 117
    2b20:	91 e1       	ldi	r25, 0x11	; 17
    2b22:	50 d8       	rcall	.-3936   	; 0x1bc4 <transmitString_F>
		   TX_NEWLINE;
    2b24:	8d e0       	ldi	r24, 0x0D	; 13
    2b26:	4a d8       	rcall	.-3948   	; 0x1bbc <transmitByte>
    2b28:	8a e0       	ldi	r24, 0x0A	; 10
    2b2a:	48 d8       	rcall	.-3952   	; 0x1bbc <transmitByte>
		  transmitByte(' ');
    2b2c:	80 e2       	ldi	r24, 0x20	; 32
    2b2e:	46 d8       	rcall	.-3956   	; 0x1bbc <transmitByte>
		   data = receiveByte(); transmitByte(data);
    2b30:	41 d8       	rcall	.-3966   	; 0x1bb4 <receiveByte>
    2b32:	80 93 af 02 	sts	0x02AF, r24	; 0x8002af <data>
    2b36:	42 d8       	rcall	.-3964   	; 0x1bbc <transmitByte>
		   ini_guava[0] = (data & 0x0f); //
    2b38:	c6 e6       	ldi	r28, 0x66	; 102
    2b3a:	d2 e0       	ldi	r29, 0x02	; 2
    2b3c:	80 91 af 02 	lds	r24, 0x02AF	; 0x8002af <data>
    2b40:	8f 70       	andi	r24, 0x0F	; 15
    2b42:	90 e0       	ldi	r25, 0x00	; 0
    2b44:	99 83       	std	Y+1, r25	; 0x01
    2b46:	88 83       	st	Y, r24
		    transmitByte(' ');	
    2b48:	80 e2       	ldi	r24, 0x20	; 32
    2b4a:	38 d8       	rcall	.-3984   	; 0x1bbc <transmitByte>
			data = receiveByte(); transmitByte(data);
    2b4c:	33 d8       	rcall	.-3994   	; 0x1bb4 <receiveByte>
    2b4e:	80 93 af 02 	sts	0x02AF, r24	; 0x8002af <data>
    2b52:	34 d8       	rcall	.-3992   	; 0x1bbc <transmitByte>
		   ini_guava[1] = (data & 0x0f); //
    2b54:	80 91 af 02 	lds	r24, 0x02AF	; 0x8002af <data>
    2b58:	8f 70       	andi	r24, 0x0F	; 15
    2b5a:	90 e0       	ldi	r25, 0x00	; 0
    2b5c:	9b 83       	std	Y+3, r25	; 0x03
    2b5e:	8a 83       	std	Y+2, r24	; 0x02
		    transmitByte(' ');	   
    2b60:	80 e2       	ldi	r24, 0x20	; 32
    2b62:	2c d8       	rcall	.-4008   	; 0x1bbc <transmitByte>
		   data = receiveByte(); transmitByte(data);
    2b64:	27 d8       	rcall	.-4018   	; 0x1bb4 <receiveByte>
    2b66:	80 93 af 02 	sts	0x02AF, r24	; 0x8002af <data>
    2b6a:	28 d8       	rcall	.-4016   	; 0x1bbc <transmitByte>
	       ini_guava[2] = (data & 0x0f); //
    2b6c:	80 91 af 02 	lds	r24, 0x02AF	; 0x8002af <data>
    2b70:	8f 70       	andi	r24, 0x0F	; 15
    2b72:	90 e0       	ldi	r25, 0x00	; 0
    2b74:	9d 83       	std	Y+5, r25	; 0x05
    2b76:	8c 83       	std	Y+4, r24	; 0x04
		    transmitByte(' ');
    2b78:	80 e2       	ldi	r24, 0x20	; 32
    2b7a:	20 d8       	rcall	.-4032   	; 0x1bbc <transmitByte>
	       data = receiveByte(); transmitByte(data);
    2b7c:	1b d8       	rcall	.-4042   	; 0x1bb4 <receiveByte>
    2b7e:	80 93 af 02 	sts	0x02AF, r24	; 0x8002af <data>
    2b82:	1c d8       	rcall	.-4040   	; 0x1bbc <transmitByte>
	       ini_guava[3] = (data & 0x0f);
    2b84:	80 91 af 02 	lds	r24, 0x02AF	; 0x8002af <data>
    2b88:	8f 70       	andi	r24, 0x0F	; 15
    2b8a:	90 e0       	ldi	r25, 0x00	; 0
    2b8c:	9f 83       	std	Y+7, r25	; 0x07
    2b8e:	8e 83       	std	Y+6, r24	; 0x06
    2b90:	80 91 96 02 	lds	r24, 0x0296	; 0x800296 <ini_guavawhole>
    2b94:	90 91 97 02 	lds	r25, 0x0297	; 0x800297 <ini_guavawhole+0x1>
    2b98:	fe 01       	movw	r30, r28
    2b9a:	6e e6       	ldi	r22, 0x6E	; 110
    2b9c:	72 e0       	ldi	r23, 0x02	; 2
		    for (int i=0;i<4;i++)
		   {
			  ini_guavawhole=10*ini_guavawhole+ini_guava[i];
    2b9e:	21 91       	ld	r18, Z+
    2ba0:	31 91       	ld	r19, Z+
    2ba2:	ac 01       	movw	r20, r24
    2ba4:	44 0f       	add	r20, r20
    2ba6:	55 1f       	adc	r21, r21
    2ba8:	88 0f       	add	r24, r24
    2baa:	99 1f       	adc	r25, r25
    2bac:	88 0f       	add	r24, r24
    2bae:	99 1f       	adc	r25, r25
    2bb0:	88 0f       	add	r24, r24
    2bb2:	99 1f       	adc	r25, r25
    2bb4:	84 0f       	add	r24, r20
    2bb6:	95 1f       	adc	r25, r21
    2bb8:	82 0f       	add	r24, r18
    2bba:	93 1f       	adc	r25, r19
		   data = receiveByte(); transmitByte(data);
	       ini_guava[2] = (data & 0x0f); //
		    transmitByte(' ');
	       data = receiveByte(); transmitByte(data);
	       ini_guava[3] = (data & 0x0f);
		    for (int i=0;i<4;i++)
    2bbc:	e6 17       	cp	r30, r22
    2bbe:	f7 07       	cpc	r31, r23
    2bc0:	71 f7       	brne	.-36     	; 0x2b9e <menu+0x4c6>
    2bc2:	90 93 97 02 	sts	0x0297, r25	; 0x800297 <ini_guavawhole+0x1>
    2bc6:	80 93 96 02 	sts	0x0296, r24	; 0x800296 <ini_guavawhole>
		   {
			  ini_guavawhole=10*ini_guavawhole+ini_guava[i];
			    }
			   TX_NEWLINE;
    2bca:	8d e0       	ldi	r24, 0x0D	; 13
    2bcc:	0e 94 de 0d 	call	0x1bbc	; 0x1bbc <transmitByte>
    2bd0:	8a e0       	ldi	r24, 0x0A	; 10
    2bd2:	0e 94 de 0d 	call	0x1bbc	; 0x1bbc <transmitByte>
			   transmitString_F(PSTR("GUAVAS AVAILABLE ARE :"));
    2bd6:	8e e5       	ldi	r24, 0x5E	; 94
    2bd8:	91 e1       	ldi	r25, 0x11	; 17
    2bda:	0e 94 e2 0d 	call	0x1bc4	; 0x1bc4 <transmitString_F>
			   transmitInt(ini_guava[0]);
    2bde:	c6 e6       	ldi	r28, 0x66	; 102
    2be0:	d2 e0       	ldi	r29, 0x02	; 2
    2be2:	88 81       	ld	r24, Y
    2be4:	0f d8       	rcall	.-4066   	; 0x1c04 <transmitInt>
			    transmitInt(ini_guava[1]);
    2be6:	8a 81       	ldd	r24, Y+2	; 0x02
    2be8:	0d d8       	rcall	.-4070   	; 0x1c04 <transmitInt>
				 transmitInt(ini_guava[2]);
    2bea:	8c 81       	ldd	r24, Y+4	; 0x04
    2bec:	0b d8       	rcall	.-4074   	; 0x1c04 <transmitInt>
				 transmitInt(ini_guava[3]);		  
    2bee:	8e 81       	ldd	r24, Y+6	; 0x06
    2bf0:	09 d8       	rcall	.-4078   	; 0x1c04 <transmitInt>
	TX_NEWLINE;
    2bf2:	8d e0       	ldi	r24, 0x0D	; 13
    2bf4:	0e 94 de 0d 	call	0x1bbc	; 0x1bbc <transmitByte>
    2bf8:	8a e0       	ldi	r24, 0x0A	; 10
    2bfa:	0e 94 de 0d 	call	0x1bbc	; 0x1bbc <transmitByte>
	
	
	///////////////////////////////////////////////////////////////////
	
	
	TX_NEWLINE;
    2bfe:	8d e0       	ldi	r24, 0x0D	; 13
    2c00:	0e 94 de 0d 	call	0x1bbc	; 0x1bbc <transmitByte>
    2c04:	8a e0       	ldi	r24, 0x0A	; 10
    2c06:	0e 94 de 0d 	call	0x1bbc	; 0x1bbc <transmitByte>
	transmitString_F(PSTR(" PLEASE SELECT FRUITS TO MIX."));
    2c0a:	80 e4       	ldi	r24, 0x40	; 64
    2c0c:	91 e1       	ldi	r25, 0x11	; 17
    2c0e:	0e 94 e2 0d 	call	0x1bc4	; 0x1bc4 <transmitString_F>
	TX_NEWLINE;
    2c12:	8d e0       	ldi	r24, 0x0D	; 13
    2c14:	0e 94 de 0d 	call	0x1bbc	; 0x1bbc <transmitByte>
    2c18:	8a e0       	ldi	r24, 0x0A	; 10
    2c1a:	0e 94 de 0d 	call	0x1bbc	; 0x1bbc <transmitByte>
	transmitString_F(PSTR(" 1 :Oranges + Mangoes + Pineapple + Apples."));
    2c1e:	84 e1       	ldi	r24, 0x14	; 20
    2c20:	91 e1       	ldi	r25, 0x11	; 17
    2c22:	0e 94 e2 0d 	call	0x1bc4	; 0x1bc4 <transmitString_F>
	TX_NEWLINE;
    2c26:	8d e0       	ldi	r24, 0x0D	; 13
    2c28:	0e 94 de 0d 	call	0x1bbc	; 0x1bbc <transmitByte>
    2c2c:	8a e0       	ldi	r24, 0x0A	; 10
    2c2e:	0e 94 de 0d 	call	0x1bbc	; 0x1bbc <transmitByte>
	transmitString_F(PSTR(" 2 :Oranges + Mangoes + Pineapple + Guavas."));
    2c32:	88 ee       	ldi	r24, 0xE8	; 232
    2c34:	90 e1       	ldi	r25, 0x10	; 16
    2c36:	0e 94 e2 0d 	call	0x1bc4	; 0x1bc4 <transmitString_F>
	TX_NEWLINE;
    2c3a:	8d e0       	ldi	r24, 0x0D	; 13
    2c3c:	0e 94 de 0d 	call	0x1bbc	; 0x1bbc <transmitByte>
    2c40:	8a e0       	ldi	r24, 0x0A	; 10
    2c42:	0e 94 de 0d 	call	0x1bbc	; 0x1bbc <transmitByte>
	transmitString_F(PSTR(" 3 :Oranges + Mangoes + Apples + Guavas."));
    2c46:	8f eb       	ldi	r24, 0xBF	; 191
    2c48:	90 e1       	ldi	r25, 0x10	; 16
    2c4a:	0e 94 e2 0d 	call	0x1bc4	; 0x1bc4 <transmitString_F>
	TX_NEWLINE;
    2c4e:	8d e0       	ldi	r24, 0x0D	; 13
    2c50:	0e 94 de 0d 	call	0x1bbc	; 0x1bbc <transmitByte>
    2c54:	8a e0       	ldi	r24, 0x0A	; 10
    2c56:	0e 94 de 0d 	call	0x1bbc	; 0x1bbc <transmitByte>
	transmitString_F(PSTR(" 4 :Oranges + Pineapple + Apples + Guavas."));
    2c5a:	84 e9       	ldi	r24, 0x94	; 148
    2c5c:	90 e1       	ldi	r25, 0x10	; 16
    2c5e:	0e 94 e2 0d 	call	0x1bc4	; 0x1bc4 <transmitString_F>
	TX_NEWLINE;
    2c62:	8d e0       	ldi	r24, 0x0D	; 13
    2c64:	0e 94 de 0d 	call	0x1bbc	; 0x1bbc <transmitByte>
    2c68:	8a e0       	ldi	r24, 0x0A	; 10
    2c6a:	0e 94 de 0d 	call	0x1bbc	; 0x1bbc <transmitByte>
	transmitString_F(PSTR(" 5 :Mangoes + Pineapple + Apples + Guavas."));
    2c6e:	89 e6       	ldi	r24, 0x69	; 105
    2c70:	90 e1       	ldi	r25, 0x10	; 16
    2c72:	0e 94 e2 0d 	call	0x1bc4	; 0x1bc4 <transmitString_F>
	TX_NEWLINE;
    2c76:	8d e0       	ldi	r24, 0x0D	; 13
    2c78:	0e 94 de 0d 	call	0x1bbc	; 0x1bbc <transmitByte>
    2c7c:	8a e0       	ldi	r24, 0x0A	; 10
    2c7e:	0e 94 de 0d 	call	0x1bbc	; 0x1bbc <transmitByte>
	transmitString_F(PSTR("  Select Option ( 1 - 5 ): "));
    2c82:	8d e4       	ldi	r24, 0x4D	; 77
    2c84:	90 e1       	ldi	r25, 0x10	; 16
    2c86:	0e 94 e2 0d 	call	0x1bc4	; 0x1bc4 <transmitString_F>
	TX_NEWLINE;
    2c8a:	8d e0       	ldi	r24, 0x0D	; 13
    2c8c:	0e 94 de 0d 	call	0x1bbc	; 0x1bbc <transmitByte>
    2c90:	8a e0       	ldi	r24, 0x0A	; 10
    2c92:	0e 94 de 0d 	call	0x1bbc	; 0x1bbc <transmitByte>
	storagecontainer=150;
    2c96:	86 e9       	ldi	r24, 0x96	; 150
    2c98:	90 e0       	ldi	r25, 0x00	; 0
    2c9a:	90 93 bf 02 	sts	0x02BF, r25	; 0x8002bf <storagecontainer+0x1>
    2c9e:	80 93 be 02 	sts	0x02BE, r24	; 0x8002be <storagecontainer>
	transmitByte(' ');
    2ca2:	80 e2       	ldi	r24, 0x20	; 32
    2ca4:	0e 94 de 0d 	call	0x1bbc	; 0x1bbc <transmitByte>
	option1 = receiveByte();
    2ca8:	0e 94 da 0d 	call	0x1bb4	; 0x1bb4 <receiveByte>
    2cac:	80 93 a0 02 	sts	0x02A0, r24	; 0x8002a0 <option1>
	TX_NEWLINE;
    2cb0:	8d e0       	ldi	r24, 0x0D	; 13
    2cb2:	0e 94 de 0d 	call	0x1bbc	; 0x1bbc <transmitByte>
    2cb6:	8a e0       	ldi	r24, 0x0A	; 10
    2cb8:	0e 94 de 0d 	call	0x1bbc	; 0x1bbc <transmitByte>
	
	switch(option1){
    2cbc:	80 91 a0 02 	lds	r24, 0x02A0	; 0x8002a0 <option1>
    2cc0:	83 33       	cpi	r24, 0x33	; 51
    2cc2:	09 f4       	brne	.+2      	; 0x2cc6 <menu+0x5ee>
    2cc4:	f0 c5       	rjmp	.+3040   	; 0x38a6 <menu+0x11ce>
    2cc6:	38 f4       	brcc	.+14     	; 0x2cd6 <menu+0x5fe>
    2cc8:	81 33       	cpi	r24, 0x31	; 49
    2cca:	79 f0       	breq	.+30     	; 0x2cea <menu+0x612>
    2ccc:	82 33       	cpi	r24, 0x32	; 50
    2cce:	09 f4       	brne	.+2      	; 0x2cd2 <menu+0x5fa>
    2cd0:	fe c2       	rjmp	.+1532   	; 0x32ce <menu+0xbf6>
    2cd2:	0c 94 2c 25 	jmp	0x4a58	; 0x4a58 <menu+0x2380>
    2cd6:	84 33       	cpi	r24, 0x34	; 52
    2cd8:	11 f4       	brne	.+4      	; 0x2cde <menu+0x606>
    2cda:	0c 94 44 1f 	jmp	0x3e88	; 0x3e88 <menu+0x17b0>
    2cde:	85 33       	cpi	r24, 0x35	; 53
    2ce0:	11 f4       	brne	.+4      	; 0x2ce6 <menu+0x60e>
    2ce2:	0c 94 2f 22 	jmp	0x445e	; 0x445e <menu+0x1d86>
    2ce6:	0c 94 2c 25 	jmp	0x4a58	; 0x4a58 <menu+0x2380>
		case '1':TX_NEWLINE;
    2cea:	8d e0       	ldi	r24, 0x0D	; 13
    2cec:	0e 94 de 0d 	call	0x1bbc	; 0x1bbc <transmitByte>
    2cf0:	8a e0       	ldi	r24, 0x0A	; 10
    2cf2:	0e 94 de 0d 	call	0x1bbc	; 0x1bbc <transmitByte>
    2cf6:	8f e4       	ldi	r24, 0x4F	; 79
    2cf8:	93 ec       	ldi	r25, 0xC3	; 195
    2cfa:	01 97       	sbiw	r24, 0x01	; 1
    2cfc:	f1 f7       	brne	.-4      	; 0x2cfa <menu+0x622>
    2cfe:	00 c0       	rjmp	.+0      	; 0x2d00 <menu+0x628>
    2d00:	00 00       	nop
		_delay_ms(200);
		currentguavas1=ini_guavawhole;
    2d02:	80 91 96 02 	lds	r24, 0x0296	; 0x800296 <ini_guavawhole>
    2d06:	90 91 97 02 	lds	r25, 0x0297	; 0x800297 <ini_guavawhole+0x1>
    2d0a:	80 93 a5 02 	sts	0x02A5, r24	; 0x8002a5 <currentguavas1>
    2d0e:	90 93 a6 02 	sts	0x02A6, r25	; 0x8002a6 <currentguavas1+0x1>
    2d12:	ec e1       	ldi	r30, 0x1C	; 28
    2d14:	f2 e0       	ldi	r31, 0x02	; 2
    2d16:	c4 e1       	ldi	r28, 0x14	; 20
    2d18:	d2 e0       	ldi	r29, 0x02	; 2
		currentguavas=currentguavas1;
		 for (int i = 3; i >= 0; i--)
		 {
			 currentguavasarray[i] = currentguavas% 10;
    2d1a:	2a e0       	ldi	r18, 0x0A	; 10
    2d1c:	30 e0       	ldi	r19, 0x00	; 0
    2d1e:	b9 01       	movw	r22, r18
    2d20:	0e 94 db 2d 	call	0x5bb6	; 0x5bb6 <__divmodhi4>
    2d24:	92 93       	st	-Z, r25
    2d26:	82 93       	st	-Z, r24
			 currentguavas = currentguavas/ 10;
    2d28:	86 2f       	mov	r24, r22
    2d2a:	97 2f       	mov	r25, r23
	switch(option1){
		case '1':TX_NEWLINE;
		_delay_ms(200);
		currentguavas1=ini_guavawhole;
		currentguavas=currentguavas1;
		 for (int i = 3; i >= 0; i--)
    2d2c:	ec 17       	cp	r30, r28
    2d2e:	fd 07       	cpc	r31, r29
    2d30:	b1 f7       	brne	.-20     	; 0x2d1e <menu+0x646>
    2d32:	60 93 b2 02 	sts	0x02B2, r22	; 0x8002b2 <currentguavas>
    2d36:	70 93 b3 02 	sts	0x02B3, r23	; 0x8002b3 <currentguavas+0x1>
		 {
			 currentguavasarray[i] = currentguavas% 10;
			 currentguavas = currentguavas/ 10;
		 }
		TX_NEWLINE;
    2d3a:	8d e0       	ldi	r24, 0x0D	; 13
    2d3c:	0e 94 de 0d 	call	0x1bbc	; 0x1bbc <transmitByte>
    2d40:	8a e0       	ldi	r24, 0x0A	; 10
    2d42:	0e 94 de 0d 	call	0x1bbc	; 0x1bbc <transmitByte>
		    transmitString_F(PSTR("PERCENTAGES FOR THE FOUR FRUITS SHOULD TOTAL TO 100"));
    2d46:	89 e1       	ldi	r24, 0x19	; 25
    2d48:	90 e1       	ldi	r25, 0x10	; 16
    2d4a:	0e 94 e2 0d 	call	0x1bc4	; 0x1bc4 <transmitString_F>
			TX_NEWLINE;
    2d4e:	8d e0       	ldi	r24, 0x0D	; 13
    2d50:	0e 94 de 0d 	call	0x1bbc	; 0x1bbc <transmitByte>
    2d54:	8a e0       	ldi	r24, 0x0A	; 10
    2d56:	0e 94 de 0d 	call	0x1bbc	; 0x1bbc <transmitByte>
		transmitString_F(PSTR("You have selected the first category of fruits"));
    2d5a:	8a ee       	ldi	r24, 0xEA	; 234
    2d5c:	9f e0       	ldi	r25, 0x0F	; 15
    2d5e:	0e 94 e2 0d 	call	0x1bc4	; 0x1bc4 <transmitString_F>
		TX_NEWLINE;
    2d62:	8d e0       	ldi	r24, 0x0D	; 13
    2d64:	0e 94 de 0d 	call	0x1bbc	; 0x1bbc <transmitByte>
    2d68:	8a e0       	ldi	r24, 0x0A	; 10
    2d6a:	0e 94 de 0d 	call	0x1bbc	; 0x1bbc <transmitByte>
		transmitString_F(PSTR("Enter the percentage of oranges"));
    2d6e:	8a ec       	ldi	r24, 0xCA	; 202
    2d70:	9f e0       	ldi	r25, 0x0F	; 15
    2d72:	0e 94 e2 0d 	call	0x1bc4	; 0x1bc4 <transmitString_F>
		TX_NEWLINE;
    2d76:	8d e0       	ldi	r24, 0x0D	; 13
    2d78:	0e 94 de 0d 	call	0x1bbc	; 0x1bbc <transmitByte>
    2d7c:	8a e0       	ldi	r24, 0x0A	; 10
    2d7e:	0e 94 de 0d 	call	0x1bbc	; 0x1bbc <transmitByte>
		 TX_NEWLINE;
    2d82:	8d e0       	ldi	r24, 0x0D	; 13
    2d84:	0e 94 de 0d 	call	0x1bbc	; 0x1bbc <transmitByte>
    2d88:	8a e0       	ldi	r24, 0x0A	; 10
    2d8a:	0e 94 de 0d 	call	0x1bbc	; 0x1bbc <transmitByte>
		  transmitByte(' ');
    2d8e:	80 e2       	ldi	r24, 0x20	; 32
    2d90:	0e 94 de 0d 	call	0x1bbc	; 0x1bbc <transmitByte>
		   data= receiveByte(); transmitByte(data);
    2d94:	0e 94 da 0d 	call	0x1bb4	; 0x1bb4 <receiveByte>
    2d98:	80 93 af 02 	sts	0x02AF, r24	; 0x8002af <data>
    2d9c:	0e 94 de 0d 	call	0x1bbc	; 0x1bbc <transmitByte>
		   orangespercentage[0] = (data & 0x0f); //
    2da0:	c2 e5       	ldi	r28, 0x52	; 82
    2da2:	d2 e0       	ldi	r29, 0x02	; 2
    2da4:	80 91 af 02 	lds	r24, 0x02AF	; 0x8002af <data>
    2da8:	8f 70       	andi	r24, 0x0F	; 15
    2daa:	90 e0       	ldi	r25, 0x00	; 0
    2dac:	99 83       	std	Y+1, r25	; 0x01
    2dae:	88 83       	st	Y, r24
		  
		    transmitByte(' ');	
    2db0:	80 e2       	ldi	r24, 0x20	; 32
    2db2:	0e 94 de 0d 	call	0x1bbc	; 0x1bbc <transmitByte>
			data = receiveByte(); transmitByte(data);
    2db6:	0e 94 da 0d 	call	0x1bb4	; 0x1bb4 <receiveByte>
    2dba:	80 93 af 02 	sts	0x02AF, r24	; 0x8002af <data>
    2dbe:	0e 94 de 0d 	call	0x1bbc	; 0x1bbc <transmitByte>
		   orangespercentage[1] = (data & 0x0f); //
    2dc2:	20 91 af 02 	lds	r18, 0x02AF	; 0x8002af <data>
    2dc6:	2f 70       	andi	r18, 0x0F	; 15
    2dc8:	62 2f       	mov	r22, r18
    2dca:	70 e0       	ldi	r23, 0x00	; 0
    2dcc:	7b 83       	std	Y+3, r23	; 0x03
    2dce:	6a 83       	std	Y+2, r22	; 0x02
		   for (int i=0;i<2;i++)
		   {
			   orangespercentagewhole=10*orangespercentagewhole+orangespercentage[i];
    2dd0:	20 91 cc 02 	lds	r18, 0x02CC	; 0x8002cc <orangespercentagewhole>
    2dd4:	30 91 cd 02 	lds	r19, 0x02CD	; 0x8002cd <orangespercentagewhole+0x1>
    2dd8:	c9 01       	movw	r24, r18
    2dda:	88 0f       	add	r24, r24
    2ddc:	99 1f       	adc	r25, r25
    2dde:	22 0f       	add	r18, r18
    2de0:	33 1f       	adc	r19, r19
    2de2:	22 0f       	add	r18, r18
    2de4:	33 1f       	adc	r19, r19
    2de6:	22 0f       	add	r18, r18
    2de8:	33 1f       	adc	r19, r19
    2dea:	82 0f       	add	r24, r18
    2dec:	93 1f       	adc	r25, r19
    2dee:	48 81       	ld	r20, Y
    2df0:	59 81       	ldd	r21, Y+1	; 0x01
    2df2:	84 0f       	add	r24, r20
    2df4:	95 1f       	adc	r25, r21
    2df6:	9c 01       	movw	r18, r24
    2df8:	22 0f       	add	r18, r18
    2dfa:	33 1f       	adc	r19, r19
    2dfc:	88 0f       	add	r24, r24
    2dfe:	99 1f       	adc	r25, r25
    2e00:	88 0f       	add	r24, r24
    2e02:	99 1f       	adc	r25, r25
    2e04:	88 0f       	add	r24, r24
    2e06:	99 1f       	adc	r25, r25
    2e08:	82 0f       	add	r24, r18
    2e0a:	93 1f       	adc	r25, r19
    2e0c:	9b 01       	movw	r18, r22
    2e0e:	28 0f       	add	r18, r24
    2e10:	39 1f       	adc	r19, r25
    2e12:	30 93 cd 02 	sts	0x02CD, r19	; 0x8002cd <orangespercentagewhole+0x1>
    2e16:	20 93 cc 02 	sts	0x02CC, r18	; 0x8002cc <orangespercentagewhole>
		   }
		   currentoranges1=ini_orangewhole-(orangespercentagewhole*30);
    2e1a:	62 ee       	ldi	r22, 0xE2	; 226
    2e1c:	62 03       	mulsu	r22, r18
    2e1e:	a0 01       	movw	r20, r0
    2e20:	63 9f       	mul	r22, r19
    2e22:	50 0d       	add	r21, r0
    2e24:	11 24       	eor	r1, r1
    2e26:	80 91 b6 02 	lds	r24, 0x02B6	; 0x8002b6 <ini_orangewhole>
    2e2a:	90 91 b7 02 	lds	r25, 0x02B7	; 0x8002b7 <ini_orangewhole+0x1>
    2e2e:	84 0f       	add	r24, r20
    2e30:	95 1f       	adc	r25, r21
    2e32:	90 93 81 02 	sts	0x0281, r25	; 0x800281 <currentoranges1+0x1>
    2e36:	80 93 80 02 	sts	0x0280, r24	; 0x800280 <currentoranges1>
    2e3a:	ec e3       	ldi	r30, 0x3C	; 60
    2e3c:	f2 e0       	ldi	r31, 0x02	; 2
    2e3e:	c4 e3       	ldi	r28, 0x34	; 52
    2e40:	d2 e0       	ldi	r29, 0x02	; 2
		   currentoranges=currentoranges1;
		   ////////////////////////////////
		   for (int i = 3; i >= 0; i--)
{
   currentorangesarray[i] = currentoranges % 10;
    2e42:	2a e0       	ldi	r18, 0x0A	; 10
    2e44:	30 e0       	ldi	r19, 0x00	; 0
    2e46:	b9 01       	movw	r22, r18
    2e48:	0e 94 db 2d 	call	0x5bb6	; 0x5bb6 <__divmodhi4>
    2e4c:	92 93       	st	-Z, r25
    2e4e:	82 93       	st	-Z, r24
    currentoranges = currentoranges/ 10;
    2e50:	86 2f       	mov	r24, r22
    2e52:	97 2f       	mov	r25, r23
			   orangespercentagewhole=10*orangespercentagewhole+orangespercentage[i];
		   }
		   currentoranges1=ini_orangewhole-(orangespercentagewhole*30);
		   currentoranges=currentoranges1;
		   ////////////////////////////////
		   for (int i = 3; i >= 0; i--)
    2e54:	ec 17       	cp	r30, r28
    2e56:	fd 07       	cpc	r31, r29
    2e58:	b1 f7       	brne	.-20     	; 0x2e46 <menu+0x76e>
    2e5a:	90 93 c1 02 	sts	0x02C1, r25	; 0x8002c1 <currentoranges+0x1>
    2e5e:	80 93 c0 02 	sts	0x02C0, r24	; 0x8002c0 <currentoranges>
{
   currentorangesarray[i] = currentoranges % 10;
    currentoranges = currentoranges/ 10;
}
  TX_NEWLINE;
    2e62:	8d e0       	ldi	r24, 0x0D	; 13
    2e64:	0e 94 de 0d 	call	0x1bbc	; 0x1bbc <transmitByte>
    2e68:	8a e0       	ldi	r24, 0x0A	; 10
    2e6a:	0e 94 de 0d 	call	0x1bbc	; 0x1bbc <transmitByte>
			   transmitString_F(PSTR("ORANGES REMAINING ARE :"));
    2e6e:	82 eb       	ldi	r24, 0xB2	; 178
    2e70:	9f e0       	ldi	r25, 0x0F	; 15
    2e72:	0e 94 e2 0d 	call	0x1bc4	; 0x1bc4 <transmitString_F>
			   transmitInt(currentorangesarray[0]);
    2e76:	c4 e3       	ldi	r28, 0x34	; 52
    2e78:	d2 e0       	ldi	r29, 0x02	; 2
    2e7a:	88 81       	ld	r24, Y
    2e7c:	0e 94 02 0e 	call	0x1c04	; 0x1c04 <transmitInt>
			    transmitInt(currentorangesarray[1]);
    2e80:	8a 81       	ldd	r24, Y+2	; 0x02
    2e82:	0e 94 02 0e 	call	0x1c04	; 0x1c04 <transmitInt>
				 transmitInt(currentorangesarray[2]);
    2e86:	8c 81       	ldd	r24, Y+4	; 0x04
    2e88:	0e 94 02 0e 	call	0x1c04	; 0x1c04 <transmitInt>
				 transmitInt(currentorangesarray[3]);		  
    2e8c:	8e 81       	ldd	r24, Y+6	; 0x06
    2e8e:	0e 94 02 0e 	call	0x1c04	; 0x1c04 <transmitInt>
	TX_NEWLINE;
    2e92:	8d e0       	ldi	r24, 0x0D	; 13
    2e94:	0e 94 de 0d 	call	0x1bbc	; 0x1bbc <transmitByte>
    2e98:	8a e0       	ldi	r24, 0x0A	; 10
    2e9a:	0e 94 de 0d 	call	0x1bbc	; 0x1bbc <transmitByte>
		   
		   
		   ////////////////////////////////
		   
		 TX_NEWLINE;
    2e9e:	8d e0       	ldi	r24, 0x0D	; 13
    2ea0:	0e 94 de 0d 	call	0x1bbc	; 0x1bbc <transmitByte>
    2ea4:	8a e0       	ldi	r24, 0x0A	; 10
    2ea6:	0e 94 de 0d 	call	0x1bbc	; 0x1bbc <transmitByte>
			   transmitString_F(PSTR("Orange percentage selected:"));
    2eaa:	86 e9       	ldi	r24, 0x96	; 150
    2eac:	9f e0       	ldi	r25, 0x0F	; 15
    2eae:	0e 94 e2 0d 	call	0x1bc4	; 0x1bc4 <transmitString_F>
			   transmitInt(orangespercentage[0]);
    2eb2:	c2 e5       	ldi	r28, 0x52	; 82
    2eb4:	d2 e0       	ldi	r29, 0x02	; 2
    2eb6:	88 81       	ld	r24, Y
    2eb8:	0e 94 02 0e 	call	0x1c04	; 0x1c04 <transmitInt>
			    transmitInt(orangespercentage[1]);
    2ebc:	8a 81       	ldd	r24, Y+2	; 0x02
    2ebe:	0e 94 02 0e 	call	0x1c04	; 0x1c04 <transmitInt>
				//////////////////////////////////////////////////////////////////
				 TX_NEWLINE;
    2ec2:	8d e0       	ldi	r24, 0x0D	; 13
    2ec4:	0e 94 de 0d 	call	0x1bbc	; 0x1bbc <transmitByte>
    2ec8:	8a e0       	ldi	r24, 0x0A	; 10
    2eca:	0e 94 de 0d 	call	0x1bbc	; 0x1bbc <transmitByte>
				transmitString_F(PSTR("Enter the percentage of mangoes"));
    2ece:	86 e7       	ldi	r24, 0x76	; 118
    2ed0:	9f e0       	ldi	r25, 0x0F	; 15
    2ed2:	0e 94 e2 0d 	call	0x1bc4	; 0x1bc4 <transmitString_F>
		TX_NEWLINE;
    2ed6:	8d e0       	ldi	r24, 0x0D	; 13
    2ed8:	0e 94 de 0d 	call	0x1bbc	; 0x1bbc <transmitByte>
    2edc:	8a e0       	ldi	r24, 0x0A	; 10
    2ede:	0e 94 de 0d 	call	0x1bbc	; 0x1bbc <transmitByte>
		 TX_NEWLINE;
    2ee2:	8d e0       	ldi	r24, 0x0D	; 13
    2ee4:	0e 94 de 0d 	call	0x1bbc	; 0x1bbc <transmitByte>
    2ee8:	8a e0       	ldi	r24, 0x0A	; 10
    2eea:	0e 94 de 0d 	call	0x1bbc	; 0x1bbc <transmitByte>
		  transmitByte(' ');
    2eee:	80 e2       	ldi	r24, 0x20	; 32
    2ef0:	0e 94 de 0d 	call	0x1bbc	; 0x1bbc <transmitByte>
		   data= receiveByte(); transmitByte(data);
    2ef4:	0e 94 da 0d 	call	0x1bb4	; 0x1bb4 <receiveByte>
    2ef8:	80 93 af 02 	sts	0x02AF, r24	; 0x8002af <data>
    2efc:	0e 94 de 0d 	call	0x1bbc	; 0x1bbc <transmitByte>
		   mangoespercentage[0] = (data & 0x0f); //
    2f00:	ce e4       	ldi	r28, 0x4E	; 78
    2f02:	d2 e0       	ldi	r29, 0x02	; 2
    2f04:	80 91 af 02 	lds	r24, 0x02AF	; 0x8002af <data>
    2f08:	8f 70       	andi	r24, 0x0F	; 15
    2f0a:	90 e0       	ldi	r25, 0x00	; 0
    2f0c:	99 83       	std	Y+1, r25	; 0x01
    2f0e:	88 83       	st	Y, r24
		  
		    transmitByte(' ');	
    2f10:	80 e2       	ldi	r24, 0x20	; 32
    2f12:	0e 94 de 0d 	call	0x1bbc	; 0x1bbc <transmitByte>
			data = receiveByte(); transmitByte(data);
    2f16:	0e 94 da 0d 	call	0x1bb4	; 0x1bb4 <receiveByte>
    2f1a:	80 93 af 02 	sts	0x02AF, r24	; 0x8002af <data>
    2f1e:	0e 94 de 0d 	call	0x1bbc	; 0x1bbc <transmitByte>
		   mangoespercentage[1] = (data & 0x0f); //
    2f22:	20 91 af 02 	lds	r18, 0x02AF	; 0x8002af <data>
    2f26:	2f 70       	andi	r18, 0x0F	; 15
    2f28:	62 2f       	mov	r22, r18
    2f2a:	70 e0       	ldi	r23, 0x00	; 0
    2f2c:	7b 83       	std	Y+3, r23	; 0x03
    2f2e:	6a 83       	std	Y+2, r22	; 0x02
		    for (int i=0;i<2;i++)
		   {
			   mangoespercentagewhole=10*mangoespercentagewhole+mangoespercentage[i];
    2f30:	20 91 ca 02 	lds	r18, 0x02CA	; 0x8002ca <mangoespercentagewhole>
    2f34:	30 91 cb 02 	lds	r19, 0x02CB	; 0x8002cb <mangoespercentagewhole+0x1>
    2f38:	c9 01       	movw	r24, r18
    2f3a:	88 0f       	add	r24, r24
    2f3c:	99 1f       	adc	r25, r25
    2f3e:	22 0f       	add	r18, r18
    2f40:	33 1f       	adc	r19, r19
    2f42:	22 0f       	add	r18, r18
    2f44:	33 1f       	adc	r19, r19
    2f46:	22 0f       	add	r18, r18
    2f48:	33 1f       	adc	r19, r19
    2f4a:	82 0f       	add	r24, r18
    2f4c:	93 1f       	adc	r25, r19
    2f4e:	48 81       	ld	r20, Y
    2f50:	59 81       	ldd	r21, Y+1	; 0x01
    2f52:	84 0f       	add	r24, r20
    2f54:	95 1f       	adc	r25, r21
    2f56:	9c 01       	movw	r18, r24
    2f58:	22 0f       	add	r18, r18
    2f5a:	33 1f       	adc	r19, r19
    2f5c:	88 0f       	add	r24, r24
    2f5e:	99 1f       	adc	r25, r25
    2f60:	88 0f       	add	r24, r24
    2f62:	99 1f       	adc	r25, r25
    2f64:	88 0f       	add	r24, r24
    2f66:	99 1f       	adc	r25, r25
    2f68:	82 0f       	add	r24, r18
    2f6a:	93 1f       	adc	r25, r19
    2f6c:	9b 01       	movw	r18, r22
    2f6e:	28 0f       	add	r18, r24
    2f70:	39 1f       	adc	r19, r25
    2f72:	30 93 cb 02 	sts	0x02CB, r19	; 0x8002cb <mangoespercentagewhole+0x1>
    2f76:	20 93 ca 02 	sts	0x02CA, r18	; 0x8002ca <mangoespercentagewhole>
		   }
		   	   currentmangoes1=ini_mangowhole-(mangoespercentagewhole*30);
    2f7a:	62 ee       	ldi	r22, 0xE2	; 226
    2f7c:	62 03       	mulsu	r22, r18
    2f7e:	a0 01       	movw	r20, r0
    2f80:	63 9f       	mul	r22, r19
    2f82:	50 0d       	add	r21, r0
    2f84:	11 24       	eor	r1, r1
    2f86:	80 91 8a 02 	lds	r24, 0x028A	; 0x80028a <ini_mangowhole>
    2f8a:	90 91 8b 02 	lds	r25, 0x028B	; 0x80028b <ini_mangowhole+0x1>
    2f8e:	84 0f       	add	r24, r20
    2f90:	95 1f       	adc	r25, r21
    2f92:	90 93 85 02 	sts	0x0285, r25	; 0x800285 <currentmangoes1+0x1>
    2f96:	80 93 84 02 	sts	0x0284, r24	; 0x800284 <currentmangoes1>
    2f9a:	e4 e3       	ldi	r30, 0x34	; 52
    2f9c:	f2 e0       	ldi	r31, 0x02	; 2
    2f9e:	cc e2       	ldi	r28, 0x2C	; 44
    2fa0:	d2 e0       	ldi	r29, 0x02	; 2
				  currentmangoes=currentmangoes1;
		   ////////////////////////////////
		   for (int i = 3; i >= 0; i--)
{
   currentmangoesarray[i] = currentmangoes % 10;
    2fa2:	2a e0       	ldi	r18, 0x0A	; 10
    2fa4:	30 e0       	ldi	r19, 0x00	; 0
    2fa6:	b9 01       	movw	r22, r18
    2fa8:	0e 94 db 2d 	call	0x5bb6	; 0x5bb6 <__divmodhi4>
    2fac:	92 93       	st	-Z, r25
    2fae:	82 93       	st	-Z, r24
    currentmangoes = currentmangoes/ 10;
    2fb0:	86 2f       	mov	r24, r22
    2fb2:	97 2f       	mov	r25, r23
			   mangoespercentagewhole=10*mangoespercentagewhole+mangoespercentage[i];
		   }
		   	   currentmangoes1=ini_mangowhole-(mangoespercentagewhole*30);
				  currentmangoes=currentmangoes1;
		   ////////////////////////////////
		   for (int i = 3; i >= 0; i--)
    2fb4:	ec 17       	cp	r30, r28
    2fb6:	fd 07       	cpc	r31, r29
    2fb8:	b1 f7       	brne	.-20     	; 0x2fa6 <menu+0x8ce>
    2fba:	90 93 90 02 	sts	0x0290, r25	; 0x800290 <currentmangoes+0x1>
    2fbe:	80 93 8f 02 	sts	0x028F, r24	; 0x80028f <currentmangoes>
{
   currentmangoesarray[i] = currentmangoes % 10;
    currentmangoes = currentmangoes/ 10;
}
  TX_NEWLINE;
    2fc2:	8d e0       	ldi	r24, 0x0D	; 13
    2fc4:	0e 94 de 0d 	call	0x1bbc	; 0x1bbc <transmitByte>
    2fc8:	8a e0       	ldi	r24, 0x0A	; 10
    2fca:	0e 94 de 0d 	call	0x1bbc	; 0x1bbc <transmitByte>
			   transmitString_F(PSTR("MANGOES REMAINING ARE :"));
    2fce:	8e e5       	ldi	r24, 0x5E	; 94
    2fd0:	9f e0       	ldi	r25, 0x0F	; 15
    2fd2:	0e 94 e2 0d 	call	0x1bc4	; 0x1bc4 <transmitString_F>
			   transmitInt(currentmangoesarray[0]);
    2fd6:	cc e2       	ldi	r28, 0x2C	; 44
    2fd8:	d2 e0       	ldi	r29, 0x02	; 2
    2fda:	88 81       	ld	r24, Y
    2fdc:	0e 94 02 0e 	call	0x1c04	; 0x1c04 <transmitInt>
			    transmitInt(currentmangoesarray[1]);
    2fe0:	8a 81       	ldd	r24, Y+2	; 0x02
    2fe2:	0e 94 02 0e 	call	0x1c04	; 0x1c04 <transmitInt>
				 transmitInt(currentmangoesarray[2]);
    2fe6:	8c 81       	ldd	r24, Y+4	; 0x04
    2fe8:	0e 94 02 0e 	call	0x1c04	; 0x1c04 <transmitInt>
				 transmitInt(currentmangoesarray[3]);		  
    2fec:	8e 81       	ldd	r24, Y+6	; 0x06
    2fee:	0e 94 02 0e 	call	0x1c04	; 0x1c04 <transmitInt>
	TX_NEWLINE;
    2ff2:	8d e0       	ldi	r24, 0x0D	; 13
    2ff4:	0e 94 de 0d 	call	0x1bbc	; 0x1bbc <transmitByte>
    2ff8:	8a e0       	ldi	r24, 0x0A	; 10
    2ffa:	0e 94 de 0d 	call	0x1bbc	; 0x1bbc <transmitByte>
		 TX_NEWLINE;
    2ffe:	8d e0       	ldi	r24, 0x0D	; 13
    3000:	0e 94 de 0d 	call	0x1bbc	; 0x1bbc <transmitByte>
    3004:	8a e0       	ldi	r24, 0x0A	; 10
    3006:	0e 94 de 0d 	call	0x1bbc	; 0x1bbc <transmitByte>
			   transmitString_F(PSTR("Mangoes percentage selected:"));
    300a:	81 e4       	ldi	r24, 0x41	; 65
    300c:	9f e0       	ldi	r25, 0x0F	; 15
    300e:	0e 94 e2 0d 	call	0x1bc4	; 0x1bc4 <transmitString_F>
			   transmitInt(mangoespercentage[0]);
    3012:	ce e4       	ldi	r28, 0x4E	; 78
    3014:	d2 e0       	ldi	r29, 0x02	; 2
    3016:	88 81       	ld	r24, Y
    3018:	0e 94 02 0e 	call	0x1c04	; 0x1c04 <transmitInt>
			    transmitInt(mangoespercentage[1]);
    301c:	8a 81       	ldd	r24, Y+2	; 0x02
    301e:	0e 94 02 0e 	call	0x1c04	; 0x1c04 <transmitInt>
				
				//////////////////////////////////////////////////////////////
				 TX_NEWLINE;
    3022:	8d e0       	ldi	r24, 0x0D	; 13
    3024:	0e 94 de 0d 	call	0x1bbc	; 0x1bbc <transmitByte>
    3028:	8a e0       	ldi	r24, 0x0A	; 10
    302a:	0e 94 de 0d 	call	0x1bbc	; 0x1bbc <transmitByte>
						transmitString_F(PSTR("Enter the percentage of pineapples"));
    302e:	8e e1       	ldi	r24, 0x1E	; 30
    3030:	9f e0       	ldi	r25, 0x0F	; 15
    3032:	0e 94 e2 0d 	call	0x1bc4	; 0x1bc4 <transmitString_F>
		 TX_NEWLINE; 
    3036:	8d e0       	ldi	r24, 0x0D	; 13
    3038:	0e 94 de 0d 	call	0x1bbc	; 0x1bbc <transmitByte>
    303c:	8a e0       	ldi	r24, 0x0A	; 10
    303e:	0e 94 de 0d 	call	0x1bbc	; 0x1bbc <transmitByte>
		  transmitByte(' ');
    3042:	80 e2       	ldi	r24, 0x20	; 32
    3044:	0e 94 de 0d 	call	0x1bbc	; 0x1bbc <transmitByte>
		   data= receiveByte(); transmitByte(data);
    3048:	0e 94 da 0d 	call	0x1bb4	; 0x1bb4 <receiveByte>
    304c:	80 93 af 02 	sts	0x02AF, r24	; 0x8002af <data>
    3050:	0e 94 de 0d 	call	0x1bbc	; 0x1bbc <transmitByte>
		   pineapplespercentage[0] = (data & 0x0f); //
    3054:	c6 e4       	ldi	r28, 0x46	; 70
    3056:	d2 e0       	ldi	r29, 0x02	; 2
    3058:	80 91 af 02 	lds	r24, 0x02AF	; 0x8002af <data>
    305c:	8f 70       	andi	r24, 0x0F	; 15
    305e:	90 e0       	ldi	r25, 0x00	; 0
    3060:	99 83       	std	Y+1, r25	; 0x01
    3062:	88 83       	st	Y, r24
		  
		    transmitByte(' ');	
    3064:	80 e2       	ldi	r24, 0x20	; 32
    3066:	0e 94 de 0d 	call	0x1bbc	; 0x1bbc <transmitByte>
			data = receiveByte(); transmitByte(data);
    306a:	0e 94 da 0d 	call	0x1bb4	; 0x1bb4 <receiveByte>
    306e:	80 93 af 02 	sts	0x02AF, r24	; 0x8002af <data>
    3072:	0e 94 de 0d 	call	0x1bbc	; 0x1bbc <transmitByte>
		   pineapplespercentage[1] = (data & 0x0f); //
    3076:	20 91 af 02 	lds	r18, 0x02AF	; 0x8002af <data>
    307a:	2f 70       	andi	r18, 0x0F	; 15
    307c:	62 2f       	mov	r22, r18
    307e:	70 e0       	ldi	r23, 0x00	; 0
    3080:	7b 83       	std	Y+3, r23	; 0x03
    3082:	6a 83       	std	Y+2, r22	; 0x02
		     for (int i=0;i<2;i++)
		   {
			   pineapplespercentagewhole=10*pineapplespercentagewhole+pineapplespercentage[i];
    3084:	20 91 9a 02 	lds	r18, 0x029A	; 0x80029a <pineapplespercentagewhole>
    3088:	30 91 9b 02 	lds	r19, 0x029B	; 0x80029b <pineapplespercentagewhole+0x1>
    308c:	c9 01       	movw	r24, r18
    308e:	88 0f       	add	r24, r24
    3090:	99 1f       	adc	r25, r25
    3092:	22 0f       	add	r18, r18
    3094:	33 1f       	adc	r19, r19
    3096:	22 0f       	add	r18, r18
    3098:	33 1f       	adc	r19, r19
    309a:	22 0f       	add	r18, r18
    309c:	33 1f       	adc	r19, r19
    309e:	82 0f       	add	r24, r18
    30a0:	93 1f       	adc	r25, r19
    30a2:	48 81       	ld	r20, Y
    30a4:	59 81       	ldd	r21, Y+1	; 0x01
    30a6:	84 0f       	add	r24, r20
    30a8:	95 1f       	adc	r25, r21
    30aa:	9c 01       	movw	r18, r24
    30ac:	22 0f       	add	r18, r18
    30ae:	33 1f       	adc	r19, r19
    30b0:	88 0f       	add	r24, r24
    30b2:	99 1f       	adc	r25, r25
    30b4:	88 0f       	add	r24, r24
    30b6:	99 1f       	adc	r25, r25
    30b8:	88 0f       	add	r24, r24
    30ba:	99 1f       	adc	r25, r25
    30bc:	82 0f       	add	r24, r18
    30be:	93 1f       	adc	r25, r19
    30c0:	9b 01       	movw	r18, r22
    30c2:	28 0f       	add	r18, r24
    30c4:	39 1f       	adc	r19, r25
    30c6:	30 93 9b 02 	sts	0x029B, r19	; 0x80029b <pineapplespercentagewhole+0x1>
    30ca:	20 93 9a 02 	sts	0x029A, r18	; 0x80029a <pineapplespercentagewhole>
		   }
		   	   currentpineapples1=ini_pineapplewhole-(pineapplespercentagewhole*30);
    30ce:	62 ee       	ldi	r22, 0xE2	; 226
    30d0:	62 03       	mulsu	r22, r18
    30d2:	a0 01       	movw	r20, r0
    30d4:	63 9f       	mul	r22, r19
    30d6:	50 0d       	add	r21, r0
    30d8:	11 24       	eor	r1, r1
    30da:	80 91 c8 02 	lds	r24, 0x02C8	; 0x8002c8 <ini_pineapplewhole>
    30de:	90 91 c9 02 	lds	r25, 0x02C9	; 0x8002c9 <ini_pineapplewhole+0x1>
    30e2:	84 0f       	add	r24, r20
    30e4:	95 1f       	adc	r25, r21
    30e6:	90 93 b1 02 	sts	0x02B1, r25	; 0x8002b1 <currentpineapples1+0x1>
    30ea:	80 93 b0 02 	sts	0x02B0, r24	; 0x8002b0 <currentpineapples1>
    30ee:	e4 e2       	ldi	r30, 0x24	; 36
    30f0:	f2 e0       	ldi	r31, 0x02	; 2
    30f2:	cc e1       	ldi	r28, 0x1C	; 28
    30f4:	d2 e0       	ldi	r29, 0x02	; 2
				  currentpineapples=currentpineapples1;
		   ////////////////////////////////
		   for (int i = 3; i >= 0; i--)
{
   currentpineapplesarray[i] = currentpineapples% 10;
    30f6:	2a e0       	ldi	r18, 0x0A	; 10
    30f8:	30 e0       	ldi	r19, 0x00	; 0
    30fa:	b9 01       	movw	r22, r18
    30fc:	0e 94 db 2d 	call	0x5bb6	; 0x5bb6 <__divmodhi4>
    3100:	92 93       	st	-Z, r25
    3102:	82 93       	st	-Z, r24
    currentpineapples = currentpineapples/ 10;
    3104:	86 2f       	mov	r24, r22
    3106:	97 2f       	mov	r25, r23
			   pineapplespercentagewhole=10*pineapplespercentagewhole+pineapplespercentage[i];
		   }
		   	   currentpineapples1=ini_pineapplewhole-(pineapplespercentagewhole*30);
				  currentpineapples=currentpineapples1;
		   ////////////////////////////////
		   for (int i = 3; i >= 0; i--)
    3108:	ec 17       	cp	r30, r28
    310a:	fd 07       	cpc	r31, r29
    310c:	b1 f7       	brne	.-20     	; 0x30fa <menu+0xa22>
    310e:	90 93 c7 02 	sts	0x02C7, r25	; 0x8002c7 <currentpineapples+0x1>
    3112:	80 93 c6 02 	sts	0x02C6, r24	; 0x8002c6 <currentpineapples>
{
   currentpineapplesarray[i] = currentpineapples% 10;
    currentpineapples = currentpineapples/ 10;
}
  TX_NEWLINE;
    3116:	8d e0       	ldi	r24, 0x0D	; 13
    3118:	0e 94 de 0d 	call	0x1bbc	; 0x1bbc <transmitByte>
    311c:	8a e0       	ldi	r24, 0x0A	; 10
    311e:	0e 94 de 0d 	call	0x1bbc	; 0x1bbc <transmitByte>
			   transmitString_F(PSTR("PINEAPPLES REMAINING ARE :"));
    3122:	83 e0       	ldi	r24, 0x03	; 3
    3124:	9f e0       	ldi	r25, 0x0F	; 15
    3126:	0e 94 e2 0d 	call	0x1bc4	; 0x1bc4 <transmitString_F>
			   transmitInt(currentpineapplesarray[0]);
    312a:	cc e1       	ldi	r28, 0x1C	; 28
    312c:	d2 e0       	ldi	r29, 0x02	; 2
    312e:	88 81       	ld	r24, Y
    3130:	0e 94 02 0e 	call	0x1c04	; 0x1c04 <transmitInt>
			    transmitInt(currentpineapplesarray[1]);
    3134:	8a 81       	ldd	r24, Y+2	; 0x02
    3136:	0e 94 02 0e 	call	0x1c04	; 0x1c04 <transmitInt>
				 transmitInt(currentpineapplesarray[2]);
    313a:	8c 81       	ldd	r24, Y+4	; 0x04
    313c:	0e 94 02 0e 	call	0x1c04	; 0x1c04 <transmitInt>
				 transmitInt(currentpineapplesarray[3]);		  
    3140:	8e 81       	ldd	r24, Y+6	; 0x06
    3142:	0e 94 02 0e 	call	0x1c04	; 0x1c04 <transmitInt>
				 
		 TX_NEWLINE;
    3146:	8d e0       	ldi	r24, 0x0D	; 13
    3148:	0e 94 de 0d 	call	0x1bbc	; 0x1bbc <transmitByte>
    314c:	8a e0       	ldi	r24, 0x0A	; 10
    314e:	0e 94 de 0d 	call	0x1bbc	; 0x1bbc <transmitByte>
			   transmitString_F(PSTR("Pineapples percentage selected:"));
    3152:	83 ee       	ldi	r24, 0xE3	; 227
    3154:	9e e0       	ldi	r25, 0x0E	; 14
    3156:	0e 94 e2 0d 	call	0x1bc4	; 0x1bc4 <transmitString_F>
			   transmitInt(pineapplespercentage[0]);
    315a:	c6 e4       	ldi	r28, 0x46	; 70
    315c:	d2 e0       	ldi	r29, 0x02	; 2
    315e:	88 81       	ld	r24, Y
    3160:	0e 94 02 0e 	call	0x1c04	; 0x1c04 <transmitInt>
			    transmitInt(pineapplespercentage[1]);
    3164:	8a 81       	ldd	r24, Y+2	; 0x02
    3166:	0e 94 02 0e 	call	0x1c04	; 0x1c04 <transmitInt>
				//////////////////////////////////////////////
				 TX_NEWLINE;
    316a:	8d e0       	ldi	r24, 0x0D	; 13
    316c:	0e 94 de 0d 	call	0x1bbc	; 0x1bbc <transmitByte>
    3170:	8a e0       	ldi	r24, 0x0A	; 10
    3172:	0e 94 de 0d 	call	0x1bbc	; 0x1bbc <transmitByte>
						transmitString_F(PSTR("Enter the percentage of apples"));
    3176:	84 ec       	ldi	r24, 0xC4	; 196
    3178:	9e e0       	ldi	r25, 0x0E	; 14
    317a:	0e 94 e2 0d 	call	0x1bc4	; 0x1bc4 <transmitString_F>
		TX_NEWLINE;
    317e:	8d e0       	ldi	r24, 0x0D	; 13
    3180:	0e 94 de 0d 	call	0x1bbc	; 0x1bbc <transmitByte>
    3184:	8a e0       	ldi	r24, 0x0A	; 10
    3186:	0e 94 de 0d 	call	0x1bbc	; 0x1bbc <transmitByte>
		 TX_NEWLINE;
    318a:	8d e0       	ldi	r24, 0x0D	; 13
    318c:	0e 94 de 0d 	call	0x1bbc	; 0x1bbc <transmitByte>
    3190:	8a e0       	ldi	r24, 0x0A	; 10
    3192:	0e 94 de 0d 	call	0x1bbc	; 0x1bbc <transmitByte>
		  transmitByte(' ');
    3196:	80 e2       	ldi	r24, 0x20	; 32
    3198:	0e 94 de 0d 	call	0x1bbc	; 0x1bbc <transmitByte>
		   data= receiveByte(); transmitByte(data);
    319c:	0e 94 da 0d 	call	0x1bb4	; 0x1bb4 <receiveByte>
    31a0:	80 93 af 02 	sts	0x02AF, r24	; 0x8002af <data>
    31a4:	0e 94 de 0d 	call	0x1bbc	; 0x1bbc <transmitByte>
		   applespercentage[0] = (data & 0x0f); //
    31a8:	c2 e4       	ldi	r28, 0x42	; 66
    31aa:	d2 e0       	ldi	r29, 0x02	; 2
    31ac:	80 91 af 02 	lds	r24, 0x02AF	; 0x8002af <data>
    31b0:	8f 70       	andi	r24, 0x0F	; 15
    31b2:	90 e0       	ldi	r25, 0x00	; 0
    31b4:	99 83       	std	Y+1, r25	; 0x01
    31b6:	88 83       	st	Y, r24
		  
		    transmitByte(' ');	
    31b8:	80 e2       	ldi	r24, 0x20	; 32
    31ba:	0e 94 de 0d 	call	0x1bbc	; 0x1bbc <transmitByte>
			data = receiveByte(); transmitByte(data);
    31be:	0e 94 da 0d 	call	0x1bb4	; 0x1bb4 <receiveByte>
    31c2:	80 93 af 02 	sts	0x02AF, r24	; 0x8002af <data>
    31c6:	0e 94 de 0d 	call	0x1bbc	; 0x1bbc <transmitByte>
		   applespercentage[1] = (data & 0x0f); //
    31ca:	20 91 af 02 	lds	r18, 0x02AF	; 0x8002af <data>
    31ce:	2f 70       	andi	r18, 0x0F	; 15
    31d0:	62 2f       	mov	r22, r18
    31d2:	70 e0       	ldi	r23, 0x00	; 0
    31d4:	7b 83       	std	Y+3, r23	; 0x03
    31d6:	6a 83       	std	Y+2, r22	; 0x02
		     for (int i=0;i<2;i++)
		   {
			   applespercentagewhole=10*applespercentagewhole+applespercentage[i];
    31d8:	20 91 91 02 	lds	r18, 0x0291	; 0x800291 <applespercentagewhole>
    31dc:	30 91 92 02 	lds	r19, 0x0292	; 0x800292 <applespercentagewhole+0x1>
    31e0:	c9 01       	movw	r24, r18
    31e2:	88 0f       	add	r24, r24
    31e4:	99 1f       	adc	r25, r25
    31e6:	22 0f       	add	r18, r18
    31e8:	33 1f       	adc	r19, r19
    31ea:	22 0f       	add	r18, r18
    31ec:	33 1f       	adc	r19, r19
    31ee:	22 0f       	add	r18, r18
    31f0:	33 1f       	adc	r19, r19
    31f2:	82 0f       	add	r24, r18
    31f4:	93 1f       	adc	r25, r19
    31f6:	48 81       	ld	r20, Y
    31f8:	59 81       	ldd	r21, Y+1	; 0x01
    31fa:	84 0f       	add	r24, r20
    31fc:	95 1f       	adc	r25, r21
    31fe:	9c 01       	movw	r18, r24
    3200:	22 0f       	add	r18, r18
    3202:	33 1f       	adc	r19, r19
    3204:	88 0f       	add	r24, r24
    3206:	99 1f       	adc	r25, r25
    3208:	88 0f       	add	r24, r24
    320a:	99 1f       	adc	r25, r25
    320c:	88 0f       	add	r24, r24
    320e:	99 1f       	adc	r25, r25
    3210:	82 0f       	add	r24, r18
    3212:	93 1f       	adc	r25, r19
    3214:	9b 01       	movw	r18, r22
    3216:	28 0f       	add	r18, r24
    3218:	39 1f       	adc	r19, r25
    321a:	30 93 92 02 	sts	0x0292, r19	; 0x800292 <applespercentagewhole+0x1>
    321e:	20 93 91 02 	sts	0x0291, r18	; 0x800291 <applespercentagewhole>
		   }
		   	   currentapples1=ini_applewhole-(applespercentagewhole*30);
    3222:	62 ee       	ldi	r22, 0xE2	; 226
    3224:	62 03       	mulsu	r22, r18
    3226:	a0 01       	movw	r20, r0
    3228:	63 9f       	mul	r22, r19
    322a:	50 0d       	add	r21, r0
    322c:	11 24       	eor	r1, r1
    322e:	80 91 c2 02 	lds	r24, 0x02C2	; 0x8002c2 <ini_applewhole>
    3232:	90 91 c3 02 	lds	r25, 0x02C3	; 0x8002c3 <ini_applewhole+0x1>
    3236:	84 0f       	add	r24, r20
    3238:	95 1f       	adc	r25, r21
    323a:	90 93 cf 02 	sts	0x02CF, r25	; 0x8002cf <currentapples1+0x1>
    323e:	80 93 ce 02 	sts	0x02CE, r24	; 0x8002ce <currentapples1>
    3242:	ec e2       	ldi	r30, 0x2C	; 44
    3244:	f2 e0       	ldi	r31, 0x02	; 2
    3246:	c4 e2       	ldi	r28, 0x24	; 36
    3248:	d2 e0       	ldi	r29, 0x02	; 2
				  currentapples=currentapples1;
		   ////////////////////////////////
		   for (int i = 3; i >= 0; i--)
{
   currentapplesarray[i] = currentapples % 10;
    324a:	2a e0       	ldi	r18, 0x0A	; 10
    324c:	30 e0       	ldi	r19, 0x00	; 0
    324e:	b9 01       	movw	r22, r18
    3250:	0e 94 db 2d 	call	0x5bb6	; 0x5bb6 <__divmodhi4>
    3254:	92 93       	st	-Z, r25
    3256:	82 93       	st	-Z, r24
    currentapples = currentapples/ 10;
    3258:	86 2f       	mov	r24, r22
    325a:	97 2f       	mov	r25, r23
			   applespercentagewhole=10*applespercentagewhole+applespercentage[i];
		   }
		   	   currentapples1=ini_applewhole-(applespercentagewhole*30);
				  currentapples=currentapples1;
		   ////////////////////////////////
		   for (int i = 3; i >= 0; i--)
    325c:	ec 17       	cp	r30, r28
    325e:	fd 07       	cpc	r31, r29
    3260:	b1 f7       	brne	.-20     	; 0x324e <menu+0xb76>
    3262:	90 93 b5 02 	sts	0x02B5, r25	; 0x8002b5 <currentapples+0x1>
    3266:	80 93 b4 02 	sts	0x02B4, r24	; 0x8002b4 <currentapples>
{
   currentapplesarray[i] = currentapples % 10;
    currentapples = currentapples/ 10;
}
  TX_NEWLINE;
    326a:	8d e0       	ldi	r24, 0x0D	; 13
    326c:	0e 94 de 0d 	call	0x1bbc	; 0x1bbc <transmitByte>
    3270:	8a e0       	ldi	r24, 0x0A	; 10
    3272:	0e 94 de 0d 	call	0x1bbc	; 0x1bbc <transmitByte>
			   transmitString_F(PSTR("APPLES REMAINING ARE :"));
    3276:	8d ea       	ldi	r24, 0xAD	; 173
    3278:	9e e0       	ldi	r25, 0x0E	; 14
    327a:	0e 94 e2 0d 	call	0x1bc4	; 0x1bc4 <transmitString_F>
			   transmitInt(currentapplesarray[0]);
    327e:	c4 e2       	ldi	r28, 0x24	; 36
    3280:	d2 e0       	ldi	r29, 0x02	; 2
    3282:	88 81       	ld	r24, Y
    3284:	0e 94 02 0e 	call	0x1c04	; 0x1c04 <transmitInt>
			    transmitInt(currentapplesarray[1]);
    3288:	8a 81       	ldd	r24, Y+2	; 0x02
    328a:	0e 94 02 0e 	call	0x1c04	; 0x1c04 <transmitInt>
				 transmitInt(currentapplesarray[2]);
    328e:	8c 81       	ldd	r24, Y+4	; 0x04
    3290:	0e 94 02 0e 	call	0x1c04	; 0x1c04 <transmitInt>
				 transmitInt(currentapplesarray[3]);		  
    3294:	8e 81       	ldd	r24, Y+6	; 0x06
    3296:	0e 94 02 0e 	call	0x1c04	; 0x1c04 <transmitInt>
	TX_NEWLINE;
    329a:	8d e0       	ldi	r24, 0x0D	; 13
    329c:	0e 94 de 0d 	call	0x1bbc	; 0x1bbc <transmitByte>
    32a0:	8a e0       	ldi	r24, 0x0A	; 10
    32a2:	0e 94 de 0d 	call	0x1bbc	; 0x1bbc <transmitByte>
		 TX_NEWLINE;
    32a6:	8d e0       	ldi	r24, 0x0D	; 13
    32a8:	0e 94 de 0d 	call	0x1bbc	; 0x1bbc <transmitByte>
    32ac:	8a e0       	ldi	r24, 0x0A	; 10
    32ae:	0e 94 de 0d 	call	0x1bbc	; 0x1bbc <transmitByte>
			   transmitString_F(PSTR("apples percentage selected:"));
    32b2:	81 e9       	ldi	r24, 0x91	; 145
    32b4:	9e e0       	ldi	r25, 0x0E	; 14
    32b6:	0e 94 e2 0d 	call	0x1bc4	; 0x1bc4 <transmitString_F>
			   transmitInt(applespercentage[0]);
    32ba:	c2 e4       	ldi	r28, 0x42	; 66
    32bc:	d2 e0       	ldi	r29, 0x02	; 2
    32be:	88 81       	ld	r24, Y
    32c0:	0e 94 02 0e 	call	0x1c04	; 0x1c04 <transmitInt>
			    transmitInt(applespercentage[1]);
    32c4:	8a 81       	ldd	r24, Y+2	; 0x02
    32c6:	0e 94 02 0e 	call	0x1c04	; 0x1c04 <transmitInt>
				
				
				
				//////////////////////////
				
		break;
    32ca:	0c 94 40 25 	jmp	0x4a80	; 0x4a80 <menu+0x23a8>
		///////////////////////////////////////////////////////
		case '2':TX_NEWLINE;
    32ce:	8d e0       	ldi	r24, 0x0D	; 13
    32d0:	0e 94 de 0d 	call	0x1bbc	; 0x1bbc <transmitByte>
    32d4:	8a e0       	ldi	r24, 0x0A	; 10
    32d6:	0e 94 de 0d 	call	0x1bbc	; 0x1bbc <transmitByte>
    32da:	8f e4       	ldi	r24, 0x4F	; 79
    32dc:	93 ec       	ldi	r25, 0xC3	; 195
    32de:	01 97       	sbiw	r24, 0x01	; 1
    32e0:	f1 f7       	brne	.-4      	; 0x32de <menu+0xc06>
    32e2:	00 c0       	rjmp	.+0      	; 0x32e4 <menu+0xc0c>
    32e4:	00 00       	nop
		_delay_ms(200);
		currentapples1=ini_applewhole;
    32e6:	80 91 c2 02 	lds	r24, 0x02C2	; 0x8002c2 <ini_applewhole>
    32ea:	90 91 c3 02 	lds	r25, 0x02C3	; 0x8002c3 <ini_applewhole+0x1>
    32ee:	80 93 ce 02 	sts	0x02CE, r24	; 0x8002ce <currentapples1>
    32f2:	90 93 cf 02 	sts	0x02CF, r25	; 0x8002cf <currentapples1+0x1>
    32f6:	ec e2       	ldi	r30, 0x2C	; 44
    32f8:	f2 e0       	ldi	r31, 0x02	; 2
    32fa:	c4 e2       	ldi	r28, 0x24	; 36
    32fc:	d2 e0       	ldi	r29, 0x02	; 2
		currentapples=currentapples1;
		for (int i = 3; i >= 0; i--)
		{
			currentapplesarray[i] = currentapples % 10;
    32fe:	2a e0       	ldi	r18, 0x0A	; 10
    3300:	30 e0       	ldi	r19, 0x00	; 0
    3302:	b9 01       	movw	r22, r18
    3304:	0e 94 db 2d 	call	0x5bb6	; 0x5bb6 <__divmodhi4>
    3308:	92 93       	st	-Z, r25
    330a:	82 93       	st	-Z, r24
			currentapples = currentapples/ 10;
    330c:	86 2f       	mov	r24, r22
    330e:	97 2f       	mov	r25, r23
		///////////////////////////////////////////////////////
		case '2':TX_NEWLINE;
		_delay_ms(200);
		currentapples1=ini_applewhole;
		currentapples=currentapples1;
		for (int i = 3; i >= 0; i--)
    3310:	ec 17       	cp	r30, r28
    3312:	fd 07       	cpc	r31, r29
    3314:	b1 f7       	brne	.-20     	; 0x3302 <menu+0xc2a>
    3316:	60 93 b4 02 	sts	0x02B4, r22	; 0x8002b4 <currentapples>
    331a:	70 93 b5 02 	sts	0x02B5, r23	; 0x8002b5 <currentapples+0x1>
		{
			currentapplesarray[i] = currentapples % 10;
			currentapples = currentapples/ 10;
		}
		TX_NEWLINE;
    331e:	8d e0       	ldi	r24, 0x0D	; 13
    3320:	0e 94 de 0d 	call	0x1bbc	; 0x1bbc <transmitByte>
    3324:	8a e0       	ldi	r24, 0x0A	; 10
    3326:	0e 94 de 0d 	call	0x1bbc	; 0x1bbc <transmitByte>
		    transmitString_F(PSTR("PERCENTAGES FOR THE FOUR FRUITS SHOULD TOTAL TO 100"));
    332a:	8d e5       	ldi	r24, 0x5D	; 93
    332c:	9e e0       	ldi	r25, 0x0E	; 14
    332e:	0e 94 e2 0d 	call	0x1bc4	; 0x1bc4 <transmitString_F>
			TX_NEWLINE;
    3332:	8d e0       	ldi	r24, 0x0D	; 13
    3334:	0e 94 de 0d 	call	0x1bbc	; 0x1bbc <transmitByte>
    3338:	8a e0       	ldi	r24, 0x0A	; 10
    333a:	0e 94 de 0d 	call	0x1bbc	; 0x1bbc <transmitByte>
		transmitString_F(PSTR("You have selected the second category of fruits"));
    333e:	8d e2       	ldi	r24, 0x2D	; 45
    3340:	9e e0       	ldi	r25, 0x0E	; 14
    3342:	0e 94 e2 0d 	call	0x1bc4	; 0x1bc4 <transmitString_F>
		TX_NEWLINE;
    3346:	8d e0       	ldi	r24, 0x0D	; 13
    3348:	0e 94 de 0d 	call	0x1bbc	; 0x1bbc <transmitByte>
    334c:	8a e0       	ldi	r24, 0x0A	; 10
    334e:	0e 94 de 0d 	call	0x1bbc	; 0x1bbc <transmitByte>
		transmitString_F(PSTR("Enter the percentage of oranges"));
    3352:	8d e0       	ldi	r24, 0x0D	; 13
    3354:	9e e0       	ldi	r25, 0x0E	; 14
    3356:	0e 94 e2 0d 	call	0x1bc4	; 0x1bc4 <transmitString_F>
		TX_NEWLINE;
    335a:	8d e0       	ldi	r24, 0x0D	; 13
    335c:	0e 94 de 0d 	call	0x1bbc	; 0x1bbc <transmitByte>
    3360:	8a e0       	ldi	r24, 0x0A	; 10
    3362:	0e 94 de 0d 	call	0x1bbc	; 0x1bbc <transmitByte>
		 TX_NEWLINE;
    3366:	8d e0       	ldi	r24, 0x0D	; 13
    3368:	0e 94 de 0d 	call	0x1bbc	; 0x1bbc <transmitByte>
    336c:	8a e0       	ldi	r24, 0x0A	; 10
    336e:	0e 94 de 0d 	call	0x1bbc	; 0x1bbc <transmitByte>
		  transmitByte(' ');
    3372:	80 e2       	ldi	r24, 0x20	; 32
    3374:	0e 94 de 0d 	call	0x1bbc	; 0x1bbc <transmitByte>
		   data= receiveByte(); transmitByte(data);
    3378:	0e 94 da 0d 	call	0x1bb4	; 0x1bb4 <receiveByte>
    337c:	80 93 af 02 	sts	0x02AF, r24	; 0x8002af <data>
    3380:	0e 94 de 0d 	call	0x1bbc	; 0x1bbc <transmitByte>
		   orangespercentage[0] = (data & 0x0f); //
    3384:	c2 e5       	ldi	r28, 0x52	; 82
    3386:	d2 e0       	ldi	r29, 0x02	; 2
    3388:	80 91 af 02 	lds	r24, 0x02AF	; 0x8002af <data>
    338c:	8f 70       	andi	r24, 0x0F	; 15
    338e:	90 e0       	ldi	r25, 0x00	; 0
    3390:	99 83       	std	Y+1, r25	; 0x01
    3392:	88 83       	st	Y, r24
		  
		    transmitByte(' ');	
    3394:	80 e2       	ldi	r24, 0x20	; 32
    3396:	0e 94 de 0d 	call	0x1bbc	; 0x1bbc <transmitByte>
			data = receiveByte(); transmitByte(data);
    339a:	0e 94 da 0d 	call	0x1bb4	; 0x1bb4 <receiveByte>
    339e:	80 93 af 02 	sts	0x02AF, r24	; 0x8002af <data>
    33a2:	0e 94 de 0d 	call	0x1bbc	; 0x1bbc <transmitByte>
		   orangespercentage[1] = (data & 0x0f); //
    33a6:	20 91 af 02 	lds	r18, 0x02AF	; 0x8002af <data>
    33aa:	2f 70       	andi	r18, 0x0F	; 15
    33ac:	62 2f       	mov	r22, r18
    33ae:	70 e0       	ldi	r23, 0x00	; 0
    33b0:	7b 83       	std	Y+3, r23	; 0x03
    33b2:	6a 83       	std	Y+2, r22	; 0x02
		    for (int i=0;i<2;i++)
		   {
			   orangespercentagewhole=10*orangespercentagewhole+orangespercentage[i];
    33b4:	20 91 cc 02 	lds	r18, 0x02CC	; 0x8002cc <orangespercentagewhole>
    33b8:	30 91 cd 02 	lds	r19, 0x02CD	; 0x8002cd <orangespercentagewhole+0x1>
    33bc:	c9 01       	movw	r24, r18
    33be:	88 0f       	add	r24, r24
    33c0:	99 1f       	adc	r25, r25
    33c2:	22 0f       	add	r18, r18
    33c4:	33 1f       	adc	r19, r19
    33c6:	22 0f       	add	r18, r18
    33c8:	33 1f       	adc	r19, r19
    33ca:	22 0f       	add	r18, r18
    33cc:	33 1f       	adc	r19, r19
    33ce:	82 0f       	add	r24, r18
    33d0:	93 1f       	adc	r25, r19
    33d2:	48 81       	ld	r20, Y
    33d4:	59 81       	ldd	r21, Y+1	; 0x01
    33d6:	84 0f       	add	r24, r20
    33d8:	95 1f       	adc	r25, r21
    33da:	9c 01       	movw	r18, r24
    33dc:	22 0f       	add	r18, r18
    33de:	33 1f       	adc	r19, r19
    33e0:	88 0f       	add	r24, r24
    33e2:	99 1f       	adc	r25, r25
    33e4:	88 0f       	add	r24, r24
    33e6:	99 1f       	adc	r25, r25
    33e8:	88 0f       	add	r24, r24
    33ea:	99 1f       	adc	r25, r25
    33ec:	82 0f       	add	r24, r18
    33ee:	93 1f       	adc	r25, r19
    33f0:	9b 01       	movw	r18, r22
    33f2:	28 0f       	add	r18, r24
    33f4:	39 1f       	adc	r19, r25
    33f6:	30 93 cd 02 	sts	0x02CD, r19	; 0x8002cd <orangespercentagewhole+0x1>
    33fa:	20 93 cc 02 	sts	0x02CC, r18	; 0x8002cc <orangespercentagewhole>
		   }
		   currentoranges1=ini_orangewhole-(orangespercentagewhole*30);
    33fe:	62 ee       	ldi	r22, 0xE2	; 226
    3400:	62 03       	mulsu	r22, r18
    3402:	a0 01       	movw	r20, r0
    3404:	63 9f       	mul	r22, r19
    3406:	50 0d       	add	r21, r0
    3408:	11 24       	eor	r1, r1
    340a:	80 91 b6 02 	lds	r24, 0x02B6	; 0x8002b6 <ini_orangewhole>
    340e:	90 91 b7 02 	lds	r25, 0x02B7	; 0x8002b7 <ini_orangewhole+0x1>
    3412:	84 0f       	add	r24, r20
    3414:	95 1f       	adc	r25, r21
    3416:	90 93 81 02 	sts	0x0281, r25	; 0x800281 <currentoranges1+0x1>
    341a:	80 93 80 02 	sts	0x0280, r24	; 0x800280 <currentoranges1>
    341e:	ec e3       	ldi	r30, 0x3C	; 60
    3420:	f2 e0       	ldi	r31, 0x02	; 2
    3422:	c4 e3       	ldi	r28, 0x34	; 52
    3424:	d2 e0       	ldi	r29, 0x02	; 2
		   currentoranges=currentoranges1;
		   ////////////////////////////////
		   for (int i = 3; i >= 0; i--)
{
   currentorangesarray[i] = currentoranges % 10;
    3426:	2a e0       	ldi	r18, 0x0A	; 10
    3428:	30 e0       	ldi	r19, 0x00	; 0
    342a:	b9 01       	movw	r22, r18
    342c:	0e 94 db 2d 	call	0x5bb6	; 0x5bb6 <__divmodhi4>
    3430:	92 93       	st	-Z, r25
    3432:	82 93       	st	-Z, r24
    currentoranges = currentoranges/ 10;
    3434:	86 2f       	mov	r24, r22
    3436:	97 2f       	mov	r25, r23
			   orangespercentagewhole=10*orangespercentagewhole+orangespercentage[i];
		   }
		   currentoranges1=ini_orangewhole-(orangespercentagewhole*30);
		   currentoranges=currentoranges1;
		   ////////////////////////////////
		   for (int i = 3; i >= 0; i--)
    3438:	ec 17       	cp	r30, r28
    343a:	fd 07       	cpc	r31, r29
    343c:	b1 f7       	brne	.-20     	; 0x342a <menu+0xd52>
    343e:	90 93 c1 02 	sts	0x02C1, r25	; 0x8002c1 <currentoranges+0x1>
    3442:	80 93 c0 02 	sts	0x02C0, r24	; 0x8002c0 <currentoranges>
{
   currentorangesarray[i] = currentoranges % 10;
    currentoranges = currentoranges/ 10;
}
  TX_NEWLINE;
    3446:	8d e0       	ldi	r24, 0x0D	; 13
    3448:	0e 94 de 0d 	call	0x1bbc	; 0x1bbc <transmitByte>
    344c:	8a e0       	ldi	r24, 0x0A	; 10
    344e:	0e 94 de 0d 	call	0x1bbc	; 0x1bbc <transmitByte>
			   transmitString_F(PSTR("ORANGES REMAINING ARE :"));
    3452:	85 ef       	ldi	r24, 0xF5	; 245
    3454:	9d e0       	ldi	r25, 0x0D	; 13
    3456:	0e 94 e2 0d 	call	0x1bc4	; 0x1bc4 <transmitString_F>
			   transmitInt(currentorangesarray[0]);
    345a:	c4 e3       	ldi	r28, 0x34	; 52
    345c:	d2 e0       	ldi	r29, 0x02	; 2
    345e:	88 81       	ld	r24, Y
    3460:	0e 94 02 0e 	call	0x1c04	; 0x1c04 <transmitInt>
			    transmitInt(currentorangesarray[1]);
    3464:	8a 81       	ldd	r24, Y+2	; 0x02
    3466:	0e 94 02 0e 	call	0x1c04	; 0x1c04 <transmitInt>
				 transmitInt(currentorangesarray[2]);
    346a:	8c 81       	ldd	r24, Y+4	; 0x04
    346c:	0e 94 02 0e 	call	0x1c04	; 0x1c04 <transmitInt>
				 transmitInt(currentorangesarray[3]);		 
    3470:	8e 81       	ldd	r24, Y+6	; 0x06
    3472:	0e 94 02 0e 	call	0x1c04	; 0x1c04 <transmitInt>
		   
		   
		 TX_NEWLINE;
    3476:	8d e0       	ldi	r24, 0x0D	; 13
    3478:	0e 94 de 0d 	call	0x1bbc	; 0x1bbc <transmitByte>
    347c:	8a e0       	ldi	r24, 0x0A	; 10
    347e:	0e 94 de 0d 	call	0x1bbc	; 0x1bbc <transmitByte>
			   transmitString_F(PSTR("Orange percentage selected:"));
    3482:	89 ed       	ldi	r24, 0xD9	; 217
    3484:	9d e0       	ldi	r25, 0x0D	; 13
    3486:	0e 94 e2 0d 	call	0x1bc4	; 0x1bc4 <transmitString_F>
			   transmitInt(orangespercentage[0]);
    348a:	c2 e5       	ldi	r28, 0x52	; 82
    348c:	d2 e0       	ldi	r29, 0x02	; 2
    348e:	88 81       	ld	r24, Y
    3490:	0e 94 02 0e 	call	0x1c04	; 0x1c04 <transmitInt>
			    transmitInt(orangespercentage[1]);
    3494:	8a 81       	ldd	r24, Y+2	; 0x02
    3496:	0e 94 02 0e 	call	0x1c04	; 0x1c04 <transmitInt>
				//////////////////////////////////////////////////////////////////
				 TX_NEWLINE;
    349a:	8d e0       	ldi	r24, 0x0D	; 13
    349c:	0e 94 de 0d 	call	0x1bbc	; 0x1bbc <transmitByte>
    34a0:	8a e0       	ldi	r24, 0x0A	; 10
    34a2:	0e 94 de 0d 	call	0x1bbc	; 0x1bbc <transmitByte>
				transmitString_F(PSTR("Enter the percentage of mangoes"));
    34a6:	89 eb       	ldi	r24, 0xB9	; 185
    34a8:	9d e0       	ldi	r25, 0x0D	; 13
    34aa:	0e 94 e2 0d 	call	0x1bc4	; 0x1bc4 <transmitString_F>
		TX_NEWLINE;
    34ae:	8d e0       	ldi	r24, 0x0D	; 13
    34b0:	0e 94 de 0d 	call	0x1bbc	; 0x1bbc <transmitByte>
    34b4:	8a e0       	ldi	r24, 0x0A	; 10
    34b6:	0e 94 de 0d 	call	0x1bbc	; 0x1bbc <transmitByte>
		 TX_NEWLINE;
    34ba:	8d e0       	ldi	r24, 0x0D	; 13
    34bc:	0e 94 de 0d 	call	0x1bbc	; 0x1bbc <transmitByte>
    34c0:	8a e0       	ldi	r24, 0x0A	; 10
    34c2:	0e 94 de 0d 	call	0x1bbc	; 0x1bbc <transmitByte>
		  transmitByte(' ');
    34c6:	80 e2       	ldi	r24, 0x20	; 32
    34c8:	0e 94 de 0d 	call	0x1bbc	; 0x1bbc <transmitByte>
		   data= receiveByte(); transmitByte(data);
    34cc:	0e 94 da 0d 	call	0x1bb4	; 0x1bb4 <receiveByte>
    34d0:	80 93 af 02 	sts	0x02AF, r24	; 0x8002af <data>
    34d4:	0e 94 de 0d 	call	0x1bbc	; 0x1bbc <transmitByte>
		   mangoespercentage[0] = (data & 0x0f); //
    34d8:	ce e4       	ldi	r28, 0x4E	; 78
    34da:	d2 e0       	ldi	r29, 0x02	; 2
    34dc:	80 91 af 02 	lds	r24, 0x02AF	; 0x8002af <data>
    34e0:	8f 70       	andi	r24, 0x0F	; 15
    34e2:	90 e0       	ldi	r25, 0x00	; 0
    34e4:	99 83       	std	Y+1, r25	; 0x01
    34e6:	88 83       	st	Y, r24
		  
		    transmitByte(' ');	
    34e8:	80 e2       	ldi	r24, 0x20	; 32
    34ea:	0e 94 de 0d 	call	0x1bbc	; 0x1bbc <transmitByte>
			data = receiveByte(); transmitByte(data);
    34ee:	0e 94 da 0d 	call	0x1bb4	; 0x1bb4 <receiveByte>
    34f2:	80 93 af 02 	sts	0x02AF, r24	; 0x8002af <data>
    34f6:	0e 94 de 0d 	call	0x1bbc	; 0x1bbc <transmitByte>
		   mangoespercentage[1] = (data & 0x0f); //array to store 
    34fa:	20 91 af 02 	lds	r18, 0x02AF	; 0x8002af <data>
    34fe:	2f 70       	andi	r18, 0x0F	; 15
    3500:	62 2f       	mov	r22, r18
    3502:	70 e0       	ldi	r23, 0x00	; 0
    3504:	7b 83       	std	Y+3, r23	; 0x03
    3506:	6a 83       	std	Y+2, r22	; 0x02
		      for (int i=0;i<2;i++)
		   {
			   mangoespercentagewhole=10*mangoespercentagewhole+mangoespercentage[i];
    3508:	20 91 ca 02 	lds	r18, 0x02CA	; 0x8002ca <mangoespercentagewhole>
    350c:	30 91 cb 02 	lds	r19, 0x02CB	; 0x8002cb <mangoespercentagewhole+0x1>
    3510:	c9 01       	movw	r24, r18
    3512:	88 0f       	add	r24, r24
    3514:	99 1f       	adc	r25, r25
    3516:	22 0f       	add	r18, r18
    3518:	33 1f       	adc	r19, r19
    351a:	22 0f       	add	r18, r18
    351c:	33 1f       	adc	r19, r19
    351e:	22 0f       	add	r18, r18
    3520:	33 1f       	adc	r19, r19
    3522:	82 0f       	add	r24, r18
    3524:	93 1f       	adc	r25, r19
    3526:	48 81       	ld	r20, Y
    3528:	59 81       	ldd	r21, Y+1	; 0x01
    352a:	84 0f       	add	r24, r20
    352c:	95 1f       	adc	r25, r21
    352e:	9c 01       	movw	r18, r24
    3530:	22 0f       	add	r18, r18
    3532:	33 1f       	adc	r19, r19
    3534:	88 0f       	add	r24, r24
    3536:	99 1f       	adc	r25, r25
    3538:	88 0f       	add	r24, r24
    353a:	99 1f       	adc	r25, r25
    353c:	88 0f       	add	r24, r24
    353e:	99 1f       	adc	r25, r25
    3540:	82 0f       	add	r24, r18
    3542:	93 1f       	adc	r25, r19
    3544:	9b 01       	movw	r18, r22
    3546:	28 0f       	add	r18, r24
    3548:	39 1f       	adc	r19, r25
    354a:	30 93 cb 02 	sts	0x02CB, r19	; 0x8002cb <mangoespercentagewhole+0x1>
    354e:	20 93 ca 02 	sts	0x02CA, r18	; 0x8002ca <mangoespercentagewhole>
		   }
		   	   currentmangoes1=ini_mangowhole-(mangoespercentagewhole*30);
    3552:	62 ee       	ldi	r22, 0xE2	; 226
    3554:	62 03       	mulsu	r22, r18
    3556:	a0 01       	movw	r20, r0
    3558:	63 9f       	mul	r22, r19
    355a:	50 0d       	add	r21, r0
    355c:	11 24       	eor	r1, r1
    355e:	80 91 8a 02 	lds	r24, 0x028A	; 0x80028a <ini_mangowhole>
    3562:	90 91 8b 02 	lds	r25, 0x028B	; 0x80028b <ini_mangowhole+0x1>
    3566:	84 0f       	add	r24, r20
    3568:	95 1f       	adc	r25, r21
    356a:	90 93 85 02 	sts	0x0285, r25	; 0x800285 <currentmangoes1+0x1>
    356e:	80 93 84 02 	sts	0x0284, r24	; 0x800284 <currentmangoes1>
    3572:	e4 e3       	ldi	r30, 0x34	; 52
    3574:	f2 e0       	ldi	r31, 0x02	; 2
    3576:	cc e2       	ldi	r28, 0x2C	; 44
    3578:	d2 e0       	ldi	r29, 0x02	; 2
				 currentmangoes=currentmangoes1; 
		   ////////////////////////////////
		   for (int i = 3; i >= 0; i--)
{
   currentmangoesarray[i] = currentmangoes % 10;
    357a:	2a e0       	ldi	r18, 0x0A	; 10
    357c:	30 e0       	ldi	r19, 0x00	; 0
    357e:	b9 01       	movw	r22, r18
    3580:	0e 94 db 2d 	call	0x5bb6	; 0x5bb6 <__divmodhi4>
    3584:	92 93       	st	-Z, r25
    3586:	82 93       	st	-Z, r24
    currentmangoes = currentmangoes/ 10;
    3588:	86 2f       	mov	r24, r22
    358a:	97 2f       	mov	r25, r23
			   mangoespercentagewhole=10*mangoespercentagewhole+mangoespercentage[i];
		   }
		   	   currentmangoes1=ini_mangowhole-(mangoespercentagewhole*30);
				 currentmangoes=currentmangoes1; 
		   ////////////////////////////////
		   for (int i = 3; i >= 0; i--)
    358c:	ec 17       	cp	r30, r28
    358e:	fd 07       	cpc	r31, r29
    3590:	b1 f7       	brne	.-20     	; 0x357e <menu+0xea6>
    3592:	90 93 90 02 	sts	0x0290, r25	; 0x800290 <currentmangoes+0x1>
    3596:	80 93 8f 02 	sts	0x028F, r24	; 0x80028f <currentmangoes>
{
   currentmangoesarray[i] = currentmangoes % 10;
    currentmangoes = currentmangoes/ 10;
}
  TX_NEWLINE;
    359a:	8d e0       	ldi	r24, 0x0D	; 13
    359c:	0e 94 de 0d 	call	0x1bbc	; 0x1bbc <transmitByte>
    35a0:	8a e0       	ldi	r24, 0x0A	; 10
    35a2:	0e 94 de 0d 	call	0x1bbc	; 0x1bbc <transmitByte>
			   transmitString_F(PSTR("MANGOES REMAINING ARE :"));
    35a6:	81 ea       	ldi	r24, 0xA1	; 161
    35a8:	9d e0       	ldi	r25, 0x0D	; 13
    35aa:	0e 94 e2 0d 	call	0x1bc4	; 0x1bc4 <transmitString_F>
			   transmitInt(currentmangoesarray[0]);
    35ae:	cc e2       	ldi	r28, 0x2C	; 44
    35b0:	d2 e0       	ldi	r29, 0x02	; 2
    35b2:	88 81       	ld	r24, Y
    35b4:	0e 94 02 0e 	call	0x1c04	; 0x1c04 <transmitInt>
			    transmitInt(currentmangoesarray[1]);
    35b8:	8a 81       	ldd	r24, Y+2	; 0x02
    35ba:	0e 94 02 0e 	call	0x1c04	; 0x1c04 <transmitInt>
				 transmitInt(currentmangoesarray[2]);
    35be:	8c 81       	ldd	r24, Y+4	; 0x04
    35c0:	0e 94 02 0e 	call	0x1c04	; 0x1c04 <transmitInt>
				 transmitInt(currentmangoesarray[3]);		  
    35c4:	8e 81       	ldd	r24, Y+6	; 0x06
    35c6:	0e 94 02 0e 	call	0x1c04	; 0x1c04 <transmitInt>
	TX_NEWLINE;
    35ca:	8d e0       	ldi	r24, 0x0D	; 13
    35cc:	0e 94 de 0d 	call	0x1bbc	; 0x1bbc <transmitByte>
    35d0:	8a e0       	ldi	r24, 0x0A	; 10
    35d2:	0e 94 de 0d 	call	0x1bbc	; 0x1bbc <transmitByte>
		 TX_NEWLINE;
    35d6:	8d e0       	ldi	r24, 0x0D	; 13
    35d8:	0e 94 de 0d 	call	0x1bbc	; 0x1bbc <transmitByte>
    35dc:	8a e0       	ldi	r24, 0x0A	; 10
    35de:	0e 94 de 0d 	call	0x1bbc	; 0x1bbc <transmitByte>
			   transmitString_F(PSTR("Mangoes percentage selected:"));
    35e2:	84 e8       	ldi	r24, 0x84	; 132
    35e4:	9d e0       	ldi	r25, 0x0D	; 13
    35e6:	0e 94 e2 0d 	call	0x1bc4	; 0x1bc4 <transmitString_F>
			   transmitInt(mangoespercentage[0]);
    35ea:	ce e4       	ldi	r28, 0x4E	; 78
    35ec:	d2 e0       	ldi	r29, 0x02	; 2
    35ee:	88 81       	ld	r24, Y
    35f0:	0e 94 02 0e 	call	0x1c04	; 0x1c04 <transmitInt>
			    transmitInt(mangoespercentage[1]);
    35f4:	8a 81       	ldd	r24, Y+2	; 0x02
    35f6:	0e 94 02 0e 	call	0x1c04	; 0x1c04 <transmitInt>
				
				//////////////////////////////////////////////////////////////
				 TX_NEWLINE;
    35fa:	8d e0       	ldi	r24, 0x0D	; 13
    35fc:	0e 94 de 0d 	call	0x1bbc	; 0x1bbc <transmitByte>
    3600:	8a e0       	ldi	r24, 0x0A	; 10
    3602:	0e 94 de 0d 	call	0x1bbc	; 0x1bbc <transmitByte>
						transmitString_F(PSTR("Enter the percentage of pineapples"));
    3606:	81 e6       	ldi	r24, 0x61	; 97
    3608:	9d e0       	ldi	r25, 0x0D	; 13
    360a:	0e 94 e2 0d 	call	0x1bc4	; 0x1bc4 <transmitString_F>
		 TX_NEWLINE;
    360e:	8d e0       	ldi	r24, 0x0D	; 13
    3610:	0e 94 de 0d 	call	0x1bbc	; 0x1bbc <transmitByte>
    3614:	8a e0       	ldi	r24, 0x0A	; 10
    3616:	0e 94 de 0d 	call	0x1bbc	; 0x1bbc <transmitByte>
		  transmitByte(' ');
    361a:	80 e2       	ldi	r24, 0x20	; 32
    361c:	0e 94 de 0d 	call	0x1bbc	; 0x1bbc <transmitByte>
		   data= receiveByte(); transmitByte(data);
    3620:	0e 94 da 0d 	call	0x1bb4	; 0x1bb4 <receiveByte>
    3624:	80 93 af 02 	sts	0x02AF, r24	; 0x8002af <data>
    3628:	0e 94 de 0d 	call	0x1bbc	; 0x1bbc <transmitByte>
		   pineapplespercentage[0] = (data & 0x0f); //array to store 
    362c:	c6 e4       	ldi	r28, 0x46	; 70
    362e:	d2 e0       	ldi	r29, 0x02	; 2
    3630:	80 91 af 02 	lds	r24, 0x02AF	; 0x8002af <data>
    3634:	8f 70       	andi	r24, 0x0F	; 15
    3636:	90 e0       	ldi	r25, 0x00	; 0
    3638:	99 83       	std	Y+1, r25	; 0x01
    363a:	88 83       	st	Y, r24
		  
		    transmitByte(' ');	
    363c:	80 e2       	ldi	r24, 0x20	; 32
    363e:	0e 94 de 0d 	call	0x1bbc	; 0x1bbc <transmitByte>
			data = receiveByte(); transmitByte(data);
    3642:	0e 94 da 0d 	call	0x1bb4	; 0x1bb4 <receiveByte>
    3646:	80 93 af 02 	sts	0x02AF, r24	; 0x8002af <data>
    364a:	0e 94 de 0d 	call	0x1bbc	; 0x1bbc <transmitByte>
		   pineapplespercentage[1] = (data & 0x0f); //array to store 
    364e:	20 91 af 02 	lds	r18, 0x02AF	; 0x8002af <data>
    3652:	2f 70       	andi	r18, 0x0F	; 15
    3654:	62 2f       	mov	r22, r18
    3656:	70 e0       	ldi	r23, 0x00	; 0
    3658:	7b 83       	std	Y+3, r23	; 0x03
    365a:	6a 83       	std	Y+2, r22	; 0x02
		        for (int i=0;i<2;i++)
		   {
			   pineapplespercentagewhole=10*pineapplespercentagewhole+pineapplespercentage[i];
    365c:	20 91 9a 02 	lds	r18, 0x029A	; 0x80029a <pineapplespercentagewhole>
    3660:	30 91 9b 02 	lds	r19, 0x029B	; 0x80029b <pineapplespercentagewhole+0x1>
    3664:	c9 01       	movw	r24, r18
    3666:	88 0f       	add	r24, r24
    3668:	99 1f       	adc	r25, r25
    366a:	22 0f       	add	r18, r18
    366c:	33 1f       	adc	r19, r19
    366e:	22 0f       	add	r18, r18
    3670:	33 1f       	adc	r19, r19
    3672:	22 0f       	add	r18, r18
    3674:	33 1f       	adc	r19, r19
    3676:	82 0f       	add	r24, r18
    3678:	93 1f       	adc	r25, r19
    367a:	48 81       	ld	r20, Y
    367c:	59 81       	ldd	r21, Y+1	; 0x01
    367e:	84 0f       	add	r24, r20
    3680:	95 1f       	adc	r25, r21
    3682:	9c 01       	movw	r18, r24
    3684:	22 0f       	add	r18, r18
    3686:	33 1f       	adc	r19, r19
    3688:	88 0f       	add	r24, r24
    368a:	99 1f       	adc	r25, r25
    368c:	88 0f       	add	r24, r24
    368e:	99 1f       	adc	r25, r25
    3690:	88 0f       	add	r24, r24
    3692:	99 1f       	adc	r25, r25
    3694:	82 0f       	add	r24, r18
    3696:	93 1f       	adc	r25, r19
    3698:	9b 01       	movw	r18, r22
    369a:	28 0f       	add	r18, r24
    369c:	39 1f       	adc	r19, r25
    369e:	30 93 9b 02 	sts	0x029B, r19	; 0x80029b <pineapplespercentagewhole+0x1>
    36a2:	20 93 9a 02 	sts	0x029A, r18	; 0x80029a <pineapplespercentagewhole>
		   }
		   	   currentpineapples1=ini_pineapplewhole-(pineapplespercentagewhole*30);
    36a6:	62 ee       	ldi	r22, 0xE2	; 226
    36a8:	62 03       	mulsu	r22, r18
    36aa:	a0 01       	movw	r20, r0
    36ac:	63 9f       	mul	r22, r19
    36ae:	50 0d       	add	r21, r0
    36b0:	11 24       	eor	r1, r1
    36b2:	80 91 c8 02 	lds	r24, 0x02C8	; 0x8002c8 <ini_pineapplewhole>
    36b6:	90 91 c9 02 	lds	r25, 0x02C9	; 0x8002c9 <ini_pineapplewhole+0x1>
    36ba:	84 0f       	add	r24, r20
    36bc:	95 1f       	adc	r25, r21
    36be:	90 93 b1 02 	sts	0x02B1, r25	; 0x8002b1 <currentpineapples1+0x1>
    36c2:	80 93 b0 02 	sts	0x02B0, r24	; 0x8002b0 <currentpineapples1>
    36c6:	e4 e2       	ldi	r30, 0x24	; 36
    36c8:	f2 e0       	ldi	r31, 0x02	; 2
    36ca:	cc e1       	ldi	r28, 0x1C	; 28
    36cc:	d2 e0       	ldi	r29, 0x02	; 2
				  currentpineapples=currentpineapples1;
		   ////////////////////////////////
		   for (int i = 3; i >= 0; i--)
{
   currentpineapplesarray[i] = currentpineapples% 10;
    36ce:	2a e0       	ldi	r18, 0x0A	; 10
    36d0:	30 e0       	ldi	r19, 0x00	; 0
    36d2:	b9 01       	movw	r22, r18
    36d4:	0e 94 db 2d 	call	0x5bb6	; 0x5bb6 <__divmodhi4>
    36d8:	92 93       	st	-Z, r25
    36da:	82 93       	st	-Z, r24
    currentpineapples = currentpineapples/ 10;
    36dc:	86 2f       	mov	r24, r22
    36de:	97 2f       	mov	r25, r23
			   pineapplespercentagewhole=10*pineapplespercentagewhole+pineapplespercentage[i];
		   }
		   	   currentpineapples1=ini_pineapplewhole-(pineapplespercentagewhole*30);
				  currentpineapples=currentpineapples1;
		   ////////////////////////////////
		   for (int i = 3; i >= 0; i--)
    36e0:	ec 17       	cp	r30, r28
    36e2:	fd 07       	cpc	r31, r29
    36e4:	b1 f7       	brne	.-20     	; 0x36d2 <menu+0xffa>
    36e6:	90 93 c7 02 	sts	0x02C7, r25	; 0x8002c7 <currentpineapples+0x1>
    36ea:	80 93 c6 02 	sts	0x02C6, r24	; 0x8002c6 <currentpineapples>
{
   currentpineapplesarray[i] = currentpineapples% 10;
    currentpineapples = currentpineapples/ 10;
}
  TX_NEWLINE;
    36ee:	8d e0       	ldi	r24, 0x0D	; 13
    36f0:	0e 94 de 0d 	call	0x1bbc	; 0x1bbc <transmitByte>
    36f4:	8a e0       	ldi	r24, 0x0A	; 10
    36f6:	0e 94 de 0d 	call	0x1bbc	; 0x1bbc <transmitByte>
			   transmitString_F(PSTR("PINEAPPLES REMAINING ARE :"));
    36fa:	86 e4       	ldi	r24, 0x46	; 70
    36fc:	9d e0       	ldi	r25, 0x0D	; 13
    36fe:	0e 94 e2 0d 	call	0x1bc4	; 0x1bc4 <transmitString_F>
			   transmitInt(currentpineapplesarray[0]);
    3702:	cc e1       	ldi	r28, 0x1C	; 28
    3704:	d2 e0       	ldi	r29, 0x02	; 2
    3706:	88 81       	ld	r24, Y
    3708:	0e 94 02 0e 	call	0x1c04	; 0x1c04 <transmitInt>
			    transmitInt(currentpineapplesarray[1]);
    370c:	8a 81       	ldd	r24, Y+2	; 0x02
    370e:	0e 94 02 0e 	call	0x1c04	; 0x1c04 <transmitInt>
				 transmitInt(currentpineapplesarray[2]);
    3712:	8c 81       	ldd	r24, Y+4	; 0x04
    3714:	0e 94 02 0e 	call	0x1c04	; 0x1c04 <transmitInt>
				 transmitInt(currentpineapplesarray[3]);		  
    3718:	8e 81       	ldd	r24, Y+6	; 0x06
    371a:	0e 94 02 0e 	call	0x1c04	; 0x1c04 <transmitInt>
				 
		 TX_NEWLINE;
    371e:	8d e0       	ldi	r24, 0x0D	; 13
    3720:	0e 94 de 0d 	call	0x1bbc	; 0x1bbc <transmitByte>
    3724:	8a e0       	ldi	r24, 0x0A	; 10
    3726:	0e 94 de 0d 	call	0x1bbc	; 0x1bbc <transmitByte>
			   transmitString_F(PSTR("Pineapples percentage selected:"));
    372a:	86 e2       	ldi	r24, 0x26	; 38
    372c:	9d e0       	ldi	r25, 0x0D	; 13
    372e:	0e 94 e2 0d 	call	0x1bc4	; 0x1bc4 <transmitString_F>
			   transmitInt(pineapplespercentage[0]);
    3732:	c6 e4       	ldi	r28, 0x46	; 70
    3734:	d2 e0       	ldi	r29, 0x02	; 2
    3736:	88 81       	ld	r24, Y
    3738:	0e 94 02 0e 	call	0x1c04	; 0x1c04 <transmitInt>
			    transmitInt(pineapplespercentage[1]);
    373c:	8a 81       	ldd	r24, Y+2	; 0x02
    373e:	0e 94 02 0e 	call	0x1c04	; 0x1c04 <transmitInt>
				//////////////////////////////////////////////
				 TX_NEWLINE;
    3742:	8d e0       	ldi	r24, 0x0D	; 13
    3744:	0e 94 de 0d 	call	0x1bbc	; 0x1bbc <transmitByte>
    3748:	8a e0       	ldi	r24, 0x0A	; 10
    374a:	0e 94 de 0d 	call	0x1bbc	; 0x1bbc <transmitByte>
						transmitString_F(PSTR("Enter the percentage of guavas"));
    374e:	87 e0       	ldi	r24, 0x07	; 7
    3750:	9d e0       	ldi	r25, 0x0D	; 13
    3752:	0e 94 e2 0d 	call	0x1bc4	; 0x1bc4 <transmitString_F>
		TX_NEWLINE;
    3756:	8d e0       	ldi	r24, 0x0D	; 13
    3758:	0e 94 de 0d 	call	0x1bbc	; 0x1bbc <transmitByte>
    375c:	8a e0       	ldi	r24, 0x0A	; 10
    375e:	0e 94 de 0d 	call	0x1bbc	; 0x1bbc <transmitByte>
		 TX_NEWLINE;
    3762:	8d e0       	ldi	r24, 0x0D	; 13
    3764:	0e 94 de 0d 	call	0x1bbc	; 0x1bbc <transmitByte>
    3768:	8a e0       	ldi	r24, 0x0A	; 10
    376a:	0e 94 de 0d 	call	0x1bbc	; 0x1bbc <transmitByte>
		  transmitByte(' ');
    376e:	80 e2       	ldi	r24, 0x20	; 32
    3770:	0e 94 de 0d 	call	0x1bbc	; 0x1bbc <transmitByte>
		   data= receiveByte(); transmitByte(data);
    3774:	0e 94 da 0d 	call	0x1bb4	; 0x1bb4 <receiveByte>
    3778:	80 93 af 02 	sts	0x02AF, r24	; 0x8002af <data>
    377c:	0e 94 de 0d 	call	0x1bbc	; 0x1bbc <transmitByte>
		   guavaspercentage[0] = (data & 0x0f); //
    3780:	ca e4       	ldi	r28, 0x4A	; 74
    3782:	d2 e0       	ldi	r29, 0x02	; 2
    3784:	80 91 af 02 	lds	r24, 0x02AF	; 0x8002af <data>
    3788:	8f 70       	andi	r24, 0x0F	; 15
    378a:	90 e0       	ldi	r25, 0x00	; 0
    378c:	99 83       	std	Y+1, r25	; 0x01
    378e:	88 83       	st	Y, r24
		  
		    transmitByte(' ');	
    3790:	80 e2       	ldi	r24, 0x20	; 32
    3792:	0e 94 de 0d 	call	0x1bbc	; 0x1bbc <transmitByte>
			data = receiveByte(); transmitByte(data);
    3796:	0e 94 da 0d 	call	0x1bb4	; 0x1bb4 <receiveByte>
    379a:	80 93 af 02 	sts	0x02AF, r24	; 0x8002af <data>
    379e:	0e 94 de 0d 	call	0x1bbc	; 0x1bbc <transmitByte>
		   guavaspercentage[1] = (data & 0x0f); //
    37a2:	20 91 af 02 	lds	r18, 0x02AF	; 0x8002af <data>
    37a6:	2f 70       	andi	r18, 0x0F	; 15
    37a8:	62 2f       	mov	r22, r18
    37aa:	70 e0       	ldi	r23, 0x00	; 0
    37ac:	7b 83       	std	Y+3, r23	; 0x03
    37ae:	6a 83       	std	Y+2, r22	; 0x02
		        for (int i=0;i<2;i++)
		   {
			   guavaspercentagewhole=10*guavaspercentagewhole+guavaspercentage[i];
    37b0:	20 91 ab 02 	lds	r18, 0x02AB	; 0x8002ab <guavaspercentagewhole>
    37b4:	30 91 ac 02 	lds	r19, 0x02AC	; 0x8002ac <guavaspercentagewhole+0x1>
    37b8:	c9 01       	movw	r24, r18
    37ba:	88 0f       	add	r24, r24
    37bc:	99 1f       	adc	r25, r25
    37be:	22 0f       	add	r18, r18
    37c0:	33 1f       	adc	r19, r19
    37c2:	22 0f       	add	r18, r18
    37c4:	33 1f       	adc	r19, r19
    37c6:	22 0f       	add	r18, r18
    37c8:	33 1f       	adc	r19, r19
    37ca:	82 0f       	add	r24, r18
    37cc:	93 1f       	adc	r25, r19
    37ce:	48 81       	ld	r20, Y
    37d0:	59 81       	ldd	r21, Y+1	; 0x01
    37d2:	84 0f       	add	r24, r20
    37d4:	95 1f       	adc	r25, r21
    37d6:	9c 01       	movw	r18, r24
    37d8:	22 0f       	add	r18, r18
    37da:	33 1f       	adc	r19, r19
    37dc:	88 0f       	add	r24, r24
    37de:	99 1f       	adc	r25, r25
    37e0:	88 0f       	add	r24, r24
    37e2:	99 1f       	adc	r25, r25
    37e4:	88 0f       	add	r24, r24
    37e6:	99 1f       	adc	r25, r25
    37e8:	82 0f       	add	r24, r18
    37ea:	93 1f       	adc	r25, r19
    37ec:	9b 01       	movw	r18, r22
    37ee:	28 0f       	add	r18, r24
    37f0:	39 1f       	adc	r19, r25
    37f2:	30 93 ac 02 	sts	0x02AC, r19	; 0x8002ac <guavaspercentagewhole+0x1>
    37f6:	20 93 ab 02 	sts	0x02AB, r18	; 0x8002ab <guavaspercentagewhole>
		   }
		   	   currentguavas1=ini_guavawhole-(guavaspercentagewhole*30);
    37fa:	62 ee       	ldi	r22, 0xE2	; 226
    37fc:	62 03       	mulsu	r22, r18
    37fe:	a0 01       	movw	r20, r0
    3800:	63 9f       	mul	r22, r19
    3802:	50 0d       	add	r21, r0
    3804:	11 24       	eor	r1, r1
    3806:	80 91 96 02 	lds	r24, 0x0296	; 0x800296 <ini_guavawhole>
    380a:	90 91 97 02 	lds	r25, 0x0297	; 0x800297 <ini_guavawhole+0x1>
    380e:	84 0f       	add	r24, r20
    3810:	95 1f       	adc	r25, r21
    3812:	90 93 a6 02 	sts	0x02A6, r25	; 0x8002a6 <currentguavas1+0x1>
    3816:	80 93 a5 02 	sts	0x02A5, r24	; 0x8002a5 <currentguavas1>
    381a:	ec e1       	ldi	r30, 0x1C	; 28
    381c:	f2 e0       	ldi	r31, 0x02	; 2
    381e:	c4 e1       	ldi	r28, 0x14	; 20
    3820:	d2 e0       	ldi	r29, 0x02	; 2
				  currentguavas=currentguavas1;
		   ////////////////////////////////
		   for (int i = 3; i >= 0; i--)
{
   currentguavasarray[i] = currentguavas% 10;
    3822:	2a e0       	ldi	r18, 0x0A	; 10
    3824:	30 e0       	ldi	r19, 0x00	; 0
    3826:	b9 01       	movw	r22, r18
    3828:	0e 94 db 2d 	call	0x5bb6	; 0x5bb6 <__divmodhi4>
    382c:	92 93       	st	-Z, r25
    382e:	82 93       	st	-Z, r24
    currentguavas = currentguavas/ 10;
    3830:	86 2f       	mov	r24, r22
    3832:	97 2f       	mov	r25, r23
			   guavaspercentagewhole=10*guavaspercentagewhole+guavaspercentage[i];
		   }
		   	   currentguavas1=ini_guavawhole-(guavaspercentagewhole*30);
				  currentguavas=currentguavas1;
		   ////////////////////////////////
		   for (int i = 3; i >= 0; i--)
    3834:	ec 17       	cp	r30, r28
    3836:	fd 07       	cpc	r31, r29
    3838:	b1 f7       	brne	.-20     	; 0x3826 <menu+0x114e>
    383a:	90 93 b3 02 	sts	0x02B3, r25	; 0x8002b3 <currentguavas+0x1>
    383e:	80 93 b2 02 	sts	0x02B2, r24	; 0x8002b2 <currentguavas>
{
   currentguavasarray[i] = currentguavas% 10;
    currentguavas = currentguavas/ 10;
}
  TX_NEWLINE;
    3842:	8d e0       	ldi	r24, 0x0D	; 13
    3844:	0e 94 de 0d 	call	0x1bbc	; 0x1bbc <transmitByte>
    3848:	8a e0       	ldi	r24, 0x0A	; 10
    384a:	0e 94 de 0d 	call	0x1bbc	; 0x1bbc <transmitByte>
			   transmitString_F(PSTR("GUAVAS REMAINING ARE :"));
    384e:	80 ef       	ldi	r24, 0xF0	; 240
    3850:	9c e0       	ldi	r25, 0x0C	; 12
    3852:	0e 94 e2 0d 	call	0x1bc4	; 0x1bc4 <transmitString_F>
			   transmitInt(currentguavasarray[0]);
    3856:	c4 e1       	ldi	r28, 0x14	; 20
    3858:	d2 e0       	ldi	r29, 0x02	; 2
    385a:	88 81       	ld	r24, Y
    385c:	0e 94 02 0e 	call	0x1c04	; 0x1c04 <transmitInt>
			    transmitInt(currentguavasarray[1]);
    3860:	8a 81       	ldd	r24, Y+2	; 0x02
    3862:	0e 94 02 0e 	call	0x1c04	; 0x1c04 <transmitInt>
				 transmitInt(currentguavasarray[2]);
    3866:	8c 81       	ldd	r24, Y+4	; 0x04
    3868:	0e 94 02 0e 	call	0x1c04	; 0x1c04 <transmitInt>
				 transmitInt(currentguavasarray[3]);		  
    386c:	8e 81       	ldd	r24, Y+6	; 0x06
    386e:	0e 94 02 0e 	call	0x1c04	; 0x1c04 <transmitInt>
	TX_NEWLINE;
    3872:	8d e0       	ldi	r24, 0x0D	; 13
    3874:	0e 94 de 0d 	call	0x1bbc	; 0x1bbc <transmitByte>
    3878:	8a e0       	ldi	r24, 0x0A	; 10
    387a:	0e 94 de 0d 	call	0x1bbc	; 0x1bbc <transmitByte>
		 TX_NEWLINE;
    387e:	8d e0       	ldi	r24, 0x0D	; 13
    3880:	0e 94 de 0d 	call	0x1bbc	; 0x1bbc <transmitByte>
    3884:	8a e0       	ldi	r24, 0x0A	; 10
    3886:	0e 94 de 0d 	call	0x1bbc	; 0x1bbc <transmitByte>
			   transmitString_F(PSTR("Guavas percentage selected:"));
    388a:	84 ed       	ldi	r24, 0xD4	; 212
    388c:	9c e0       	ldi	r25, 0x0C	; 12
    388e:	0e 94 e2 0d 	call	0x1bc4	; 0x1bc4 <transmitString_F>
			   transmitInt(guavaspercentage[0]);
    3892:	ca e4       	ldi	r28, 0x4A	; 74
    3894:	d2 e0       	ldi	r29, 0x02	; 2
    3896:	88 81       	ld	r24, Y
    3898:	0e 94 02 0e 	call	0x1c04	; 0x1c04 <transmitInt>
			    transmitInt(guavaspercentage[1]);
    389c:	8a 81       	ldd	r24, Y+2	; 0x02
    389e:	0e 94 02 0e 	call	0x1c04	; 0x1c04 <transmitInt>
		
		break;
    38a2:	0c 94 40 25 	jmp	0x4a80	; 0x4a80 <menu+0x23a8>
		///////////////////////////////////////////////
		case '3':TX_NEWLINE;
    38a6:	8d e0       	ldi	r24, 0x0D	; 13
    38a8:	0e 94 de 0d 	call	0x1bbc	; 0x1bbc <transmitByte>
    38ac:	8a e0       	ldi	r24, 0x0A	; 10
    38ae:	0e 94 de 0d 	call	0x1bbc	; 0x1bbc <transmitByte>
    38b2:	8f e4       	ldi	r24, 0x4F	; 79
    38b4:	93 ec       	ldi	r25, 0xC3	; 195
    38b6:	01 97       	sbiw	r24, 0x01	; 1
    38b8:	f1 f7       	brne	.-4      	; 0x38b6 <menu+0x11de>
    38ba:	00 c0       	rjmp	.+0      	; 0x38bc <menu+0x11e4>
    38bc:	00 00       	nop
		_delay_ms(200);
		currentpineapples1=ini_pineapplewhole;
    38be:	80 91 c8 02 	lds	r24, 0x02C8	; 0x8002c8 <ini_pineapplewhole>
    38c2:	90 91 c9 02 	lds	r25, 0x02C9	; 0x8002c9 <ini_pineapplewhole+0x1>
    38c6:	80 93 b0 02 	sts	0x02B0, r24	; 0x8002b0 <currentpineapples1>
    38ca:	90 93 b1 02 	sts	0x02B1, r25	; 0x8002b1 <currentpineapples1+0x1>
    38ce:	e4 e2       	ldi	r30, 0x24	; 36
    38d0:	f2 e0       	ldi	r31, 0x02	; 2
    38d2:	cc e1       	ldi	r28, 0x1C	; 28
    38d4:	d2 e0       	ldi	r29, 0x02	; 2
		currentpineapples=currentpineapples1;
		for (int i = 3; i >= 0; i--)
		{
			currentpineapplesarray[i] = currentpineapples% 10;
    38d6:	2a e0       	ldi	r18, 0x0A	; 10
    38d8:	30 e0       	ldi	r19, 0x00	; 0
    38da:	b9 01       	movw	r22, r18
    38dc:	0e 94 db 2d 	call	0x5bb6	; 0x5bb6 <__divmodhi4>
    38e0:	92 93       	st	-Z, r25
    38e2:	82 93       	st	-Z, r24
			currentpineapples = currentpineapples/ 10;
    38e4:	86 2f       	mov	r24, r22
    38e6:	97 2f       	mov	r25, r23
		///////////////////////////////////////////////
		case '3':TX_NEWLINE;
		_delay_ms(200);
		currentpineapples1=ini_pineapplewhole;
		currentpineapples=currentpineapples1;
		for (int i = 3; i >= 0; i--)
    38e8:	ec 17       	cp	r30, r28
    38ea:	fd 07       	cpc	r31, r29
    38ec:	b1 f7       	brne	.-20     	; 0x38da <menu+0x1202>
    38ee:	60 93 c6 02 	sts	0x02C6, r22	; 0x8002c6 <currentpineapples>
    38f2:	70 93 c7 02 	sts	0x02C7, r23	; 0x8002c7 <currentpineapples+0x1>
		{
			currentpineapplesarray[i] = currentpineapples% 10;
			currentpineapples = currentpineapples/ 10;
		}
		TX_NEWLINE;
    38f6:	8d e0       	ldi	r24, 0x0D	; 13
    38f8:	0e 94 de 0d 	call	0x1bbc	; 0x1bbc <transmitByte>
    38fc:	8a e0       	ldi	r24, 0x0A	; 10
    38fe:	0e 94 de 0d 	call	0x1bbc	; 0x1bbc <transmitByte>
		    transmitString_F(PSTR("PERCENTAGES FOR THE FOUR FRUITS SHOULD TOTAL TO 100"));
    3902:	80 ea       	ldi	r24, 0xA0	; 160
    3904:	9c e0       	ldi	r25, 0x0C	; 12
    3906:	0e 94 e2 0d 	call	0x1bc4	; 0x1bc4 <transmitString_F>
			TX_NEWLINE;
    390a:	8d e0       	ldi	r24, 0x0D	; 13
    390c:	0e 94 de 0d 	call	0x1bbc	; 0x1bbc <transmitByte>
    3910:	8a e0       	ldi	r24, 0x0A	; 10
    3912:	0e 94 de 0d 	call	0x1bbc	; 0x1bbc <transmitByte>
		transmitString_F(PSTR("You have selected the third category of fruits"));
    3916:	81 e7       	ldi	r24, 0x71	; 113
    3918:	9c e0       	ldi	r25, 0x0C	; 12
    391a:	0e 94 e2 0d 	call	0x1bc4	; 0x1bc4 <transmitString_F>
		TX_NEWLINE;
    391e:	8d e0       	ldi	r24, 0x0D	; 13
    3920:	0e 94 de 0d 	call	0x1bbc	; 0x1bbc <transmitByte>
    3924:	8a e0       	ldi	r24, 0x0A	; 10
    3926:	0e 94 de 0d 	call	0x1bbc	; 0x1bbc <transmitByte>
		transmitString_F(PSTR("Enter the percentage of oranges"));
    392a:	81 e5       	ldi	r24, 0x51	; 81
    392c:	9c e0       	ldi	r25, 0x0C	; 12
    392e:	0e 94 e2 0d 	call	0x1bc4	; 0x1bc4 <transmitString_F>
		TX_NEWLINE;
    3932:	8d e0       	ldi	r24, 0x0D	; 13
    3934:	0e 94 de 0d 	call	0x1bbc	; 0x1bbc <transmitByte>
    3938:	8a e0       	ldi	r24, 0x0A	; 10
    393a:	0e 94 de 0d 	call	0x1bbc	; 0x1bbc <transmitByte>
		 TX_NEWLINE;
    393e:	8d e0       	ldi	r24, 0x0D	; 13
    3940:	0e 94 de 0d 	call	0x1bbc	; 0x1bbc <transmitByte>
    3944:	8a e0       	ldi	r24, 0x0A	; 10
    3946:	0e 94 de 0d 	call	0x1bbc	; 0x1bbc <transmitByte>
		  transmitByte(' ');
    394a:	80 e2       	ldi	r24, 0x20	; 32
    394c:	0e 94 de 0d 	call	0x1bbc	; 0x1bbc <transmitByte>
		   data= receiveByte(); transmitByte(data);
    3950:	0e 94 da 0d 	call	0x1bb4	; 0x1bb4 <receiveByte>
    3954:	80 93 af 02 	sts	0x02AF, r24	; 0x8002af <data>
    3958:	0e 94 de 0d 	call	0x1bbc	; 0x1bbc <transmitByte>
		   orangespercentage[0] = (data & 0x0f); //
    395c:	c2 e5       	ldi	r28, 0x52	; 82
    395e:	d2 e0       	ldi	r29, 0x02	; 2
    3960:	80 91 af 02 	lds	r24, 0x02AF	; 0x8002af <data>
    3964:	8f 70       	andi	r24, 0x0F	; 15
    3966:	90 e0       	ldi	r25, 0x00	; 0
    3968:	99 83       	std	Y+1, r25	; 0x01
    396a:	88 83       	st	Y, r24
		  
		    transmitByte(' ');	
    396c:	80 e2       	ldi	r24, 0x20	; 32
    396e:	0e 94 de 0d 	call	0x1bbc	; 0x1bbc <transmitByte>
			data = receiveByte(); transmitByte(data);
    3972:	0e 94 da 0d 	call	0x1bb4	; 0x1bb4 <receiveByte>
    3976:	80 93 af 02 	sts	0x02AF, r24	; 0x8002af <data>
    397a:	0e 94 de 0d 	call	0x1bbc	; 0x1bbc <transmitByte>
		   orangespercentage[1] = (data & 0x0f); //
    397e:	20 91 af 02 	lds	r18, 0x02AF	; 0x8002af <data>
    3982:	2f 70       	andi	r18, 0x0F	; 15
    3984:	62 2f       	mov	r22, r18
    3986:	70 e0       	ldi	r23, 0x00	; 0
    3988:	7b 83       	std	Y+3, r23	; 0x03
    398a:	6a 83       	std	Y+2, r22	; 0x02
		   //////////////////////////////////
		      for (int i=0;i<2;i++)
		   {
			   orangespercentagewhole=10*orangespercentagewhole+orangespercentage[i];
    398c:	20 91 cc 02 	lds	r18, 0x02CC	; 0x8002cc <orangespercentagewhole>
    3990:	30 91 cd 02 	lds	r19, 0x02CD	; 0x8002cd <orangespercentagewhole+0x1>
    3994:	c9 01       	movw	r24, r18
    3996:	88 0f       	add	r24, r24
    3998:	99 1f       	adc	r25, r25
    399a:	22 0f       	add	r18, r18
    399c:	33 1f       	adc	r19, r19
    399e:	22 0f       	add	r18, r18
    39a0:	33 1f       	adc	r19, r19
    39a2:	22 0f       	add	r18, r18
    39a4:	33 1f       	adc	r19, r19
    39a6:	82 0f       	add	r24, r18
    39a8:	93 1f       	adc	r25, r19
    39aa:	48 81       	ld	r20, Y
    39ac:	59 81       	ldd	r21, Y+1	; 0x01
    39ae:	84 0f       	add	r24, r20
    39b0:	95 1f       	adc	r25, r21
    39b2:	9c 01       	movw	r18, r24
    39b4:	22 0f       	add	r18, r18
    39b6:	33 1f       	adc	r19, r19
    39b8:	88 0f       	add	r24, r24
    39ba:	99 1f       	adc	r25, r25
    39bc:	88 0f       	add	r24, r24
    39be:	99 1f       	adc	r25, r25
    39c0:	88 0f       	add	r24, r24
    39c2:	99 1f       	adc	r25, r25
    39c4:	82 0f       	add	r24, r18
    39c6:	93 1f       	adc	r25, r19
    39c8:	9b 01       	movw	r18, r22
    39ca:	28 0f       	add	r18, r24
    39cc:	39 1f       	adc	r19, r25
    39ce:	30 93 cd 02 	sts	0x02CD, r19	; 0x8002cd <orangespercentagewhole+0x1>
    39d2:	20 93 cc 02 	sts	0x02CC, r18	; 0x8002cc <orangespercentagewhole>
		   }
		   currentoranges1=ini_orangewhole-(orangespercentagewhole*30);
    39d6:	62 ee       	ldi	r22, 0xE2	; 226
    39d8:	62 03       	mulsu	r22, r18
    39da:	a0 01       	movw	r20, r0
    39dc:	63 9f       	mul	r22, r19
    39de:	50 0d       	add	r21, r0
    39e0:	11 24       	eor	r1, r1
    39e2:	80 91 b6 02 	lds	r24, 0x02B6	; 0x8002b6 <ini_orangewhole>
    39e6:	90 91 b7 02 	lds	r25, 0x02B7	; 0x8002b7 <ini_orangewhole+0x1>
    39ea:	84 0f       	add	r24, r20
    39ec:	95 1f       	adc	r25, r21
    39ee:	90 93 81 02 	sts	0x0281, r25	; 0x800281 <currentoranges1+0x1>
    39f2:	80 93 80 02 	sts	0x0280, r24	; 0x800280 <currentoranges1>
    39f6:	ec e3       	ldi	r30, 0x3C	; 60
    39f8:	f2 e0       	ldi	r31, 0x02	; 2
    39fa:	c4 e3       	ldi	r28, 0x34	; 52
    39fc:	d2 e0       	ldi	r29, 0x02	; 2
		   currentoranges=currentoranges1;
		   ////////////////////////////////
		   for (int i = 3; i >= 0; i--)
{
   currentorangesarray[i] = currentoranges % 10;
    39fe:	2a e0       	ldi	r18, 0x0A	; 10
    3a00:	30 e0       	ldi	r19, 0x00	; 0
    3a02:	b9 01       	movw	r22, r18
    3a04:	0e 94 db 2d 	call	0x5bb6	; 0x5bb6 <__divmodhi4>
    3a08:	92 93       	st	-Z, r25
    3a0a:	82 93       	st	-Z, r24
    currentoranges = currentoranges/ 10;
    3a0c:	86 2f       	mov	r24, r22
    3a0e:	97 2f       	mov	r25, r23
			   orangespercentagewhole=10*orangespercentagewhole+orangespercentage[i];
		   }
		   currentoranges1=ini_orangewhole-(orangespercentagewhole*30);
		   currentoranges=currentoranges1;
		   ////////////////////////////////
		   for (int i = 3; i >= 0; i--)
    3a10:	ec 17       	cp	r30, r28
    3a12:	fd 07       	cpc	r31, r29
    3a14:	b1 f7       	brne	.-20     	; 0x3a02 <menu+0x132a>
    3a16:	90 93 c1 02 	sts	0x02C1, r25	; 0x8002c1 <currentoranges+0x1>
    3a1a:	80 93 c0 02 	sts	0x02C0, r24	; 0x8002c0 <currentoranges>
{
   currentorangesarray[i] = currentoranges % 10;
    currentoranges = currentoranges/ 10;
}
  TX_NEWLINE;
    3a1e:	8d e0       	ldi	r24, 0x0D	; 13
    3a20:	0e 94 de 0d 	call	0x1bbc	; 0x1bbc <transmitByte>
    3a24:	8a e0       	ldi	r24, 0x0A	; 10
    3a26:	0e 94 de 0d 	call	0x1bbc	; 0x1bbc <transmitByte>
			   transmitString_F(PSTR("ORANGES REMAINING ARE :"));
    3a2a:	89 e3       	ldi	r24, 0x39	; 57
    3a2c:	9c e0       	ldi	r25, 0x0C	; 12
    3a2e:	0e 94 e2 0d 	call	0x1bc4	; 0x1bc4 <transmitString_F>
			   transmitInt(currentorangesarray[0]);
    3a32:	c4 e3       	ldi	r28, 0x34	; 52
    3a34:	d2 e0       	ldi	r29, 0x02	; 2
    3a36:	88 81       	ld	r24, Y
    3a38:	0e 94 02 0e 	call	0x1c04	; 0x1c04 <transmitInt>
			    transmitInt(currentorangesarray[1]);
    3a3c:	8a 81       	ldd	r24, Y+2	; 0x02
    3a3e:	0e 94 02 0e 	call	0x1c04	; 0x1c04 <transmitInt>
				 transmitInt(currentorangesarray[2]);
    3a42:	8c 81       	ldd	r24, Y+4	; 0x04
    3a44:	0e 94 02 0e 	call	0x1c04	; 0x1c04 <transmitInt>
				 transmitInt(currentorangesarray[3]);		 
    3a48:	8e 81       	ldd	r24, Y+6	; 0x06
    3a4a:	0e 94 02 0e 	call	0x1c04	; 0x1c04 <transmitInt>
		   
		   
		   
		   
		   
		 TX_NEWLINE;
    3a4e:	8d e0       	ldi	r24, 0x0D	; 13
    3a50:	0e 94 de 0d 	call	0x1bbc	; 0x1bbc <transmitByte>
    3a54:	8a e0       	ldi	r24, 0x0A	; 10
    3a56:	0e 94 de 0d 	call	0x1bbc	; 0x1bbc <transmitByte>
			   transmitString_F(PSTR("Orange percentage selected:"));
    3a5a:	8d e1       	ldi	r24, 0x1D	; 29
    3a5c:	9c e0       	ldi	r25, 0x0C	; 12
    3a5e:	0e 94 e2 0d 	call	0x1bc4	; 0x1bc4 <transmitString_F>
			   transmitInt(orangespercentage[0]);
    3a62:	c2 e5       	ldi	r28, 0x52	; 82
    3a64:	d2 e0       	ldi	r29, 0x02	; 2
    3a66:	88 81       	ld	r24, Y
    3a68:	0e 94 02 0e 	call	0x1c04	; 0x1c04 <transmitInt>
			    transmitInt(orangespercentage[1]);
    3a6c:	8a 81       	ldd	r24, Y+2	; 0x02
    3a6e:	0e 94 02 0e 	call	0x1c04	; 0x1c04 <transmitInt>
				//////////////////////////////////////////////////////////////////
				 TX_NEWLINE;
    3a72:	8d e0       	ldi	r24, 0x0D	; 13
    3a74:	0e 94 de 0d 	call	0x1bbc	; 0x1bbc <transmitByte>
    3a78:	8a e0       	ldi	r24, 0x0A	; 10
    3a7a:	0e 94 de 0d 	call	0x1bbc	; 0x1bbc <transmitByte>
				transmitString_F(PSTR("Enter the percentage of mangoes"));
    3a7e:	8d ef       	ldi	r24, 0xFD	; 253
    3a80:	9b e0       	ldi	r25, 0x0B	; 11
    3a82:	0e 94 e2 0d 	call	0x1bc4	; 0x1bc4 <transmitString_F>
		TX_NEWLINE;
    3a86:	8d e0       	ldi	r24, 0x0D	; 13
    3a88:	0e 94 de 0d 	call	0x1bbc	; 0x1bbc <transmitByte>
    3a8c:	8a e0       	ldi	r24, 0x0A	; 10
    3a8e:	0e 94 de 0d 	call	0x1bbc	; 0x1bbc <transmitByte>
		 TX_NEWLINE;
    3a92:	8d e0       	ldi	r24, 0x0D	; 13
    3a94:	0e 94 de 0d 	call	0x1bbc	; 0x1bbc <transmitByte>
    3a98:	8a e0       	ldi	r24, 0x0A	; 10
    3a9a:	0e 94 de 0d 	call	0x1bbc	; 0x1bbc <transmitByte>
		  transmitByte(' ');
    3a9e:	80 e2       	ldi	r24, 0x20	; 32
    3aa0:	0e 94 de 0d 	call	0x1bbc	; 0x1bbc <transmitByte>
		   data= receiveByte(); transmitByte(data);
    3aa4:	0e 94 da 0d 	call	0x1bb4	; 0x1bb4 <receiveByte>
    3aa8:	80 93 af 02 	sts	0x02AF, r24	; 0x8002af <data>
    3aac:	0e 94 de 0d 	call	0x1bbc	; 0x1bbc <transmitByte>
		   mangoespercentage[0] = (data & 0x0f); //
    3ab0:	ce e4       	ldi	r28, 0x4E	; 78
    3ab2:	d2 e0       	ldi	r29, 0x02	; 2
    3ab4:	80 91 af 02 	lds	r24, 0x02AF	; 0x8002af <data>
    3ab8:	8f 70       	andi	r24, 0x0F	; 15
    3aba:	90 e0       	ldi	r25, 0x00	; 0
    3abc:	99 83       	std	Y+1, r25	; 0x01
    3abe:	88 83       	st	Y, r24
		  
		    transmitByte(' ');	
    3ac0:	80 e2       	ldi	r24, 0x20	; 32
    3ac2:	0e 94 de 0d 	call	0x1bbc	; 0x1bbc <transmitByte>
			data = receiveByte(); transmitByte(data);
    3ac6:	0e 94 da 0d 	call	0x1bb4	; 0x1bb4 <receiveByte>
    3aca:	80 93 af 02 	sts	0x02AF, r24	; 0x8002af <data>
    3ace:	0e 94 de 0d 	call	0x1bbc	; 0x1bbc <transmitByte>
		   mangoespercentage[1] = (data & 0x0f); //
    3ad2:	20 91 af 02 	lds	r18, 0x02AF	; 0x8002af <data>
    3ad6:	2f 70       	andi	r18, 0x0F	; 15
    3ad8:	62 2f       	mov	r22, r18
    3ada:	70 e0       	ldi	r23, 0x00	; 0
    3adc:	7b 83       	std	Y+3, r23	; 0x03
    3ade:	6a 83       	std	Y+2, r22	; 0x02
		   /////////////////////////////////////////////
		        for (int i=0;i<2;i++)
		   {
			   mangoespercentagewhole=10*mangoespercentagewhole+mangoespercentage[i];
    3ae0:	20 91 ca 02 	lds	r18, 0x02CA	; 0x8002ca <mangoespercentagewhole>
    3ae4:	30 91 cb 02 	lds	r19, 0x02CB	; 0x8002cb <mangoespercentagewhole+0x1>
    3ae8:	c9 01       	movw	r24, r18
    3aea:	88 0f       	add	r24, r24
    3aec:	99 1f       	adc	r25, r25
    3aee:	22 0f       	add	r18, r18
    3af0:	33 1f       	adc	r19, r19
    3af2:	22 0f       	add	r18, r18
    3af4:	33 1f       	adc	r19, r19
    3af6:	22 0f       	add	r18, r18
    3af8:	33 1f       	adc	r19, r19
    3afa:	82 0f       	add	r24, r18
    3afc:	93 1f       	adc	r25, r19
    3afe:	48 81       	ld	r20, Y
    3b00:	59 81       	ldd	r21, Y+1	; 0x01
    3b02:	84 0f       	add	r24, r20
    3b04:	95 1f       	adc	r25, r21
    3b06:	9c 01       	movw	r18, r24
    3b08:	22 0f       	add	r18, r18
    3b0a:	33 1f       	adc	r19, r19
    3b0c:	88 0f       	add	r24, r24
    3b0e:	99 1f       	adc	r25, r25
    3b10:	88 0f       	add	r24, r24
    3b12:	99 1f       	adc	r25, r25
    3b14:	88 0f       	add	r24, r24
    3b16:	99 1f       	adc	r25, r25
    3b18:	82 0f       	add	r24, r18
    3b1a:	93 1f       	adc	r25, r19
    3b1c:	9b 01       	movw	r18, r22
    3b1e:	28 0f       	add	r18, r24
    3b20:	39 1f       	adc	r19, r25
    3b22:	30 93 cb 02 	sts	0x02CB, r19	; 0x8002cb <mangoespercentagewhole+0x1>
    3b26:	20 93 ca 02 	sts	0x02CA, r18	; 0x8002ca <mangoespercentagewhole>
		   }
		   	   currentmangoes1=ini_mangowhole-(mangoespercentagewhole*30);
    3b2a:	62 ee       	ldi	r22, 0xE2	; 226
    3b2c:	62 03       	mulsu	r22, r18
    3b2e:	a0 01       	movw	r20, r0
    3b30:	63 9f       	mul	r22, r19
    3b32:	50 0d       	add	r21, r0
    3b34:	11 24       	eor	r1, r1
    3b36:	80 91 8a 02 	lds	r24, 0x028A	; 0x80028a <ini_mangowhole>
    3b3a:	90 91 8b 02 	lds	r25, 0x028B	; 0x80028b <ini_mangowhole+0x1>
    3b3e:	84 0f       	add	r24, r20
    3b40:	95 1f       	adc	r25, r21
    3b42:	90 93 85 02 	sts	0x0285, r25	; 0x800285 <currentmangoes1+0x1>
    3b46:	80 93 84 02 	sts	0x0284, r24	; 0x800284 <currentmangoes1>
    3b4a:	e4 e3       	ldi	r30, 0x34	; 52
    3b4c:	f2 e0       	ldi	r31, 0x02	; 2
    3b4e:	cc e2       	ldi	r28, 0x2C	; 44
    3b50:	d2 e0       	ldi	r29, 0x02	; 2
				  currentmangoes=currentmangoes1;
		   ////////////////////////////////
		   for (int i = 3; i >= 0; i--)
{
   currentmangoesarray[i] = currentmangoes % 10;
    3b52:	2a e0       	ldi	r18, 0x0A	; 10
    3b54:	30 e0       	ldi	r19, 0x00	; 0
    3b56:	b9 01       	movw	r22, r18
    3b58:	0e 94 db 2d 	call	0x5bb6	; 0x5bb6 <__divmodhi4>
    3b5c:	92 93       	st	-Z, r25
    3b5e:	82 93       	st	-Z, r24
    currentmangoes = currentmangoes/ 10;
    3b60:	86 2f       	mov	r24, r22
    3b62:	97 2f       	mov	r25, r23
			   mangoespercentagewhole=10*mangoespercentagewhole+mangoespercentage[i];
		   }
		   	   currentmangoes1=ini_mangowhole-(mangoespercentagewhole*30);
				  currentmangoes=currentmangoes1;
		   ////////////////////////////////
		   for (int i = 3; i >= 0; i--)
    3b64:	ec 17       	cp	r30, r28
    3b66:	fd 07       	cpc	r31, r29
    3b68:	b1 f7       	brne	.-20     	; 0x3b56 <menu+0x147e>
    3b6a:	90 93 90 02 	sts	0x0290, r25	; 0x800290 <currentmangoes+0x1>
    3b6e:	80 93 8f 02 	sts	0x028F, r24	; 0x80028f <currentmangoes>
{
   currentmangoesarray[i] = currentmangoes % 10;
    currentmangoes = currentmangoes/ 10;
}
  TX_NEWLINE;
    3b72:	8d e0       	ldi	r24, 0x0D	; 13
    3b74:	0e 94 de 0d 	call	0x1bbc	; 0x1bbc <transmitByte>
    3b78:	8a e0       	ldi	r24, 0x0A	; 10
    3b7a:	0e 94 de 0d 	call	0x1bbc	; 0x1bbc <transmitByte>
			   transmitString_F(PSTR("MANGOES REMAINING ARE :"));
    3b7e:	85 ee       	ldi	r24, 0xE5	; 229
    3b80:	9b e0       	ldi	r25, 0x0B	; 11
    3b82:	0e 94 e2 0d 	call	0x1bc4	; 0x1bc4 <transmitString_F>
			   transmitInt(currentmangoesarray[0]);
    3b86:	cc e2       	ldi	r28, 0x2C	; 44
    3b88:	d2 e0       	ldi	r29, 0x02	; 2
    3b8a:	88 81       	ld	r24, Y
    3b8c:	0e 94 02 0e 	call	0x1c04	; 0x1c04 <transmitInt>
			    transmitInt(currentmangoesarray[1]);
    3b90:	8a 81       	ldd	r24, Y+2	; 0x02
    3b92:	0e 94 02 0e 	call	0x1c04	; 0x1c04 <transmitInt>
				 transmitInt(currentmangoesarray[2]);
    3b96:	8c 81       	ldd	r24, Y+4	; 0x04
    3b98:	0e 94 02 0e 	call	0x1c04	; 0x1c04 <transmitInt>
				 transmitInt(currentmangoesarray[3]);		  
    3b9c:	8e 81       	ldd	r24, Y+6	; 0x06
    3b9e:	0e 94 02 0e 	call	0x1c04	; 0x1c04 <transmitInt>
	TX_NEWLINE;
    3ba2:	8d e0       	ldi	r24, 0x0D	; 13
    3ba4:	0e 94 de 0d 	call	0x1bbc	; 0x1bbc <transmitByte>
    3ba8:	8a e0       	ldi	r24, 0x0A	; 10
    3baa:	0e 94 de 0d 	call	0x1bbc	; 0x1bbc <transmitByte>
		   
		   
		 TX_NEWLINE;
    3bae:	8d e0       	ldi	r24, 0x0D	; 13
    3bb0:	0e 94 de 0d 	call	0x1bbc	; 0x1bbc <transmitByte>
    3bb4:	8a e0       	ldi	r24, 0x0A	; 10
    3bb6:	0e 94 de 0d 	call	0x1bbc	; 0x1bbc <transmitByte>
			   transmitString_F(PSTR("Mangoes percentage selected:"));
    3bba:	88 ec       	ldi	r24, 0xC8	; 200
    3bbc:	9b e0       	ldi	r25, 0x0B	; 11
    3bbe:	0e 94 e2 0d 	call	0x1bc4	; 0x1bc4 <transmitString_F>
			   transmitInt(mangoespercentage[0]);
    3bc2:	ce e4       	ldi	r28, 0x4E	; 78
    3bc4:	d2 e0       	ldi	r29, 0x02	; 2
    3bc6:	88 81       	ld	r24, Y
    3bc8:	0e 94 02 0e 	call	0x1c04	; 0x1c04 <transmitInt>
			    transmitInt(mangoespercentage[1]);
    3bcc:	8a 81       	ldd	r24, Y+2	; 0x02
    3bce:	0e 94 02 0e 	call	0x1c04	; 0x1c04 <transmitInt>
				
				//////////////////////////////////////////////////////////////
				 TX_NEWLINE;
    3bd2:	8d e0       	ldi	r24, 0x0D	; 13
    3bd4:	0e 94 de 0d 	call	0x1bbc	; 0x1bbc <transmitByte>
    3bd8:	8a e0       	ldi	r24, 0x0A	; 10
    3bda:	0e 94 de 0d 	call	0x1bbc	; 0x1bbc <transmitByte>
						transmitString_F(PSTR("Enter the percentage of apples"));
    3bde:	89 ea       	ldi	r24, 0xA9	; 169
    3be0:	9b e0       	ldi	r25, 0x0B	; 11
    3be2:	0e 94 e2 0d 	call	0x1bc4	; 0x1bc4 <transmitString_F>
		TX_NEWLINE;
    3be6:	8d e0       	ldi	r24, 0x0D	; 13
    3be8:	0e 94 de 0d 	call	0x1bbc	; 0x1bbc <transmitByte>
    3bec:	8a e0       	ldi	r24, 0x0A	; 10
    3bee:	0e 94 de 0d 	call	0x1bbc	; 0x1bbc <transmitByte>
		 TX_NEWLINE;
    3bf2:	8d e0       	ldi	r24, 0x0D	; 13
    3bf4:	0e 94 de 0d 	call	0x1bbc	; 0x1bbc <transmitByte>
    3bf8:	8a e0       	ldi	r24, 0x0A	; 10
    3bfa:	0e 94 de 0d 	call	0x1bbc	; 0x1bbc <transmitByte>
		  transmitByte(' ');
    3bfe:	80 e2       	ldi	r24, 0x20	; 32
    3c00:	0e 94 de 0d 	call	0x1bbc	; 0x1bbc <transmitByte>
		   data= receiveByte(); transmitByte(data);
    3c04:	0e 94 da 0d 	call	0x1bb4	; 0x1bb4 <receiveByte>
    3c08:	80 93 af 02 	sts	0x02AF, r24	; 0x8002af <data>
    3c0c:	0e 94 de 0d 	call	0x1bbc	; 0x1bbc <transmitByte>
		   applespercentage[0] = (data & 0x0f); //
    3c10:	c2 e4       	ldi	r28, 0x42	; 66
    3c12:	d2 e0       	ldi	r29, 0x02	; 2
    3c14:	80 91 af 02 	lds	r24, 0x02AF	; 0x8002af <data>
    3c18:	8f 70       	andi	r24, 0x0F	; 15
    3c1a:	90 e0       	ldi	r25, 0x00	; 0
    3c1c:	99 83       	std	Y+1, r25	; 0x01
    3c1e:	88 83       	st	Y, r24
		  
		    transmitByte(' ');	
    3c20:	80 e2       	ldi	r24, 0x20	; 32
    3c22:	0e 94 de 0d 	call	0x1bbc	; 0x1bbc <transmitByte>
			data = receiveByte(); transmitByte(data);
    3c26:	0e 94 da 0d 	call	0x1bb4	; 0x1bb4 <receiveByte>
    3c2a:	80 93 af 02 	sts	0x02AF, r24	; 0x8002af <data>
    3c2e:	0e 94 de 0d 	call	0x1bbc	; 0x1bbc <transmitByte>
		   applespercentage[1] = (data & 0x0f); //
    3c32:	20 91 af 02 	lds	r18, 0x02AF	; 0x8002af <data>
    3c36:	2f 70       	andi	r18, 0x0F	; 15
    3c38:	62 2f       	mov	r22, r18
    3c3a:	70 e0       	ldi	r23, 0x00	; 0
    3c3c:	7b 83       	std	Y+3, r23	; 0x03
    3c3e:	6a 83       	std	Y+2, r22	; 0x02
		   ///////////////////////////////////
		   
		   	     for (int i=0;i<2;i++)
		   {
			   applespercentagewhole=10*applespercentagewhole+applespercentage[i];
    3c40:	20 91 91 02 	lds	r18, 0x0291	; 0x800291 <applespercentagewhole>
    3c44:	30 91 92 02 	lds	r19, 0x0292	; 0x800292 <applespercentagewhole+0x1>
    3c48:	c9 01       	movw	r24, r18
    3c4a:	88 0f       	add	r24, r24
    3c4c:	99 1f       	adc	r25, r25
    3c4e:	22 0f       	add	r18, r18
    3c50:	33 1f       	adc	r19, r19
    3c52:	22 0f       	add	r18, r18
    3c54:	33 1f       	adc	r19, r19
    3c56:	22 0f       	add	r18, r18
    3c58:	33 1f       	adc	r19, r19
    3c5a:	82 0f       	add	r24, r18
    3c5c:	93 1f       	adc	r25, r19
    3c5e:	48 81       	ld	r20, Y
    3c60:	59 81       	ldd	r21, Y+1	; 0x01
    3c62:	84 0f       	add	r24, r20
    3c64:	95 1f       	adc	r25, r21
    3c66:	9c 01       	movw	r18, r24
    3c68:	22 0f       	add	r18, r18
    3c6a:	33 1f       	adc	r19, r19
    3c6c:	88 0f       	add	r24, r24
    3c6e:	99 1f       	adc	r25, r25
    3c70:	88 0f       	add	r24, r24
    3c72:	99 1f       	adc	r25, r25
    3c74:	88 0f       	add	r24, r24
    3c76:	99 1f       	adc	r25, r25
    3c78:	82 0f       	add	r24, r18
    3c7a:	93 1f       	adc	r25, r19
    3c7c:	9b 01       	movw	r18, r22
    3c7e:	28 0f       	add	r18, r24
    3c80:	39 1f       	adc	r19, r25
    3c82:	30 93 92 02 	sts	0x0292, r19	; 0x800292 <applespercentagewhole+0x1>
    3c86:	20 93 91 02 	sts	0x0291, r18	; 0x800291 <applespercentagewhole>
		   }
		   	   currentapples1=ini_applewhole-(applespercentagewhole*30);
    3c8a:	62 ee       	ldi	r22, 0xE2	; 226
    3c8c:	62 03       	mulsu	r22, r18
    3c8e:	a0 01       	movw	r20, r0
    3c90:	63 9f       	mul	r22, r19
    3c92:	50 0d       	add	r21, r0
    3c94:	11 24       	eor	r1, r1
    3c96:	80 91 c2 02 	lds	r24, 0x02C2	; 0x8002c2 <ini_applewhole>
    3c9a:	90 91 c3 02 	lds	r25, 0x02C3	; 0x8002c3 <ini_applewhole+0x1>
    3c9e:	84 0f       	add	r24, r20
    3ca0:	95 1f       	adc	r25, r21
    3ca2:	90 93 cf 02 	sts	0x02CF, r25	; 0x8002cf <currentapples1+0x1>
    3ca6:	80 93 ce 02 	sts	0x02CE, r24	; 0x8002ce <currentapples1>
    3caa:	ec e2       	ldi	r30, 0x2C	; 44
    3cac:	f2 e0       	ldi	r31, 0x02	; 2
    3cae:	c4 e2       	ldi	r28, 0x24	; 36
    3cb0:	d2 e0       	ldi	r29, 0x02	; 2
				  currentapples=currentapples1;
		   ////////////////////////////////
		   for (int i = 3; i >= 0; i--)
{
   currentapplesarray[i] = currentapples % 10;
    3cb2:	2a e0       	ldi	r18, 0x0A	; 10
    3cb4:	30 e0       	ldi	r19, 0x00	; 0
    3cb6:	b9 01       	movw	r22, r18
    3cb8:	0e 94 db 2d 	call	0x5bb6	; 0x5bb6 <__divmodhi4>
    3cbc:	92 93       	st	-Z, r25
    3cbe:	82 93       	st	-Z, r24
    currentapples = currentapples/ 10;
    3cc0:	86 2f       	mov	r24, r22
    3cc2:	97 2f       	mov	r25, r23
			   applespercentagewhole=10*applespercentagewhole+applespercentage[i];
		   }
		   	   currentapples1=ini_applewhole-(applespercentagewhole*30);
				  currentapples=currentapples1;
		   ////////////////////////////////
		   for (int i = 3; i >= 0; i--)
    3cc4:	ec 17       	cp	r30, r28
    3cc6:	fd 07       	cpc	r31, r29
    3cc8:	b1 f7       	brne	.-20     	; 0x3cb6 <menu+0x15de>
    3cca:	90 93 b5 02 	sts	0x02B5, r25	; 0x8002b5 <currentapples+0x1>
    3cce:	80 93 b4 02 	sts	0x02B4, r24	; 0x8002b4 <currentapples>
{
   currentapplesarray[i] = currentapples % 10;
    currentapples = currentapples/ 10;
}
  TX_NEWLINE;
    3cd2:	8d e0       	ldi	r24, 0x0D	; 13
    3cd4:	0e 94 de 0d 	call	0x1bbc	; 0x1bbc <transmitByte>
    3cd8:	8a e0       	ldi	r24, 0x0A	; 10
    3cda:	0e 94 de 0d 	call	0x1bbc	; 0x1bbc <transmitByte>
			   transmitString_F(PSTR("APPLES REMAINING ARE :"));
    3cde:	82 e9       	ldi	r24, 0x92	; 146
    3ce0:	9b e0       	ldi	r25, 0x0B	; 11
    3ce2:	0e 94 e2 0d 	call	0x1bc4	; 0x1bc4 <transmitString_F>
			   transmitInt(currentapplesarray[0]);
    3ce6:	c4 e2       	ldi	r28, 0x24	; 36
    3ce8:	d2 e0       	ldi	r29, 0x02	; 2
    3cea:	88 81       	ld	r24, Y
    3cec:	0e 94 02 0e 	call	0x1c04	; 0x1c04 <transmitInt>
			    transmitInt(currentapplesarray[1]);
    3cf0:	8a 81       	ldd	r24, Y+2	; 0x02
    3cf2:	0e 94 02 0e 	call	0x1c04	; 0x1c04 <transmitInt>
				 transmitInt(currentapplesarray[2]);
    3cf6:	8c 81       	ldd	r24, Y+4	; 0x04
    3cf8:	0e 94 02 0e 	call	0x1c04	; 0x1c04 <transmitInt>
				 transmitInt(currentapplesarray[3]);	
    3cfc:	8e 81       	ldd	r24, Y+6	; 0x06
    3cfe:	0e 94 02 0e 	call	0x1c04	; 0x1c04 <transmitInt>
		 TX_NEWLINE;
    3d02:	8d e0       	ldi	r24, 0x0D	; 13
    3d04:	0e 94 de 0d 	call	0x1bbc	; 0x1bbc <transmitByte>
    3d08:	8a e0       	ldi	r24, 0x0A	; 10
    3d0a:	0e 94 de 0d 	call	0x1bbc	; 0x1bbc <transmitByte>
			   transmitString_F(PSTR("Pineapples percentage selected:"));
    3d0e:	82 e7       	ldi	r24, 0x72	; 114
    3d10:	9b e0       	ldi	r25, 0x0B	; 11
    3d12:	0e 94 e2 0d 	call	0x1bc4	; 0x1bc4 <transmitString_F>
			   transmitInt(applespercentage[0]);
    3d16:	c2 e4       	ldi	r28, 0x42	; 66
    3d18:	d2 e0       	ldi	r29, 0x02	; 2
    3d1a:	88 81       	ld	r24, Y
    3d1c:	0e 94 02 0e 	call	0x1c04	; 0x1c04 <transmitInt>
			    transmitInt(applespercentage[1]);
    3d20:	8a 81       	ldd	r24, Y+2	; 0x02
    3d22:	0e 94 02 0e 	call	0x1c04	; 0x1c04 <transmitInt>
				//////////////////////////////////////////////
				 TX_NEWLINE;
    3d26:	8d e0       	ldi	r24, 0x0D	; 13
    3d28:	0e 94 de 0d 	call	0x1bbc	; 0x1bbc <transmitByte>
    3d2c:	8a e0       	ldi	r24, 0x0A	; 10
    3d2e:	0e 94 de 0d 	call	0x1bbc	; 0x1bbc <transmitByte>
						transmitString_F(PSTR("Enter the percentage of guavas"));
    3d32:	83 e5       	ldi	r24, 0x53	; 83
    3d34:	9b e0       	ldi	r25, 0x0B	; 11
    3d36:	0e 94 e2 0d 	call	0x1bc4	; 0x1bc4 <transmitString_F>
		TX_NEWLINE;
    3d3a:	8d e0       	ldi	r24, 0x0D	; 13
    3d3c:	0e 94 de 0d 	call	0x1bbc	; 0x1bbc <transmitByte>
    3d40:	8a e0       	ldi	r24, 0x0A	; 10
    3d42:	0e 94 de 0d 	call	0x1bbc	; 0x1bbc <transmitByte>
		 TX_NEWLINE;
    3d46:	8d e0       	ldi	r24, 0x0D	; 13
    3d48:	0e 94 de 0d 	call	0x1bbc	; 0x1bbc <transmitByte>
    3d4c:	8a e0       	ldi	r24, 0x0A	; 10
    3d4e:	0e 94 de 0d 	call	0x1bbc	; 0x1bbc <transmitByte>
		  transmitByte(' ');
    3d52:	80 e2       	ldi	r24, 0x20	; 32
    3d54:	0e 94 de 0d 	call	0x1bbc	; 0x1bbc <transmitByte>
		   data= receiveByte(); transmitByte(data);
    3d58:	0e 94 da 0d 	call	0x1bb4	; 0x1bb4 <receiveByte>
    3d5c:	80 93 af 02 	sts	0x02AF, r24	; 0x8002af <data>
    3d60:	0e 94 de 0d 	call	0x1bbc	; 0x1bbc <transmitByte>
		   guavaspercentage[0] = (data & 0x0f); //
    3d64:	ca e4       	ldi	r28, 0x4A	; 74
    3d66:	d2 e0       	ldi	r29, 0x02	; 2
    3d68:	80 91 af 02 	lds	r24, 0x02AF	; 0x8002af <data>
    3d6c:	8f 70       	andi	r24, 0x0F	; 15
    3d6e:	90 e0       	ldi	r25, 0x00	; 0
    3d70:	99 83       	std	Y+1, r25	; 0x01
    3d72:	88 83       	st	Y, r24
		  
		    transmitByte(' ');	
    3d74:	80 e2       	ldi	r24, 0x20	; 32
    3d76:	0e 94 de 0d 	call	0x1bbc	; 0x1bbc <transmitByte>
			data = receiveByte(); transmitByte(data);
    3d7a:	0e 94 da 0d 	call	0x1bb4	; 0x1bb4 <receiveByte>
    3d7e:	80 93 af 02 	sts	0x02AF, r24	; 0x8002af <data>
    3d82:	0e 94 de 0d 	call	0x1bbc	; 0x1bbc <transmitByte>
		   guavaspercentage[1] = (data & 0x0f); //
    3d86:	20 91 af 02 	lds	r18, 0x02AF	; 0x8002af <data>
    3d8a:	2f 70       	andi	r18, 0x0F	; 15
    3d8c:	62 2f       	mov	r22, r18
    3d8e:	70 e0       	ldi	r23, 0x00	; 0
    3d90:	7b 83       	std	Y+3, r23	; 0x03
    3d92:	6a 83       	std	Y+2, r22	; 0x02
		          for (int i=0;i<2;i++)
		   {
			   guavaspercentagewhole=10*guavaspercentagewhole+guavaspercentage[i];
    3d94:	20 91 ab 02 	lds	r18, 0x02AB	; 0x8002ab <guavaspercentagewhole>
    3d98:	30 91 ac 02 	lds	r19, 0x02AC	; 0x8002ac <guavaspercentagewhole+0x1>
    3d9c:	c9 01       	movw	r24, r18
    3d9e:	88 0f       	add	r24, r24
    3da0:	99 1f       	adc	r25, r25
    3da2:	22 0f       	add	r18, r18
    3da4:	33 1f       	adc	r19, r19
    3da6:	22 0f       	add	r18, r18
    3da8:	33 1f       	adc	r19, r19
    3daa:	22 0f       	add	r18, r18
    3dac:	33 1f       	adc	r19, r19
    3dae:	82 0f       	add	r24, r18
    3db0:	93 1f       	adc	r25, r19
    3db2:	48 81       	ld	r20, Y
    3db4:	59 81       	ldd	r21, Y+1	; 0x01
    3db6:	84 0f       	add	r24, r20
    3db8:	95 1f       	adc	r25, r21
    3dba:	9c 01       	movw	r18, r24
    3dbc:	22 0f       	add	r18, r18
    3dbe:	33 1f       	adc	r19, r19
    3dc0:	88 0f       	add	r24, r24
    3dc2:	99 1f       	adc	r25, r25
    3dc4:	88 0f       	add	r24, r24
    3dc6:	99 1f       	adc	r25, r25
    3dc8:	88 0f       	add	r24, r24
    3dca:	99 1f       	adc	r25, r25
    3dcc:	82 0f       	add	r24, r18
    3dce:	93 1f       	adc	r25, r19
    3dd0:	9b 01       	movw	r18, r22
    3dd2:	28 0f       	add	r18, r24
    3dd4:	39 1f       	adc	r19, r25
    3dd6:	30 93 ac 02 	sts	0x02AC, r19	; 0x8002ac <guavaspercentagewhole+0x1>
    3dda:	20 93 ab 02 	sts	0x02AB, r18	; 0x8002ab <guavaspercentagewhole>
		   }
		   	   currentguavas1=ini_guavawhole-(guavaspercentagewhole*30);
    3dde:	62 ee       	ldi	r22, 0xE2	; 226
    3de0:	62 03       	mulsu	r22, r18
    3de2:	a0 01       	movw	r20, r0
    3de4:	63 9f       	mul	r22, r19
    3de6:	50 0d       	add	r21, r0
    3de8:	11 24       	eor	r1, r1
    3dea:	80 91 96 02 	lds	r24, 0x0296	; 0x800296 <ini_guavawhole>
    3dee:	90 91 97 02 	lds	r25, 0x0297	; 0x800297 <ini_guavawhole+0x1>
    3df2:	84 0f       	add	r24, r20
    3df4:	95 1f       	adc	r25, r21
    3df6:	90 93 a6 02 	sts	0x02A6, r25	; 0x8002a6 <currentguavas1+0x1>
    3dfa:	80 93 a5 02 	sts	0x02A5, r24	; 0x8002a5 <currentguavas1>
    3dfe:	ec e1       	ldi	r30, 0x1C	; 28
    3e00:	f2 e0       	ldi	r31, 0x02	; 2
    3e02:	c4 e1       	ldi	r28, 0x14	; 20
    3e04:	d2 e0       	ldi	r29, 0x02	; 2
				  currentguavas=currentguavas1;
		   ////////////////////////////////
		   for (int i = 3; i >= 0; i--)
{
   currentguavasarray[i] = currentguavas% 10;
    3e06:	2a e0       	ldi	r18, 0x0A	; 10
    3e08:	30 e0       	ldi	r19, 0x00	; 0
    3e0a:	b9 01       	movw	r22, r18
    3e0c:	0e 94 db 2d 	call	0x5bb6	; 0x5bb6 <__divmodhi4>
    3e10:	92 93       	st	-Z, r25
    3e12:	82 93       	st	-Z, r24
    currentguavas = currentguavas/ 10;
    3e14:	86 2f       	mov	r24, r22
    3e16:	97 2f       	mov	r25, r23
			   guavaspercentagewhole=10*guavaspercentagewhole+guavaspercentage[i];
		   }
		   	   currentguavas1=ini_guavawhole-(guavaspercentagewhole*30);
				  currentguavas=currentguavas1;
		   ////////////////////////////////
		   for (int i = 3; i >= 0; i--)
    3e18:	ec 17       	cp	r30, r28
    3e1a:	fd 07       	cpc	r31, r29
    3e1c:	b1 f7       	brne	.-20     	; 0x3e0a <menu+0x1732>
    3e1e:	90 93 b3 02 	sts	0x02B3, r25	; 0x8002b3 <currentguavas+0x1>
    3e22:	80 93 b2 02 	sts	0x02B2, r24	; 0x8002b2 <currentguavas>
{
   currentguavasarray[i] = currentguavas% 10;
    currentguavas = currentguavas/ 10;
}
  TX_NEWLINE;
    3e26:	8d e0       	ldi	r24, 0x0D	; 13
    3e28:	0e 94 de 0d 	call	0x1bbc	; 0x1bbc <transmitByte>
    3e2c:	8a e0       	ldi	r24, 0x0A	; 10
    3e2e:	0e 94 de 0d 	call	0x1bbc	; 0x1bbc <transmitByte>
			   transmitString_F(PSTR("GUAVAS REMAINING ARE :"));
    3e32:	8c e3       	ldi	r24, 0x3C	; 60
    3e34:	9b e0       	ldi	r25, 0x0B	; 11
    3e36:	0e 94 e2 0d 	call	0x1bc4	; 0x1bc4 <transmitString_F>
			   transmitInt(currentguavasarray[0]);
    3e3a:	c4 e1       	ldi	r28, 0x14	; 20
    3e3c:	d2 e0       	ldi	r29, 0x02	; 2
    3e3e:	88 81       	ld	r24, Y
    3e40:	0e 94 02 0e 	call	0x1c04	; 0x1c04 <transmitInt>
			    transmitInt(currentguavasarray[1]);
    3e44:	8a 81       	ldd	r24, Y+2	; 0x02
    3e46:	0e 94 02 0e 	call	0x1c04	; 0x1c04 <transmitInt>
				 transmitInt(currentguavasarray[2]);
    3e4a:	8c 81       	ldd	r24, Y+4	; 0x04
    3e4c:	0e 94 02 0e 	call	0x1c04	; 0x1c04 <transmitInt>
				 transmitInt(currentguavasarray[3]);		  
    3e50:	8e 81       	ldd	r24, Y+6	; 0x06
    3e52:	0e 94 02 0e 	call	0x1c04	; 0x1c04 <transmitInt>
	TX_NEWLINE;
    3e56:	8d e0       	ldi	r24, 0x0D	; 13
    3e58:	0e 94 de 0d 	call	0x1bbc	; 0x1bbc <transmitByte>
    3e5c:	8a e0       	ldi	r24, 0x0A	; 10
    3e5e:	0e 94 de 0d 	call	0x1bbc	; 0x1bbc <transmitByte>
		 TX_NEWLINE;
    3e62:	8d e0       	ldi	r24, 0x0D	; 13
    3e64:	0e 94 de 0d 	call	0x1bbc	; 0x1bbc <transmitByte>
    3e68:	8a e0       	ldi	r24, 0x0A	; 10
    3e6a:	0e 94 de 0d 	call	0x1bbc	; 0x1bbc <transmitByte>
			   transmitString_F(PSTR("Guavas percentage selected:"));
    3e6e:	80 e2       	ldi	r24, 0x20	; 32
    3e70:	9b e0       	ldi	r25, 0x0B	; 11
    3e72:	0e 94 e2 0d 	call	0x1bc4	; 0x1bc4 <transmitString_F>
			   transmitInt(guavaspercentage[0]);
    3e76:	ca e4       	ldi	r28, 0x4A	; 74
    3e78:	d2 e0       	ldi	r29, 0x02	; 2
    3e7a:	88 81       	ld	r24, Y
    3e7c:	0e 94 02 0e 	call	0x1c04	; 0x1c04 <transmitInt>
			    transmitInt(guavaspercentage[1]);
    3e80:	8a 81       	ldd	r24, Y+2	; 0x02
    3e82:	0e 94 02 0e 	call	0x1c04	; 0x1c04 <transmitInt>
		
		break;
    3e86:	fc c5       	rjmp	.+3064   	; 0x4a80 <menu+0x23a8>
		/////////////////////////////////////////////////
		case '4':TX_NEWLINE;
    3e88:	8d e0       	ldi	r24, 0x0D	; 13
    3e8a:	0e 94 de 0d 	call	0x1bbc	; 0x1bbc <transmitByte>
    3e8e:	8a e0       	ldi	r24, 0x0A	; 10
    3e90:	0e 94 de 0d 	call	0x1bbc	; 0x1bbc <transmitByte>
    3e94:	8f e4       	ldi	r24, 0x4F	; 79
    3e96:	93 ec       	ldi	r25, 0xC3	; 195
    3e98:	01 97       	sbiw	r24, 0x01	; 1
    3e9a:	f1 f7       	brne	.-4      	; 0x3e98 <menu+0x17c0>
    3e9c:	00 c0       	rjmp	.+0      	; 0x3e9e <menu+0x17c6>
    3e9e:	00 00       	nop
		_delay_ms(200);
		currentmangoes1=ini_mangowhole;
    3ea0:	80 91 8a 02 	lds	r24, 0x028A	; 0x80028a <ini_mangowhole>
    3ea4:	90 91 8b 02 	lds	r25, 0x028B	; 0x80028b <ini_mangowhole+0x1>
    3ea8:	80 93 84 02 	sts	0x0284, r24	; 0x800284 <currentmangoes1>
    3eac:	90 93 85 02 	sts	0x0285, r25	; 0x800285 <currentmangoes1+0x1>
    3eb0:	e4 e3       	ldi	r30, 0x34	; 52
    3eb2:	f2 e0       	ldi	r31, 0x02	; 2
    3eb4:	cc e2       	ldi	r28, 0x2C	; 44
    3eb6:	d2 e0       	ldi	r29, 0x02	; 2
		currentmangoes=currentmangoes1;
		for (int i = 3; i >= 0; i--)
		{
			currentmangoesarray[i] = currentmangoes % 10;
    3eb8:	2a e0       	ldi	r18, 0x0A	; 10
    3eba:	30 e0       	ldi	r19, 0x00	; 0
    3ebc:	b9 01       	movw	r22, r18
    3ebe:	0e 94 db 2d 	call	0x5bb6	; 0x5bb6 <__divmodhi4>
    3ec2:	92 93       	st	-Z, r25
    3ec4:	82 93       	st	-Z, r24
			currentmangoes = currentmangoes/ 10;
    3ec6:	86 2f       	mov	r24, r22
    3ec8:	97 2f       	mov	r25, r23
		/////////////////////////////////////////////////
		case '4':TX_NEWLINE;
		_delay_ms(200);
		currentmangoes1=ini_mangowhole;
		currentmangoes=currentmangoes1;
		for (int i = 3; i >= 0; i--)
    3eca:	ec 17       	cp	r30, r28
    3ecc:	fd 07       	cpc	r31, r29
    3ece:	b1 f7       	brne	.-20     	; 0x3ebc <menu+0x17e4>
    3ed0:	60 93 8f 02 	sts	0x028F, r22	; 0x80028f <currentmangoes>
    3ed4:	70 93 90 02 	sts	0x0290, r23	; 0x800290 <currentmangoes+0x1>
		{
			currentmangoesarray[i] = currentmangoes % 10;
			currentmangoes = currentmangoes/ 10;
		}
		TX_NEWLINE;
    3ed8:	8d e0       	ldi	r24, 0x0D	; 13
    3eda:	0e 94 de 0d 	call	0x1bbc	; 0x1bbc <transmitByte>
    3ede:	8a e0       	ldi	r24, 0x0A	; 10
    3ee0:	0e 94 de 0d 	call	0x1bbc	; 0x1bbc <transmitByte>
		    transmitString_F(PSTR("PERCENTAGES FOR THE FOUR FRUITS SHOULD TOTAL TO 100"));
    3ee4:	8c ee       	ldi	r24, 0xEC	; 236
    3ee6:	9a e0       	ldi	r25, 0x0A	; 10
    3ee8:	0e 94 e2 0d 	call	0x1bc4	; 0x1bc4 <transmitString_F>
			TX_NEWLINE;
    3eec:	8d e0       	ldi	r24, 0x0D	; 13
    3eee:	0e 94 de 0d 	call	0x1bbc	; 0x1bbc <transmitByte>
    3ef2:	8a e0       	ldi	r24, 0x0A	; 10
    3ef4:	0e 94 de 0d 	call	0x1bbc	; 0x1bbc <transmitByte>
		transmitString_F(PSTR("You have selected the four category of fruits"));
    3ef8:	8e eb       	ldi	r24, 0xBE	; 190
    3efa:	9a e0       	ldi	r25, 0x0A	; 10
    3efc:	0e 94 e2 0d 	call	0x1bc4	; 0x1bc4 <transmitString_F>
		TX_NEWLINE;
    3f00:	8d e0       	ldi	r24, 0x0D	; 13
    3f02:	0e 94 de 0d 	call	0x1bbc	; 0x1bbc <transmitByte>
    3f06:	8a e0       	ldi	r24, 0x0A	; 10
    3f08:	0e 94 de 0d 	call	0x1bbc	; 0x1bbc <transmitByte>
		transmitString_F(PSTR("Enter the percentage of oranges"));
    3f0c:	8e e9       	ldi	r24, 0x9E	; 158
    3f0e:	9a e0       	ldi	r25, 0x0A	; 10
    3f10:	0e 94 e2 0d 	call	0x1bc4	; 0x1bc4 <transmitString_F>
		TX_NEWLINE;
    3f14:	8d e0       	ldi	r24, 0x0D	; 13
    3f16:	0e 94 de 0d 	call	0x1bbc	; 0x1bbc <transmitByte>
    3f1a:	8a e0       	ldi	r24, 0x0A	; 10
    3f1c:	0e 94 de 0d 	call	0x1bbc	; 0x1bbc <transmitByte>
		 TX_NEWLINE;
    3f20:	8d e0       	ldi	r24, 0x0D	; 13
    3f22:	0e 94 de 0d 	call	0x1bbc	; 0x1bbc <transmitByte>
    3f26:	8a e0       	ldi	r24, 0x0A	; 10
    3f28:	0e 94 de 0d 	call	0x1bbc	; 0x1bbc <transmitByte>
		  transmitByte(' ');
    3f2c:	80 e2       	ldi	r24, 0x20	; 32
    3f2e:	0e 94 de 0d 	call	0x1bbc	; 0x1bbc <transmitByte>
		   data= receiveByte(); transmitByte(data);
    3f32:	0e 94 da 0d 	call	0x1bb4	; 0x1bb4 <receiveByte>
    3f36:	80 93 af 02 	sts	0x02AF, r24	; 0x8002af <data>
    3f3a:	0e 94 de 0d 	call	0x1bbc	; 0x1bbc <transmitByte>
		   orangespercentage[0] = (data & 0x0f); //
    3f3e:	c2 e5       	ldi	r28, 0x52	; 82
    3f40:	d2 e0       	ldi	r29, 0x02	; 2
    3f42:	80 91 af 02 	lds	r24, 0x02AF	; 0x8002af <data>
    3f46:	8f 70       	andi	r24, 0x0F	; 15
    3f48:	90 e0       	ldi	r25, 0x00	; 0
    3f4a:	99 83       	std	Y+1, r25	; 0x01
    3f4c:	88 83       	st	Y, r24
		  
		    transmitByte(' ');	
    3f4e:	80 e2       	ldi	r24, 0x20	; 32
    3f50:	0e 94 de 0d 	call	0x1bbc	; 0x1bbc <transmitByte>
			data = receiveByte(); transmitByte(data);
    3f54:	0e 94 da 0d 	call	0x1bb4	; 0x1bb4 <receiveByte>
    3f58:	80 93 af 02 	sts	0x02AF, r24	; 0x8002af <data>
    3f5c:	0e 94 de 0d 	call	0x1bbc	; 0x1bbc <transmitByte>
		   orangespercentage[1] = (data & 0x0f); //
    3f60:	20 91 af 02 	lds	r18, 0x02AF	; 0x8002af <data>
    3f64:	2f 70       	andi	r18, 0x0F	; 15
    3f66:	62 2f       	mov	r22, r18
    3f68:	70 e0       	ldi	r23, 0x00	; 0
    3f6a:	7b 83       	std	Y+3, r23	; 0x03
    3f6c:	6a 83       	std	Y+2, r22	; 0x02
		   /////////////////////////////
		         for (int i=0;i<2;i++)
		   {
			   orangespercentagewhole=10*orangespercentagewhole+orangespercentage[i];
    3f6e:	20 91 cc 02 	lds	r18, 0x02CC	; 0x8002cc <orangespercentagewhole>
    3f72:	30 91 cd 02 	lds	r19, 0x02CD	; 0x8002cd <orangespercentagewhole+0x1>
    3f76:	c9 01       	movw	r24, r18
    3f78:	88 0f       	add	r24, r24
    3f7a:	99 1f       	adc	r25, r25
    3f7c:	22 0f       	add	r18, r18
    3f7e:	33 1f       	adc	r19, r19
    3f80:	22 0f       	add	r18, r18
    3f82:	33 1f       	adc	r19, r19
    3f84:	22 0f       	add	r18, r18
    3f86:	33 1f       	adc	r19, r19
    3f88:	82 0f       	add	r24, r18
    3f8a:	93 1f       	adc	r25, r19
    3f8c:	48 81       	ld	r20, Y
    3f8e:	59 81       	ldd	r21, Y+1	; 0x01
    3f90:	84 0f       	add	r24, r20
    3f92:	95 1f       	adc	r25, r21
    3f94:	9c 01       	movw	r18, r24
    3f96:	22 0f       	add	r18, r18
    3f98:	33 1f       	adc	r19, r19
    3f9a:	88 0f       	add	r24, r24
    3f9c:	99 1f       	adc	r25, r25
    3f9e:	88 0f       	add	r24, r24
    3fa0:	99 1f       	adc	r25, r25
    3fa2:	88 0f       	add	r24, r24
    3fa4:	99 1f       	adc	r25, r25
    3fa6:	82 0f       	add	r24, r18
    3fa8:	93 1f       	adc	r25, r19
    3faa:	9b 01       	movw	r18, r22
    3fac:	28 0f       	add	r18, r24
    3fae:	39 1f       	adc	r19, r25
    3fb0:	30 93 cd 02 	sts	0x02CD, r19	; 0x8002cd <orangespercentagewhole+0x1>
    3fb4:	20 93 cc 02 	sts	0x02CC, r18	; 0x8002cc <orangespercentagewhole>
		   }
		   currentoranges1=ini_orangewhole-(orangespercentagewhole*30);
    3fb8:	62 ee       	ldi	r22, 0xE2	; 226
    3fba:	62 03       	mulsu	r22, r18
    3fbc:	a0 01       	movw	r20, r0
    3fbe:	63 9f       	mul	r22, r19
    3fc0:	50 0d       	add	r21, r0
    3fc2:	11 24       	eor	r1, r1
    3fc4:	80 91 b6 02 	lds	r24, 0x02B6	; 0x8002b6 <ini_orangewhole>
    3fc8:	90 91 b7 02 	lds	r25, 0x02B7	; 0x8002b7 <ini_orangewhole+0x1>
    3fcc:	84 0f       	add	r24, r20
    3fce:	95 1f       	adc	r25, r21
    3fd0:	90 93 81 02 	sts	0x0281, r25	; 0x800281 <currentoranges1+0x1>
    3fd4:	80 93 80 02 	sts	0x0280, r24	; 0x800280 <currentoranges1>
    3fd8:	ec e3       	ldi	r30, 0x3C	; 60
    3fda:	f2 e0       	ldi	r31, 0x02	; 2
    3fdc:	c4 e3       	ldi	r28, 0x34	; 52
    3fde:	d2 e0       	ldi	r29, 0x02	; 2
		   currentoranges=currentoranges1;
		   ////////////////////////////////
		   for (int i = 3; i >= 0; i--)
{
   currentorangesarray[i] = currentoranges % 10;
    3fe0:	2a e0       	ldi	r18, 0x0A	; 10
    3fe2:	30 e0       	ldi	r19, 0x00	; 0
    3fe4:	b9 01       	movw	r22, r18
    3fe6:	0e 94 db 2d 	call	0x5bb6	; 0x5bb6 <__divmodhi4>
    3fea:	92 93       	st	-Z, r25
    3fec:	82 93       	st	-Z, r24
    currentoranges = currentoranges/ 10;
    3fee:	86 2f       	mov	r24, r22
    3ff0:	97 2f       	mov	r25, r23
			   orangespercentagewhole=10*orangespercentagewhole+orangespercentage[i];
		   }
		   currentoranges1=ini_orangewhole-(orangespercentagewhole*30);
		   currentoranges=currentoranges1;
		   ////////////////////////////////
		   for (int i = 3; i >= 0; i--)
    3ff2:	ec 17       	cp	r30, r28
    3ff4:	fd 07       	cpc	r31, r29
    3ff6:	b1 f7       	brne	.-20     	; 0x3fe4 <menu+0x190c>
    3ff8:	90 93 c1 02 	sts	0x02C1, r25	; 0x8002c1 <currentoranges+0x1>
    3ffc:	80 93 c0 02 	sts	0x02C0, r24	; 0x8002c0 <currentoranges>
{
   currentorangesarray[i] = currentoranges % 10;
    currentoranges = currentoranges/ 10;
}
  TX_NEWLINE;
    4000:	8d e0       	ldi	r24, 0x0D	; 13
    4002:	0e 94 de 0d 	call	0x1bbc	; 0x1bbc <transmitByte>
    4006:	8a e0       	ldi	r24, 0x0A	; 10
    4008:	0e 94 de 0d 	call	0x1bbc	; 0x1bbc <transmitByte>
			   transmitString_F(PSTR("ORANGES REMAINING ARE :"));
    400c:	86 e8       	ldi	r24, 0x86	; 134
    400e:	9a e0       	ldi	r25, 0x0A	; 10
    4010:	0e 94 e2 0d 	call	0x1bc4	; 0x1bc4 <transmitString_F>
			   transmitInt(currentorangesarray[0]);
    4014:	c4 e3       	ldi	r28, 0x34	; 52
    4016:	d2 e0       	ldi	r29, 0x02	; 2
    4018:	88 81       	ld	r24, Y
    401a:	0e 94 02 0e 	call	0x1c04	; 0x1c04 <transmitInt>
			    transmitInt(currentorangesarray[1]);
    401e:	8a 81       	ldd	r24, Y+2	; 0x02
    4020:	0e 94 02 0e 	call	0x1c04	; 0x1c04 <transmitInt>
				 transmitInt(currentorangesarray[2]);
    4024:	8c 81       	ldd	r24, Y+4	; 0x04
    4026:	0e 94 02 0e 	call	0x1c04	; 0x1c04 <transmitInt>
				 transmitInt(currentorangesarray[3]);		 
    402a:	8e 81       	ldd	r24, Y+6	; 0x06
    402c:	0e 94 02 0e 	call	0x1c04	; 0x1c04 <transmitInt>
		   
		 TX_NEWLINE;
    4030:	8d e0       	ldi	r24, 0x0D	; 13
    4032:	0e 94 de 0d 	call	0x1bbc	; 0x1bbc <transmitByte>
    4036:	8a e0       	ldi	r24, 0x0A	; 10
    4038:	0e 94 de 0d 	call	0x1bbc	; 0x1bbc <transmitByte>
			   transmitString_F(PSTR("Orange percentage selected:"));
    403c:	8a e6       	ldi	r24, 0x6A	; 106
    403e:	9a e0       	ldi	r25, 0x0A	; 10
    4040:	0e 94 e2 0d 	call	0x1bc4	; 0x1bc4 <transmitString_F>
			   transmitInt(orangespercentage[0]);
    4044:	c2 e5       	ldi	r28, 0x52	; 82
    4046:	d2 e0       	ldi	r29, 0x02	; 2
    4048:	88 81       	ld	r24, Y
    404a:	0e 94 02 0e 	call	0x1c04	; 0x1c04 <transmitInt>
			    transmitInt(orangespercentage[1]);
    404e:	8a 81       	ldd	r24, Y+2	; 0x02
    4050:	0e 94 02 0e 	call	0x1c04	; 0x1c04 <transmitInt>
				//////////////////////////////////////////////////////////////////
				 TX_NEWLINE;
    4054:	8d e0       	ldi	r24, 0x0D	; 13
    4056:	0e 94 de 0d 	call	0x1bbc	; 0x1bbc <transmitByte>
    405a:	8a e0       	ldi	r24, 0x0A	; 10
    405c:	0e 94 de 0d 	call	0x1bbc	; 0x1bbc <transmitByte>
				transmitString_F(PSTR("Enter the percentage of pineapples"));
    4060:	87 e4       	ldi	r24, 0x47	; 71
    4062:	9a e0       	ldi	r25, 0x0A	; 10
    4064:	0e 94 e2 0d 	call	0x1bc4	; 0x1bc4 <transmitString_F>
		TX_NEWLINE;
    4068:	8d e0       	ldi	r24, 0x0D	; 13
    406a:	0e 94 de 0d 	call	0x1bbc	; 0x1bbc <transmitByte>
    406e:	8a e0       	ldi	r24, 0x0A	; 10
    4070:	0e 94 de 0d 	call	0x1bbc	; 0x1bbc <transmitByte>
		 TX_NEWLINE;
    4074:	8d e0       	ldi	r24, 0x0D	; 13
    4076:	0e 94 de 0d 	call	0x1bbc	; 0x1bbc <transmitByte>
    407a:	8a e0       	ldi	r24, 0x0A	; 10
    407c:	0e 94 de 0d 	call	0x1bbc	; 0x1bbc <transmitByte>
		  transmitByte(' ');
    4080:	80 e2       	ldi	r24, 0x20	; 32
    4082:	0e 94 de 0d 	call	0x1bbc	; 0x1bbc <transmitByte>
		   data= receiveByte(); transmitByte(data);
    4086:	0e 94 da 0d 	call	0x1bb4	; 0x1bb4 <receiveByte>
    408a:	80 93 af 02 	sts	0x02AF, r24	; 0x8002af <data>
    408e:	0e 94 de 0d 	call	0x1bbc	; 0x1bbc <transmitByte>
		   pineapplespercentage[0] = (data & 0x0f); //
    4092:	c6 e4       	ldi	r28, 0x46	; 70
    4094:	d2 e0       	ldi	r29, 0x02	; 2
    4096:	80 91 af 02 	lds	r24, 0x02AF	; 0x8002af <data>
    409a:	8f 70       	andi	r24, 0x0F	; 15
    409c:	90 e0       	ldi	r25, 0x00	; 0
    409e:	99 83       	std	Y+1, r25	; 0x01
    40a0:	88 83       	st	Y, r24
		  
		    transmitByte(' ');	
    40a2:	80 e2       	ldi	r24, 0x20	; 32
    40a4:	0e 94 de 0d 	call	0x1bbc	; 0x1bbc <transmitByte>
			data = receiveByte(); transmitByte(data);
    40a8:	0e 94 da 0d 	call	0x1bb4	; 0x1bb4 <receiveByte>
    40ac:	80 93 af 02 	sts	0x02AF, r24	; 0x8002af <data>
    40b0:	0e 94 de 0d 	call	0x1bbc	; 0x1bbc <transmitByte>
		   pineapplespercentage[1] = (data & 0x0f); //
    40b4:	20 91 af 02 	lds	r18, 0x02AF	; 0x8002af <data>
    40b8:	2f 70       	andi	r18, 0x0F	; 15
    40ba:	62 2f       	mov	r22, r18
    40bc:	70 e0       	ldi	r23, 0x00	; 0
    40be:	7b 83       	std	Y+3, r23	; 0x03
    40c0:	6a 83       	std	Y+2, r22	; 0x02
		   //////////////////////////////////////
		   	   for (int i=0;i<2;i++)
		   	   {
			   	   pineapplespercentagewhole=10*pineapplespercentagewhole+pineapplespercentage[i];
    40c2:	20 91 9a 02 	lds	r18, 0x029A	; 0x80029a <pineapplespercentagewhole>
    40c6:	30 91 9b 02 	lds	r19, 0x029B	; 0x80029b <pineapplespercentagewhole+0x1>
    40ca:	c9 01       	movw	r24, r18
    40cc:	88 0f       	add	r24, r24
    40ce:	99 1f       	adc	r25, r25
    40d0:	22 0f       	add	r18, r18
    40d2:	33 1f       	adc	r19, r19
    40d4:	22 0f       	add	r18, r18
    40d6:	33 1f       	adc	r19, r19
    40d8:	22 0f       	add	r18, r18
    40da:	33 1f       	adc	r19, r19
    40dc:	82 0f       	add	r24, r18
    40de:	93 1f       	adc	r25, r19
    40e0:	48 81       	ld	r20, Y
    40e2:	59 81       	ldd	r21, Y+1	; 0x01
    40e4:	84 0f       	add	r24, r20
    40e6:	95 1f       	adc	r25, r21
    40e8:	9c 01       	movw	r18, r24
    40ea:	22 0f       	add	r18, r18
    40ec:	33 1f       	adc	r19, r19
    40ee:	88 0f       	add	r24, r24
    40f0:	99 1f       	adc	r25, r25
    40f2:	88 0f       	add	r24, r24
    40f4:	99 1f       	adc	r25, r25
    40f6:	88 0f       	add	r24, r24
    40f8:	99 1f       	adc	r25, r25
    40fa:	82 0f       	add	r24, r18
    40fc:	93 1f       	adc	r25, r19
    40fe:	9b 01       	movw	r18, r22
    4100:	28 0f       	add	r18, r24
    4102:	39 1f       	adc	r19, r25
    4104:	30 93 9b 02 	sts	0x029B, r19	; 0x80029b <pineapplespercentagewhole+0x1>
    4108:	20 93 9a 02 	sts	0x029A, r18	; 0x80029a <pineapplespercentagewhole>
		   	   }
		   	   currentpineapples1=ini_pineapplewhole-(pineapplespercentagewhole*30);
    410c:	62 ee       	ldi	r22, 0xE2	; 226
    410e:	62 03       	mulsu	r22, r18
    4110:	a0 01       	movw	r20, r0
    4112:	63 9f       	mul	r22, r19
    4114:	50 0d       	add	r21, r0
    4116:	11 24       	eor	r1, r1
    4118:	80 91 c8 02 	lds	r24, 0x02C8	; 0x8002c8 <ini_pineapplewhole>
    411c:	90 91 c9 02 	lds	r25, 0x02C9	; 0x8002c9 <ini_pineapplewhole+0x1>
    4120:	84 0f       	add	r24, r20
    4122:	95 1f       	adc	r25, r21
    4124:	90 93 b1 02 	sts	0x02B1, r25	; 0x8002b1 <currentpineapples1+0x1>
    4128:	80 93 b0 02 	sts	0x02B0, r24	; 0x8002b0 <currentpineapples1>
    412c:	e4 e2       	ldi	r30, 0x24	; 36
    412e:	f2 e0       	ldi	r31, 0x02	; 2
    4130:	cc e1       	ldi	r28, 0x1C	; 28
    4132:	d2 e0       	ldi	r29, 0x02	; 2
		   	   currentpineapples=currentpineapples1;
				  ////////////////////////////////
		   	   for (int i = 3; i >= 0; i--)
		   	   {
			   	   currentpineapplesarray[i] = currentpineapples% 10;
    4134:	2a e0       	ldi	r18, 0x0A	; 10
    4136:	30 e0       	ldi	r19, 0x00	; 0
    4138:	b9 01       	movw	r22, r18
    413a:	0e 94 db 2d 	call	0x5bb6	; 0x5bb6 <__divmodhi4>
    413e:	92 93       	st	-Z, r25
    4140:	82 93       	st	-Z, r24
			   	   currentpineapples = currentpineapples/ 10;
    4142:	86 2f       	mov	r24, r22
    4144:	97 2f       	mov	r25, r23
			   	   pineapplespercentagewhole=10*pineapplespercentagewhole+pineapplespercentage[i];
		   	   }
		   	   currentpineapples1=ini_pineapplewhole-(pineapplespercentagewhole*30);
		   	   currentpineapples=currentpineapples1;
				  ////////////////////////////////
		   	   for (int i = 3; i >= 0; i--)
    4146:	ec 17       	cp	r30, r28
    4148:	fd 07       	cpc	r31, r29
    414a:	b1 f7       	brne	.-20     	; 0x4138 <menu+0x1a60>
    414c:	90 93 c7 02 	sts	0x02C7, r25	; 0x8002c7 <currentpineapples+0x1>
    4150:	80 93 c6 02 	sts	0x02C6, r24	; 0x8002c6 <currentpineapples>
		   	   {
			   	   currentpineapplesarray[i] = currentpineapples% 10;
			   	   currentpineapples = currentpineapples/ 10;
		   	   }
		   	   TX_NEWLINE;
    4154:	8d e0       	ldi	r24, 0x0D	; 13
    4156:	0e 94 de 0d 	call	0x1bbc	; 0x1bbc <transmitByte>
    415a:	8a e0       	ldi	r24, 0x0A	; 10
    415c:	0e 94 de 0d 	call	0x1bbc	; 0x1bbc <transmitByte>
		   	   transmitString_F(PSTR("PINEAPPLES REMAINING ARE :"));
    4160:	8c e2       	ldi	r24, 0x2C	; 44
    4162:	9a e0       	ldi	r25, 0x0A	; 10
    4164:	0e 94 e2 0d 	call	0x1bc4	; 0x1bc4 <transmitString_F>
		   	   transmitInt(currentpineapplesarray[0]);
    4168:	cc e1       	ldi	r28, 0x1C	; 28
    416a:	d2 e0       	ldi	r29, 0x02	; 2
    416c:	88 81       	ld	r24, Y
    416e:	0e 94 02 0e 	call	0x1c04	; 0x1c04 <transmitInt>
		   	   transmitInt(currentpineapplesarray[1]);
    4172:	8a 81       	ldd	r24, Y+2	; 0x02
    4174:	0e 94 02 0e 	call	0x1c04	; 0x1c04 <transmitInt>
		   	   transmitInt(currentpineapplesarray[2]);
    4178:	8c 81       	ldd	r24, Y+4	; 0x04
    417a:	0e 94 02 0e 	call	0x1c04	; 0x1c04 <transmitInt>
		   	   transmitInt(currentpineapplesarray[3]);		  
    417e:	8e 81       	ldd	r24, Y+6	; 0x06
    4180:	0e 94 02 0e 	call	0x1c04	; 0x1c04 <transmitInt>
		 TX_NEWLINE;
    4184:	8d e0       	ldi	r24, 0x0D	; 13
    4186:	0e 94 de 0d 	call	0x1bbc	; 0x1bbc <transmitByte>
    418a:	8a e0       	ldi	r24, 0x0A	; 10
    418c:	0e 94 de 0d 	call	0x1bbc	; 0x1bbc <transmitByte>
			   transmitString_F(PSTR("pineapples percentage selected:"));
    4190:	8c e0       	ldi	r24, 0x0C	; 12
    4192:	9a e0       	ldi	r25, 0x0A	; 10
    4194:	0e 94 e2 0d 	call	0x1bc4	; 0x1bc4 <transmitString_F>
			   transmitInt(pineapplespercentage[0]);
    4198:	c6 e4       	ldi	r28, 0x46	; 70
    419a:	d2 e0       	ldi	r29, 0x02	; 2
    419c:	88 81       	ld	r24, Y
    419e:	0e 94 02 0e 	call	0x1c04	; 0x1c04 <transmitInt>
			    transmitInt(pineapplespercentage[1]);
    41a2:	8a 81       	ldd	r24, Y+2	; 0x02
    41a4:	0e 94 02 0e 	call	0x1c04	; 0x1c04 <transmitInt>
				
				//////////////////////////////////////////////////////////////
				 TX_NEWLINE;
    41a8:	8d e0       	ldi	r24, 0x0D	; 13
    41aa:	0e 94 de 0d 	call	0x1bbc	; 0x1bbc <transmitByte>
    41ae:	8a e0       	ldi	r24, 0x0A	; 10
    41b0:	0e 94 de 0d 	call	0x1bbc	; 0x1bbc <transmitByte>
						transmitString_F(PSTR("Enter the percentage of apples"));
    41b4:	8d ee       	ldi	r24, 0xED	; 237
    41b6:	99 e0       	ldi	r25, 0x09	; 9
    41b8:	0e 94 e2 0d 	call	0x1bc4	; 0x1bc4 <transmitString_F>
		TX_NEWLINE;
    41bc:	8d e0       	ldi	r24, 0x0D	; 13
    41be:	0e 94 de 0d 	call	0x1bbc	; 0x1bbc <transmitByte>
    41c2:	8a e0       	ldi	r24, 0x0A	; 10
    41c4:	0e 94 de 0d 	call	0x1bbc	; 0x1bbc <transmitByte>
		 TX_NEWLINE;
    41c8:	8d e0       	ldi	r24, 0x0D	; 13
    41ca:	0e 94 de 0d 	call	0x1bbc	; 0x1bbc <transmitByte>
    41ce:	8a e0       	ldi	r24, 0x0A	; 10
    41d0:	0e 94 de 0d 	call	0x1bbc	; 0x1bbc <transmitByte>
		  transmitByte(' ');
    41d4:	80 e2       	ldi	r24, 0x20	; 32
    41d6:	0e 94 de 0d 	call	0x1bbc	; 0x1bbc <transmitByte>
		   data= receiveByte(); transmitByte(data);
    41da:	0e 94 da 0d 	call	0x1bb4	; 0x1bb4 <receiveByte>
    41de:	80 93 af 02 	sts	0x02AF, r24	; 0x8002af <data>
    41e2:	0e 94 de 0d 	call	0x1bbc	; 0x1bbc <transmitByte>
		   applespercentage[0] = (data & 0x0f); //
    41e6:	c2 e4       	ldi	r28, 0x42	; 66
    41e8:	d2 e0       	ldi	r29, 0x02	; 2
    41ea:	80 91 af 02 	lds	r24, 0x02AF	; 0x8002af <data>
    41ee:	8f 70       	andi	r24, 0x0F	; 15
    41f0:	90 e0       	ldi	r25, 0x00	; 0
    41f2:	99 83       	std	Y+1, r25	; 0x01
    41f4:	88 83       	st	Y, r24
		  
		    transmitByte(' ');	
    41f6:	80 e2       	ldi	r24, 0x20	; 32
    41f8:	0e 94 de 0d 	call	0x1bbc	; 0x1bbc <transmitByte>
			data = receiveByte(); transmitByte(data);
    41fc:	0e 94 da 0d 	call	0x1bb4	; 0x1bb4 <receiveByte>
    4200:	80 93 af 02 	sts	0x02AF, r24	; 0x8002af <data>
    4204:	0e 94 de 0d 	call	0x1bbc	; 0x1bbc <transmitByte>
		   applespercentage[1] = (data & 0x0f); //
    4208:	20 91 af 02 	lds	r18, 0x02AF	; 0x8002af <data>
    420c:	2f 70       	andi	r18, 0x0F	; 15
    420e:	62 2f       	mov	r22, r18
    4210:	70 e0       	ldi	r23, 0x00	; 0
    4212:	7b 83       	std	Y+3, r23	; 0x03
    4214:	6a 83       	std	Y+2, r22	; 0x02
		       for (int i=0;i<2;i++)
		   {
			   applespercentagewhole=10*applespercentagewhole+applespercentage[i];
    4216:	20 91 91 02 	lds	r18, 0x0291	; 0x800291 <applespercentagewhole>
    421a:	30 91 92 02 	lds	r19, 0x0292	; 0x800292 <applespercentagewhole+0x1>
    421e:	c9 01       	movw	r24, r18
    4220:	88 0f       	add	r24, r24
    4222:	99 1f       	adc	r25, r25
    4224:	22 0f       	add	r18, r18
    4226:	33 1f       	adc	r19, r19
    4228:	22 0f       	add	r18, r18
    422a:	33 1f       	adc	r19, r19
    422c:	22 0f       	add	r18, r18
    422e:	33 1f       	adc	r19, r19
    4230:	82 0f       	add	r24, r18
    4232:	93 1f       	adc	r25, r19
    4234:	48 81       	ld	r20, Y
    4236:	59 81       	ldd	r21, Y+1	; 0x01
    4238:	84 0f       	add	r24, r20
    423a:	95 1f       	adc	r25, r21
    423c:	9c 01       	movw	r18, r24
    423e:	22 0f       	add	r18, r18
    4240:	33 1f       	adc	r19, r19
    4242:	88 0f       	add	r24, r24
    4244:	99 1f       	adc	r25, r25
    4246:	88 0f       	add	r24, r24
    4248:	99 1f       	adc	r25, r25
    424a:	88 0f       	add	r24, r24
    424c:	99 1f       	adc	r25, r25
    424e:	82 0f       	add	r24, r18
    4250:	93 1f       	adc	r25, r19
    4252:	9b 01       	movw	r18, r22
    4254:	28 0f       	add	r18, r24
    4256:	39 1f       	adc	r19, r25
    4258:	30 93 92 02 	sts	0x0292, r19	; 0x800292 <applespercentagewhole+0x1>
    425c:	20 93 91 02 	sts	0x0291, r18	; 0x800291 <applespercentagewhole>
		   }
		   	   currentapples1=ini_applewhole-(applespercentagewhole*30);
    4260:	62 ee       	ldi	r22, 0xE2	; 226
    4262:	62 03       	mulsu	r22, r18
    4264:	a0 01       	movw	r20, r0
    4266:	63 9f       	mul	r22, r19
    4268:	50 0d       	add	r21, r0
    426a:	11 24       	eor	r1, r1
    426c:	80 91 c2 02 	lds	r24, 0x02C2	; 0x8002c2 <ini_applewhole>
    4270:	90 91 c3 02 	lds	r25, 0x02C3	; 0x8002c3 <ini_applewhole+0x1>
    4274:	84 0f       	add	r24, r20
    4276:	95 1f       	adc	r25, r21
    4278:	90 93 cf 02 	sts	0x02CF, r25	; 0x8002cf <currentapples1+0x1>
    427c:	80 93 ce 02 	sts	0x02CE, r24	; 0x8002ce <currentapples1>
    4280:	ec e2       	ldi	r30, 0x2C	; 44
    4282:	f2 e0       	ldi	r31, 0x02	; 2
    4284:	c4 e2       	ldi	r28, 0x24	; 36
    4286:	d2 e0       	ldi	r29, 0x02	; 2
              currentapples=currentapples1;		   
		   ////////////////////////////////
		   for (int i = 3; i >= 0; i--)
{
   currentapplesarray[i] = currentapples % 10;
    4288:	2a e0       	ldi	r18, 0x0A	; 10
    428a:	30 e0       	ldi	r19, 0x00	; 0
    428c:	b9 01       	movw	r22, r18
    428e:	0e 94 db 2d 	call	0x5bb6	; 0x5bb6 <__divmodhi4>
    4292:	92 93       	st	-Z, r25
    4294:	82 93       	st	-Z, r24
    currentapples = currentapples/ 10;
    4296:	86 2f       	mov	r24, r22
    4298:	97 2f       	mov	r25, r23
			   applespercentagewhole=10*applespercentagewhole+applespercentage[i];
		   }
		   	   currentapples1=ini_applewhole-(applespercentagewhole*30);
              currentapples=currentapples1;		   
		   ////////////////////////////////
		   for (int i = 3; i >= 0; i--)
    429a:	ec 17       	cp	r30, r28
    429c:	fd 07       	cpc	r31, r29
    429e:	b1 f7       	brne	.-20     	; 0x428c <menu+0x1bb4>
    42a0:	90 93 b5 02 	sts	0x02B5, r25	; 0x8002b5 <currentapples+0x1>
    42a4:	80 93 b4 02 	sts	0x02B4, r24	; 0x8002b4 <currentapples>
{
   currentapplesarray[i] = currentapples % 10;
    currentapples = currentapples/ 10;
}
  TX_NEWLINE;
    42a8:	8d e0       	ldi	r24, 0x0D	; 13
    42aa:	0e 94 de 0d 	call	0x1bbc	; 0x1bbc <transmitByte>
    42ae:	8a e0       	ldi	r24, 0x0A	; 10
    42b0:	0e 94 de 0d 	call	0x1bbc	; 0x1bbc <transmitByte>
			   transmitString_F(PSTR("APPLES REMAINING ARE :"));
    42b4:	86 ed       	ldi	r24, 0xD6	; 214
    42b6:	99 e0       	ldi	r25, 0x09	; 9
    42b8:	0e 94 e2 0d 	call	0x1bc4	; 0x1bc4 <transmitString_F>
			   transmitInt(currentapplesarray[0]);
    42bc:	c4 e2       	ldi	r28, 0x24	; 36
    42be:	d2 e0       	ldi	r29, 0x02	; 2
    42c0:	88 81       	ld	r24, Y
    42c2:	0e 94 02 0e 	call	0x1c04	; 0x1c04 <transmitInt>
			    transmitInt(currentapplesarray[1]);
    42c6:	8a 81       	ldd	r24, Y+2	; 0x02
    42c8:	0e 94 02 0e 	call	0x1c04	; 0x1c04 <transmitInt>
				 transmitInt(currentapplesarray[2]);
    42cc:	8c 81       	ldd	r24, Y+4	; 0x04
    42ce:	0e 94 02 0e 	call	0x1c04	; 0x1c04 <transmitInt>
				 transmitInt(currentapplesarray[3]);		  
    42d2:	8e 81       	ldd	r24, Y+6	; 0x06
    42d4:	0e 94 02 0e 	call	0x1c04	; 0x1c04 <transmitInt>
	TX_NEWLINE;
    42d8:	8d e0       	ldi	r24, 0x0D	; 13
    42da:	0e 94 de 0d 	call	0x1bbc	; 0x1bbc <transmitByte>
    42de:	8a e0       	ldi	r24, 0x0A	; 10
    42e0:	0e 94 de 0d 	call	0x1bbc	; 0x1bbc <transmitByte>
	
		 TX_NEWLINE;
    42e4:	8d e0       	ldi	r24, 0x0D	; 13
    42e6:	0e 94 de 0d 	call	0x1bbc	; 0x1bbc <transmitByte>
    42ea:	8a e0       	ldi	r24, 0x0A	; 10
    42ec:	0e 94 de 0d 	call	0x1bbc	; 0x1bbc <transmitByte>
			   transmitString_F(PSTR("apples percentage selected:"));
    42f0:	8a eb       	ldi	r24, 0xBA	; 186
    42f2:	99 e0       	ldi	r25, 0x09	; 9
    42f4:	0e 94 e2 0d 	call	0x1bc4	; 0x1bc4 <transmitString_F>
			   transmitInt(applespercentage[0]);
    42f8:	c2 e4       	ldi	r28, 0x42	; 66
    42fa:	d2 e0       	ldi	r29, 0x02	; 2
    42fc:	88 81       	ld	r24, Y
    42fe:	0e 94 02 0e 	call	0x1c04	; 0x1c04 <transmitInt>
			    transmitInt(applespercentage[1]);
    4302:	8a 81       	ldd	r24, Y+2	; 0x02
    4304:	0e 94 02 0e 	call	0x1c04	; 0x1c04 <transmitInt>
				//////////////////////////////////////////////
				 TX_NEWLINE;
    4308:	8d e0       	ldi	r24, 0x0D	; 13
    430a:	0e 94 de 0d 	call	0x1bbc	; 0x1bbc <transmitByte>
    430e:	8a e0       	ldi	r24, 0x0A	; 10
    4310:	0e 94 de 0d 	call	0x1bbc	; 0x1bbc <transmitByte>
						transmitString_F(PSTR("Enter the percentage of guavas"));
    4314:	8b e9       	ldi	r24, 0x9B	; 155
    4316:	99 e0       	ldi	r25, 0x09	; 9
    4318:	0e 94 e2 0d 	call	0x1bc4	; 0x1bc4 <transmitString_F>

		 TX_NEWLINE;
    431c:	8d e0       	ldi	r24, 0x0D	; 13
    431e:	0e 94 de 0d 	call	0x1bbc	; 0x1bbc <transmitByte>
    4322:	8a e0       	ldi	r24, 0x0A	; 10
    4324:	0e 94 de 0d 	call	0x1bbc	; 0x1bbc <transmitByte>
		  transmitByte(' ');
    4328:	80 e2       	ldi	r24, 0x20	; 32
    432a:	0e 94 de 0d 	call	0x1bbc	; 0x1bbc <transmitByte>
		   data= receiveByte(); transmitByte(data);
    432e:	0e 94 da 0d 	call	0x1bb4	; 0x1bb4 <receiveByte>
    4332:	80 93 af 02 	sts	0x02AF, r24	; 0x8002af <data>
    4336:	0e 94 de 0d 	call	0x1bbc	; 0x1bbc <transmitByte>
		   guavaspercentage[0] = (data & 0x0f); //
    433a:	ca e4       	ldi	r28, 0x4A	; 74
    433c:	d2 e0       	ldi	r29, 0x02	; 2
    433e:	80 91 af 02 	lds	r24, 0x02AF	; 0x8002af <data>
    4342:	8f 70       	andi	r24, 0x0F	; 15
    4344:	90 e0       	ldi	r25, 0x00	; 0
    4346:	99 83       	std	Y+1, r25	; 0x01
    4348:	88 83       	st	Y, r24
		  
		    transmitByte(' ');	
    434a:	80 e2       	ldi	r24, 0x20	; 32
    434c:	0e 94 de 0d 	call	0x1bbc	; 0x1bbc <transmitByte>
			data = receiveByte(); transmitByte(data);
    4350:	0e 94 da 0d 	call	0x1bb4	; 0x1bb4 <receiveByte>
    4354:	80 93 af 02 	sts	0x02AF, r24	; 0x8002af <data>
    4358:	0e 94 de 0d 	call	0x1bbc	; 0x1bbc <transmitByte>
		   guavaspercentage[1] = (data & 0x0f); //
    435c:	20 91 af 02 	lds	r18, 0x02AF	; 0x8002af <data>
    4360:	2f 70       	andi	r18, 0x0F	; 15
    4362:	62 2f       	mov	r22, r18
    4364:	70 e0       	ldi	r23, 0x00	; 0
    4366:	7b 83       	std	Y+3, r23	; 0x03
    4368:	6a 83       	std	Y+2, r22	; 0x02
		   //////////////////////////////////////////////////////////
		             for (int i=0;i<2;i++)
		   {
			   guavaspercentagewhole=10*guavaspercentagewhole+guavaspercentage[i];
    436a:	20 91 ab 02 	lds	r18, 0x02AB	; 0x8002ab <guavaspercentagewhole>
    436e:	30 91 ac 02 	lds	r19, 0x02AC	; 0x8002ac <guavaspercentagewhole+0x1>
    4372:	c9 01       	movw	r24, r18
    4374:	88 0f       	add	r24, r24
    4376:	99 1f       	adc	r25, r25
    4378:	22 0f       	add	r18, r18
    437a:	33 1f       	adc	r19, r19
    437c:	22 0f       	add	r18, r18
    437e:	33 1f       	adc	r19, r19
    4380:	22 0f       	add	r18, r18
    4382:	33 1f       	adc	r19, r19
    4384:	82 0f       	add	r24, r18
    4386:	93 1f       	adc	r25, r19
    4388:	48 81       	ld	r20, Y
    438a:	59 81       	ldd	r21, Y+1	; 0x01
    438c:	84 0f       	add	r24, r20
    438e:	95 1f       	adc	r25, r21
    4390:	9c 01       	movw	r18, r24
    4392:	22 0f       	add	r18, r18
    4394:	33 1f       	adc	r19, r19
    4396:	88 0f       	add	r24, r24
    4398:	99 1f       	adc	r25, r25
    439a:	88 0f       	add	r24, r24
    439c:	99 1f       	adc	r25, r25
    439e:	88 0f       	add	r24, r24
    43a0:	99 1f       	adc	r25, r25
    43a2:	82 0f       	add	r24, r18
    43a4:	93 1f       	adc	r25, r19
    43a6:	9b 01       	movw	r18, r22
    43a8:	28 0f       	add	r18, r24
    43aa:	39 1f       	adc	r19, r25
    43ac:	30 93 ac 02 	sts	0x02AC, r19	; 0x8002ac <guavaspercentagewhole+0x1>
    43b0:	20 93 ab 02 	sts	0x02AB, r18	; 0x8002ab <guavaspercentagewhole>
		   }
		   	   currentguavas1=ini_guavawhole-(guavaspercentagewhole*30);
    43b4:	62 ee       	ldi	r22, 0xE2	; 226
    43b6:	62 03       	mulsu	r22, r18
    43b8:	a0 01       	movw	r20, r0
    43ba:	63 9f       	mul	r22, r19
    43bc:	50 0d       	add	r21, r0
    43be:	11 24       	eor	r1, r1
    43c0:	80 91 96 02 	lds	r24, 0x0296	; 0x800296 <ini_guavawhole>
    43c4:	90 91 97 02 	lds	r25, 0x0297	; 0x800297 <ini_guavawhole+0x1>
    43c8:	84 0f       	add	r24, r20
    43ca:	95 1f       	adc	r25, r21
    43cc:	90 93 a6 02 	sts	0x02A6, r25	; 0x8002a6 <currentguavas1+0x1>
    43d0:	80 93 a5 02 	sts	0x02A5, r24	; 0x8002a5 <currentguavas1>
    43d4:	ec e1       	ldi	r30, 0x1C	; 28
    43d6:	f2 e0       	ldi	r31, 0x02	; 2
    43d8:	c4 e1       	ldi	r28, 0x14	; 20
    43da:	d2 e0       	ldi	r29, 0x02	; 2
				currentguavas=currentguavas1;  
		   ////////////////////////////////
		   for (int i = 3; i >= 0; i--)
{
   currentguavasarray[i] = currentguavas% 10;
    43dc:	2a e0       	ldi	r18, 0x0A	; 10
    43de:	30 e0       	ldi	r19, 0x00	; 0
    43e0:	b9 01       	movw	r22, r18
    43e2:	0e 94 db 2d 	call	0x5bb6	; 0x5bb6 <__divmodhi4>
    43e6:	92 93       	st	-Z, r25
    43e8:	82 93       	st	-Z, r24
    currentguavas = currentguavas/ 10;
    43ea:	86 2f       	mov	r24, r22
    43ec:	97 2f       	mov	r25, r23
			   guavaspercentagewhole=10*guavaspercentagewhole+guavaspercentage[i];
		   }
		   	   currentguavas1=ini_guavawhole-(guavaspercentagewhole*30);
				currentguavas=currentguavas1;  
		   ////////////////////////////////
		   for (int i = 3; i >= 0; i--)
    43ee:	ec 17       	cp	r30, r28
    43f0:	fd 07       	cpc	r31, r29
    43f2:	b1 f7       	brne	.-20     	; 0x43e0 <menu+0x1d08>
    43f4:	90 93 b3 02 	sts	0x02B3, r25	; 0x8002b3 <currentguavas+0x1>
    43f8:	80 93 b2 02 	sts	0x02B2, r24	; 0x8002b2 <currentguavas>
{
   currentguavasarray[i] = currentguavas% 10;
    currentguavas = currentguavas/ 10;
}
  TX_NEWLINE;
    43fc:	8d e0       	ldi	r24, 0x0D	; 13
    43fe:	0e 94 de 0d 	call	0x1bbc	; 0x1bbc <transmitByte>
    4402:	8a e0       	ldi	r24, 0x0A	; 10
    4404:	0e 94 de 0d 	call	0x1bbc	; 0x1bbc <transmitByte>
			   transmitString_F(PSTR("GUAVAS REMAINING ARE :"));
    4408:	84 e8       	ldi	r24, 0x84	; 132
    440a:	99 e0       	ldi	r25, 0x09	; 9
    440c:	0e 94 e2 0d 	call	0x1bc4	; 0x1bc4 <transmitString_F>
			   transmitInt(currentguavasarray[0]);
    4410:	c4 e1       	ldi	r28, 0x14	; 20
    4412:	d2 e0       	ldi	r29, 0x02	; 2
    4414:	88 81       	ld	r24, Y
    4416:	0e 94 02 0e 	call	0x1c04	; 0x1c04 <transmitInt>
			    transmitInt(currentguavasarray[1]);
    441a:	8a 81       	ldd	r24, Y+2	; 0x02
    441c:	0e 94 02 0e 	call	0x1c04	; 0x1c04 <transmitInt>
				 transmitInt(currentguavasarray[2]);
    4420:	8c 81       	ldd	r24, Y+4	; 0x04
    4422:	0e 94 02 0e 	call	0x1c04	; 0x1c04 <transmitInt>
				 transmitInt(currentguavasarray[3]);		  
    4426:	8e 81       	ldd	r24, Y+6	; 0x06
    4428:	0e 94 02 0e 	call	0x1c04	; 0x1c04 <transmitInt>
	TX_NEWLINE;
    442c:	8d e0       	ldi	r24, 0x0D	; 13
    442e:	0e 94 de 0d 	call	0x1bbc	; 0x1bbc <transmitByte>
    4432:	8a e0       	ldi	r24, 0x0A	; 10
    4434:	0e 94 de 0d 	call	0x1bbc	; 0x1bbc <transmitByte>
		   
		   
		   
		   
		   
		 TX_NEWLINE;
    4438:	8d e0       	ldi	r24, 0x0D	; 13
    443a:	0e 94 de 0d 	call	0x1bbc	; 0x1bbc <transmitByte>
    443e:	8a e0       	ldi	r24, 0x0A	; 10
    4440:	0e 94 de 0d 	call	0x1bbc	; 0x1bbc <transmitByte>
			   transmitString_F(PSTR("Guavas percentage selected:"));
    4444:	88 e6       	ldi	r24, 0x68	; 104
    4446:	99 e0       	ldi	r25, 0x09	; 9
    4448:	0e 94 e2 0d 	call	0x1bc4	; 0x1bc4 <transmitString_F>
			   transmitInt(guavaspercentage[0]);
    444c:	ca e4       	ldi	r28, 0x4A	; 74
    444e:	d2 e0       	ldi	r29, 0x02	; 2
    4450:	88 81       	ld	r24, Y
    4452:	0e 94 02 0e 	call	0x1c04	; 0x1c04 <transmitInt>
			    transmitInt(guavaspercentage[1]);
    4456:	8a 81       	ldd	r24, Y+2	; 0x02
    4458:	0e 94 02 0e 	call	0x1c04	; 0x1c04 <transmitInt>
		break;
    445c:	11 c3       	rjmp	.+1570   	; 0x4a80 <menu+0x23a8>
		/////////////////////////////////////////////
		case '5':TX_NEWLINE;
    445e:	8d e0       	ldi	r24, 0x0D	; 13
    4460:	0e 94 de 0d 	call	0x1bbc	; 0x1bbc <transmitByte>
    4464:	8a e0       	ldi	r24, 0x0A	; 10
    4466:	0e 94 de 0d 	call	0x1bbc	; 0x1bbc <transmitByte>
    446a:	8f e4       	ldi	r24, 0x4F	; 79
    446c:	93 ec       	ldi	r25, 0xC3	; 195
    446e:	01 97       	sbiw	r24, 0x01	; 1
    4470:	f1 f7       	brne	.-4      	; 0x446e <menu+0x1d96>
    4472:	00 c0       	rjmp	.+0      	; 0x4474 <menu+0x1d9c>
    4474:	00 00       	nop
		_delay_ms(200);
		currentoranges1=ini_orangewhole;
    4476:	80 91 b6 02 	lds	r24, 0x02B6	; 0x8002b6 <ini_orangewhole>
    447a:	90 91 b7 02 	lds	r25, 0x02B7	; 0x8002b7 <ini_orangewhole+0x1>
    447e:	80 93 80 02 	sts	0x0280, r24	; 0x800280 <currentoranges1>
    4482:	90 93 81 02 	sts	0x0281, r25	; 0x800281 <currentoranges1+0x1>
    4486:	ec e3       	ldi	r30, 0x3C	; 60
    4488:	f2 e0       	ldi	r31, 0x02	; 2
    448a:	c4 e3       	ldi	r28, 0x34	; 52
    448c:	d2 e0       	ldi	r29, 0x02	; 2
		currentoranges=currentoranges1;
		for (int i = 3; i >= 0; i--)
		{
			currentorangesarray[i] = currentoranges % 10;
    448e:	2a e0       	ldi	r18, 0x0A	; 10
    4490:	30 e0       	ldi	r19, 0x00	; 0
    4492:	b9 01       	movw	r22, r18
    4494:	0e 94 db 2d 	call	0x5bb6	; 0x5bb6 <__divmodhi4>
    4498:	92 93       	st	-Z, r25
    449a:	82 93       	st	-Z, r24
			currentoranges = currentoranges/ 10;
    449c:	86 2f       	mov	r24, r22
    449e:	97 2f       	mov	r25, r23
		/////////////////////////////////////////////
		case '5':TX_NEWLINE;
		_delay_ms(200);
		currentoranges1=ini_orangewhole;
		currentoranges=currentoranges1;
		for (int i = 3; i >= 0; i--)
    44a0:	ec 17       	cp	r30, r28
    44a2:	fd 07       	cpc	r31, r29
    44a4:	b1 f7       	brne	.-20     	; 0x4492 <menu+0x1dba>
    44a6:	60 93 c0 02 	sts	0x02C0, r22	; 0x8002c0 <currentoranges>
    44aa:	70 93 c1 02 	sts	0x02C1, r23	; 0x8002c1 <currentoranges+0x1>
		{
			currentorangesarray[i] = currentoranges % 10;
			currentoranges = currentoranges/ 10;
		}
		TX_NEWLINE;
    44ae:	8d e0       	ldi	r24, 0x0D	; 13
    44b0:	0e 94 de 0d 	call	0x1bbc	; 0x1bbc <transmitByte>
    44b4:	8a e0       	ldi	r24, 0x0A	; 10
    44b6:	0e 94 de 0d 	call	0x1bbc	; 0x1bbc <transmitByte>
		    transmitString_F(PSTR("PERCENTAGES FOR THE FOUR FRUITS SHOULD TOTAL TO 100"));
    44ba:	84 e3       	ldi	r24, 0x34	; 52
    44bc:	99 e0       	ldi	r25, 0x09	; 9
    44be:	0e 94 e2 0d 	call	0x1bc4	; 0x1bc4 <transmitString_F>
			TX_NEWLINE;
    44c2:	8d e0       	ldi	r24, 0x0D	; 13
    44c4:	0e 94 de 0d 	call	0x1bbc	; 0x1bbc <transmitByte>
    44c8:	8a e0       	ldi	r24, 0x0A	; 10
    44ca:	0e 94 de 0d 	call	0x1bbc	; 0x1bbc <transmitByte>
		transmitString_F(PSTR("You have selected the fifth category of fruits"));
    44ce:	85 e0       	ldi	r24, 0x05	; 5
    44d0:	99 e0       	ldi	r25, 0x09	; 9
    44d2:	0e 94 e2 0d 	call	0x1bc4	; 0x1bc4 <transmitString_F>
		TX_NEWLINE;
    44d6:	8d e0       	ldi	r24, 0x0D	; 13
    44d8:	0e 94 de 0d 	call	0x1bbc	; 0x1bbc <transmitByte>
    44dc:	8a e0       	ldi	r24, 0x0A	; 10
    44de:	0e 94 de 0d 	call	0x1bbc	; 0x1bbc <transmitByte>
		transmitString_F(PSTR("Enter the percentage of mangoes"));
    44e2:	85 ee       	ldi	r24, 0xE5	; 229
    44e4:	98 e0       	ldi	r25, 0x08	; 8
    44e6:	0e 94 e2 0d 	call	0x1bc4	; 0x1bc4 <transmitString_F>
		TX_NEWLINE;
    44ea:	8d e0       	ldi	r24, 0x0D	; 13
    44ec:	0e 94 de 0d 	call	0x1bbc	; 0x1bbc <transmitByte>
    44f0:	8a e0       	ldi	r24, 0x0A	; 10
    44f2:	0e 94 de 0d 	call	0x1bbc	; 0x1bbc <transmitByte>
		 TX_NEWLINE;
    44f6:	8d e0       	ldi	r24, 0x0D	; 13
    44f8:	0e 94 de 0d 	call	0x1bbc	; 0x1bbc <transmitByte>
    44fc:	8a e0       	ldi	r24, 0x0A	; 10
    44fe:	0e 94 de 0d 	call	0x1bbc	; 0x1bbc <transmitByte>
		  transmitByte(' ');
    4502:	80 e2       	ldi	r24, 0x20	; 32
    4504:	0e 94 de 0d 	call	0x1bbc	; 0x1bbc <transmitByte>
		   data= receiveByte(); transmitByte(data);
    4508:	0e 94 da 0d 	call	0x1bb4	; 0x1bb4 <receiveByte>
    450c:	80 93 af 02 	sts	0x02AF, r24	; 0x8002af <data>
    4510:	0e 94 de 0d 	call	0x1bbc	; 0x1bbc <transmitByte>
		   mangoespercentage[0] = (data & 0x0f); //
    4514:	ce e4       	ldi	r28, 0x4E	; 78
    4516:	d2 e0       	ldi	r29, 0x02	; 2
    4518:	80 91 af 02 	lds	r24, 0x02AF	; 0x8002af <data>
    451c:	8f 70       	andi	r24, 0x0F	; 15
    451e:	90 e0       	ldi	r25, 0x00	; 0
    4520:	99 83       	std	Y+1, r25	; 0x01
    4522:	88 83       	st	Y, r24
		  
		    transmitByte(' ');	
    4524:	80 e2       	ldi	r24, 0x20	; 32
    4526:	0e 94 de 0d 	call	0x1bbc	; 0x1bbc <transmitByte>
			data = receiveByte(); transmitByte(data);
    452a:	0e 94 da 0d 	call	0x1bb4	; 0x1bb4 <receiveByte>
    452e:	80 93 af 02 	sts	0x02AF, r24	; 0x8002af <data>
    4532:	0e 94 de 0d 	call	0x1bbc	; 0x1bbc <transmitByte>
		   mangoespercentage[1] = (data & 0x0f); //
    4536:	20 91 af 02 	lds	r18, 0x02AF	; 0x8002af <data>
    453a:	2f 70       	andi	r18, 0x0F	; 15
    453c:	62 2f       	mov	r22, r18
    453e:	70 e0       	ldi	r23, 0x00	; 0
    4540:	7b 83       	std	Y+3, r23	; 0x03
    4542:	6a 83       	std	Y+2, r22	; 0x02
		   ////////////////////////////////
		       for (int i=0;i<2;i++)
		       {
			       mangoespercentagewhole=10*mangoespercentagewhole+mangoespercentage[i];
    4544:	20 91 ca 02 	lds	r18, 0x02CA	; 0x8002ca <mangoespercentagewhole>
    4548:	30 91 cb 02 	lds	r19, 0x02CB	; 0x8002cb <mangoespercentagewhole+0x1>
    454c:	c9 01       	movw	r24, r18
    454e:	88 0f       	add	r24, r24
    4550:	99 1f       	adc	r25, r25
    4552:	22 0f       	add	r18, r18
    4554:	33 1f       	adc	r19, r19
    4556:	22 0f       	add	r18, r18
    4558:	33 1f       	adc	r19, r19
    455a:	22 0f       	add	r18, r18
    455c:	33 1f       	adc	r19, r19
    455e:	82 0f       	add	r24, r18
    4560:	93 1f       	adc	r25, r19
    4562:	48 81       	ld	r20, Y
    4564:	59 81       	ldd	r21, Y+1	; 0x01
    4566:	84 0f       	add	r24, r20
    4568:	95 1f       	adc	r25, r21
    456a:	9c 01       	movw	r18, r24
    456c:	22 0f       	add	r18, r18
    456e:	33 1f       	adc	r19, r19
    4570:	88 0f       	add	r24, r24
    4572:	99 1f       	adc	r25, r25
    4574:	88 0f       	add	r24, r24
    4576:	99 1f       	adc	r25, r25
    4578:	88 0f       	add	r24, r24
    457a:	99 1f       	adc	r25, r25
    457c:	82 0f       	add	r24, r18
    457e:	93 1f       	adc	r25, r19
    4580:	9b 01       	movw	r18, r22
    4582:	28 0f       	add	r18, r24
    4584:	39 1f       	adc	r19, r25
    4586:	30 93 cb 02 	sts	0x02CB, r19	; 0x8002cb <mangoespercentagewhole+0x1>
    458a:	20 93 ca 02 	sts	0x02CA, r18	; 0x8002ca <mangoespercentagewhole>
		       }
		       currentmangoes1=ini_mangowhole-(mangoespercentagewhole*30);
    458e:	62 ee       	ldi	r22, 0xE2	; 226
    4590:	62 03       	mulsu	r22, r18
    4592:	a0 01       	movw	r20, r0
    4594:	63 9f       	mul	r22, r19
    4596:	50 0d       	add	r21, r0
    4598:	11 24       	eor	r1, r1
    459a:	80 91 8a 02 	lds	r24, 0x028A	; 0x80028a <ini_mangowhole>
    459e:	90 91 8b 02 	lds	r25, 0x028B	; 0x80028b <ini_mangowhole+0x1>
    45a2:	84 0f       	add	r24, r20
    45a4:	95 1f       	adc	r25, r21
    45a6:	90 93 85 02 	sts	0x0285, r25	; 0x800285 <currentmangoes1+0x1>
    45aa:	80 93 84 02 	sts	0x0284, r24	; 0x800284 <currentmangoes1>
    45ae:	e4 e3       	ldi	r30, 0x34	; 52
    45b0:	f2 e0       	ldi	r31, 0x02	; 2
    45b2:	cc e2       	ldi	r28, 0x2C	; 44
    45b4:	d2 e0       	ldi	r29, 0x02	; 2
			   currentmangoes=currentmangoes1;
		       ////////////////////////////////
		       for (int i = 3; i >= 0; i--)
		       {
			       currentmangoesarray[i] = currentmangoes% 10;
    45b6:	2a e0       	ldi	r18, 0x0A	; 10
    45b8:	30 e0       	ldi	r19, 0x00	; 0
    45ba:	b9 01       	movw	r22, r18
    45bc:	0e 94 db 2d 	call	0x5bb6	; 0x5bb6 <__divmodhi4>
    45c0:	92 93       	st	-Z, r25
    45c2:	82 93       	st	-Z, r24
			       currentmangoes = currentmangoes/ 10;
    45c4:	86 2f       	mov	r24, r22
    45c6:	97 2f       	mov	r25, r23
			       mangoespercentagewhole=10*mangoespercentagewhole+mangoespercentage[i];
		       }
		       currentmangoes1=ini_mangowhole-(mangoespercentagewhole*30);
			   currentmangoes=currentmangoes1;
		       ////////////////////////////////
		       for (int i = 3; i >= 0; i--)
    45c8:	ec 17       	cp	r30, r28
    45ca:	fd 07       	cpc	r31, r29
    45cc:	b1 f7       	brne	.-20     	; 0x45ba <menu+0x1ee2>
    45ce:	90 93 90 02 	sts	0x0290, r25	; 0x800290 <currentmangoes+0x1>
    45d2:	80 93 8f 02 	sts	0x028F, r24	; 0x80028f <currentmangoes>
		       {
			       currentmangoesarray[i] = currentmangoes% 10;
			       currentmangoes = currentmangoes/ 10;
		       }
		       TX_NEWLINE;
    45d6:	8d e0       	ldi	r24, 0x0D	; 13
    45d8:	0e 94 de 0d 	call	0x1bbc	; 0x1bbc <transmitByte>
    45dc:	8a e0       	ldi	r24, 0x0A	; 10
    45de:	0e 94 de 0d 	call	0x1bbc	; 0x1bbc <transmitByte>
		       transmitString_F(PSTR("MANGOES REMAINING ARE :"));
    45e2:	8d ec       	ldi	r24, 0xCD	; 205
    45e4:	98 e0       	ldi	r25, 0x08	; 8
    45e6:	0e 94 e2 0d 	call	0x1bc4	; 0x1bc4 <transmitString_F>
		       transmitInt(currentmangoesarray[0]);
    45ea:	cc e2       	ldi	r28, 0x2C	; 44
    45ec:	d2 e0       	ldi	r29, 0x02	; 2
    45ee:	88 81       	ld	r24, Y
    45f0:	0e 94 02 0e 	call	0x1c04	; 0x1c04 <transmitInt>
		       transmitInt(currentmangoesarray[1]);
    45f4:	8a 81       	ldd	r24, Y+2	; 0x02
    45f6:	0e 94 02 0e 	call	0x1c04	; 0x1c04 <transmitInt>
		       transmitInt(currentmangoesarray[2]);
    45fa:	8c 81       	ldd	r24, Y+4	; 0x04
    45fc:	0e 94 02 0e 	call	0x1c04	; 0x1c04 <transmitInt>
		       transmitInt(currentmangoesarray[3]);
    4600:	8e 81       	ldd	r24, Y+6	; 0x06
    4602:	0e 94 02 0e 	call	0x1c04	; 0x1c04 <transmitInt>
		       TX_NEWLINE;
    4606:	8d e0       	ldi	r24, 0x0D	; 13
    4608:	0e 94 de 0d 	call	0x1bbc	; 0x1bbc <transmitByte>
    460c:	8a e0       	ldi	r24, 0x0A	; 10
    460e:	0e 94 de 0d 	call	0x1bbc	; 0x1bbc <transmitByte>
		       TX_NEWLINE;
    4612:	8d e0       	ldi	r24, 0x0D	; 13
    4614:	0e 94 de 0d 	call	0x1bbc	; 0x1bbc <transmitByte>
    4618:	8a e0       	ldi	r24, 0x0A	; 10
    461a:	0e 94 de 0d 	call	0x1bbc	; 0x1bbc <transmitByte>
		  
		 TX_NEWLINE;
    461e:	8d e0       	ldi	r24, 0x0D	; 13
    4620:	0e 94 de 0d 	call	0x1bbc	; 0x1bbc <transmitByte>
    4624:	8a e0       	ldi	r24, 0x0A	; 10
    4626:	0e 94 de 0d 	call	0x1bbc	; 0x1bbc <transmitByte>
			   transmitString_F(PSTR("Mango percentage selected:"));
    462a:	82 eb       	ldi	r24, 0xB2	; 178
    462c:	98 e0       	ldi	r25, 0x08	; 8
    462e:	0e 94 e2 0d 	call	0x1bc4	; 0x1bc4 <transmitString_F>
			   transmitInt(mangoespercentage[0]);
    4632:	ce e4       	ldi	r28, 0x4E	; 78
    4634:	d2 e0       	ldi	r29, 0x02	; 2
    4636:	88 81       	ld	r24, Y
    4638:	0e 94 02 0e 	call	0x1c04	; 0x1c04 <transmitInt>
			    transmitInt(mangoespercentage[1]);
    463c:	8a 81       	ldd	r24, Y+2	; 0x02
    463e:	0e 94 02 0e 	call	0x1c04	; 0x1c04 <transmitInt>
				//////////////////////////////////////////////////////////////////
				 TX_NEWLINE;
    4642:	8d e0       	ldi	r24, 0x0D	; 13
    4644:	0e 94 de 0d 	call	0x1bbc	; 0x1bbc <transmitByte>
    4648:	8a e0       	ldi	r24, 0x0A	; 10
    464a:	0e 94 de 0d 	call	0x1bbc	; 0x1bbc <transmitByte>
				transmitString_F(PSTR("Enter the percentage of pineapples"));
    464e:	8f e8       	ldi	r24, 0x8F	; 143
    4650:	98 e0       	ldi	r25, 0x08	; 8
    4652:	0e 94 e2 0d 	call	0x1bc4	; 0x1bc4 <transmitString_F>
		 TX_NEWLINE;
    4656:	8d e0       	ldi	r24, 0x0D	; 13
    4658:	0e 94 de 0d 	call	0x1bbc	; 0x1bbc <transmitByte>
    465c:	8a e0       	ldi	r24, 0x0A	; 10
    465e:	0e 94 de 0d 	call	0x1bbc	; 0x1bbc <transmitByte>
		  transmitByte(' ');
    4662:	80 e2       	ldi	r24, 0x20	; 32
    4664:	0e 94 de 0d 	call	0x1bbc	; 0x1bbc <transmitByte>
		   data= receiveByte(); transmitByte(data);
    4668:	0e 94 da 0d 	call	0x1bb4	; 0x1bb4 <receiveByte>
    466c:	80 93 af 02 	sts	0x02AF, r24	; 0x8002af <data>
    4670:	0e 94 de 0d 	call	0x1bbc	; 0x1bbc <transmitByte>
		   pineapplespercentage[0] = (data & 0x0f); //
    4674:	c6 e4       	ldi	r28, 0x46	; 70
    4676:	d2 e0       	ldi	r29, 0x02	; 2
    4678:	80 91 af 02 	lds	r24, 0x02AF	; 0x8002af <data>
    467c:	8f 70       	andi	r24, 0x0F	; 15
    467e:	90 e0       	ldi	r25, 0x00	; 0
    4680:	99 83       	std	Y+1, r25	; 0x01
    4682:	88 83       	st	Y, r24
		  
		    transmitByte(' ');	
    4684:	80 e2       	ldi	r24, 0x20	; 32
    4686:	0e 94 de 0d 	call	0x1bbc	; 0x1bbc <transmitByte>
			data = receiveByte(); transmitByte(data);
    468a:	0e 94 da 0d 	call	0x1bb4	; 0x1bb4 <receiveByte>
    468e:	80 93 af 02 	sts	0x02AF, r24	; 0x8002af <data>
    4692:	0e 94 de 0d 	call	0x1bbc	; 0x1bbc <transmitByte>
		   pineapplespercentage[1] = (data & 0x0f); //
    4696:	20 91 af 02 	lds	r18, 0x02AF	; 0x8002af <data>
    469a:	2f 70       	andi	r18, 0x0F	; 15
    469c:	62 2f       	mov	r22, r18
    469e:	70 e0       	ldi	r23, 0x00	; 0
    46a0:	7b 83       	std	Y+3, r23	; 0x03
    46a2:	6a 83       	std	Y+2, r22	; 0x02
		   ///////////////////////////////////////////////
		    	        for (int i=0;i<2;i++)
		    	        {
			    	        pineapplespercentagewhole=10*pineapplespercentagewhole+pineapplespercentage[i];
    46a4:	20 91 9a 02 	lds	r18, 0x029A	; 0x80029a <pineapplespercentagewhole>
    46a8:	30 91 9b 02 	lds	r19, 0x029B	; 0x80029b <pineapplespercentagewhole+0x1>
    46ac:	c9 01       	movw	r24, r18
    46ae:	88 0f       	add	r24, r24
    46b0:	99 1f       	adc	r25, r25
    46b2:	22 0f       	add	r18, r18
    46b4:	33 1f       	adc	r19, r19
    46b6:	22 0f       	add	r18, r18
    46b8:	33 1f       	adc	r19, r19
    46ba:	22 0f       	add	r18, r18
    46bc:	33 1f       	adc	r19, r19
    46be:	82 0f       	add	r24, r18
    46c0:	93 1f       	adc	r25, r19
    46c2:	48 81       	ld	r20, Y
    46c4:	59 81       	ldd	r21, Y+1	; 0x01
    46c6:	84 0f       	add	r24, r20
    46c8:	95 1f       	adc	r25, r21
    46ca:	9c 01       	movw	r18, r24
    46cc:	22 0f       	add	r18, r18
    46ce:	33 1f       	adc	r19, r19
    46d0:	88 0f       	add	r24, r24
    46d2:	99 1f       	adc	r25, r25
    46d4:	88 0f       	add	r24, r24
    46d6:	99 1f       	adc	r25, r25
    46d8:	88 0f       	add	r24, r24
    46da:	99 1f       	adc	r25, r25
    46dc:	82 0f       	add	r24, r18
    46de:	93 1f       	adc	r25, r19
    46e0:	9b 01       	movw	r18, r22
    46e2:	28 0f       	add	r18, r24
    46e4:	39 1f       	adc	r19, r25
    46e6:	30 93 9b 02 	sts	0x029B, r19	; 0x80029b <pineapplespercentagewhole+0x1>
    46ea:	20 93 9a 02 	sts	0x029A, r18	; 0x80029a <pineapplespercentagewhole>
		    	        }
		    	        currentpineapples1=ini_pineapplewhole-(pineapplespercentagewhole*30);
    46ee:	62 ee       	ldi	r22, 0xE2	; 226
    46f0:	62 03       	mulsu	r22, r18
    46f2:	a0 01       	movw	r20, r0
    46f4:	63 9f       	mul	r22, r19
    46f6:	50 0d       	add	r21, r0
    46f8:	11 24       	eor	r1, r1
    46fa:	80 91 c8 02 	lds	r24, 0x02C8	; 0x8002c8 <ini_pineapplewhole>
    46fe:	90 91 c9 02 	lds	r25, 0x02C9	; 0x8002c9 <ini_pineapplewhole+0x1>
    4702:	84 0f       	add	r24, r20
    4704:	95 1f       	adc	r25, r21
    4706:	90 93 b1 02 	sts	0x02B1, r25	; 0x8002b1 <currentpineapples1+0x1>
    470a:	80 93 b0 02 	sts	0x02B0, r24	; 0x8002b0 <currentpineapples1>
    470e:	e4 e2       	ldi	r30, 0x24	; 36
    4710:	f2 e0       	ldi	r31, 0x02	; 2
    4712:	cc e1       	ldi	r28, 0x1C	; 28
    4714:	d2 e0       	ldi	r29, 0x02	; 2
						currentpineapples=currentpineapples1;
		    	        ////////////////////////////////
		    	        for (int i = 3; i >= 0; i--)
		    	        {
			    	        currentpineapplesarray[i] = currentpineapples% 10;
    4716:	2a e0       	ldi	r18, 0x0A	; 10
    4718:	30 e0       	ldi	r19, 0x00	; 0
    471a:	b9 01       	movw	r22, r18
    471c:	0e 94 db 2d 	call	0x5bb6	; 0x5bb6 <__divmodhi4>
    4720:	92 93       	st	-Z, r25
    4722:	82 93       	st	-Z, r24
			    	        currentpineapples = currentpineapples/ 10;
    4724:	86 2f       	mov	r24, r22
    4726:	97 2f       	mov	r25, r23
			    	        pineapplespercentagewhole=10*pineapplespercentagewhole+pineapplespercentage[i];
		    	        }
		    	        currentpineapples1=ini_pineapplewhole-(pineapplespercentagewhole*30);
						currentpineapples=currentpineapples1;
		    	        ////////////////////////////////
		    	        for (int i = 3; i >= 0; i--)
    4728:	ec 17       	cp	r30, r28
    472a:	fd 07       	cpc	r31, r29
    472c:	b1 f7       	brne	.-20     	; 0x471a <menu+0x2042>
    472e:	90 93 c7 02 	sts	0x02C7, r25	; 0x8002c7 <currentpineapples+0x1>
    4732:	80 93 c6 02 	sts	0x02C6, r24	; 0x8002c6 <currentpineapples>
		    	        {
			    	        currentpineapplesarray[i] = currentpineapples% 10;
			    	        currentpineapples = currentpineapples/ 10;
		    	        }
		    	        TX_NEWLINE;
    4736:	8d e0       	ldi	r24, 0x0D	; 13
    4738:	0e 94 de 0d 	call	0x1bbc	; 0x1bbc <transmitByte>
    473c:	8a e0       	ldi	r24, 0x0A	; 10
    473e:	0e 94 de 0d 	call	0x1bbc	; 0x1bbc <transmitByte>
		    	        transmitString_F(PSTR("PINEAPPLES REMAINING ARE :"));
    4742:	84 e7       	ldi	r24, 0x74	; 116
    4744:	98 e0       	ldi	r25, 0x08	; 8
    4746:	0e 94 e2 0d 	call	0x1bc4	; 0x1bc4 <transmitString_F>
		    	        transmitInt(currentpineapplesarray[0]);
    474a:	cc e1       	ldi	r28, 0x1C	; 28
    474c:	d2 e0       	ldi	r29, 0x02	; 2
    474e:	88 81       	ld	r24, Y
    4750:	0e 94 02 0e 	call	0x1c04	; 0x1c04 <transmitInt>
		    	        transmitInt(currentpineapplesarray[1]);
    4754:	8a 81       	ldd	r24, Y+2	; 0x02
    4756:	0e 94 02 0e 	call	0x1c04	; 0x1c04 <transmitInt>
		    	        transmitInt(currentpineapplesarray[2]);
    475a:	8c 81       	ldd	r24, Y+4	; 0x04
    475c:	0e 94 02 0e 	call	0x1c04	; 0x1c04 <transmitInt>
		    	        transmitInt(currentpineapplesarray[3]);
    4760:	8e 81       	ldd	r24, Y+6	; 0x06
    4762:	0e 94 02 0e 	call	0x1c04	; 0x1c04 <transmitInt>
		    	        TX_NEWLINE;
    4766:	8d e0       	ldi	r24, 0x0D	; 13
    4768:	0e 94 de 0d 	call	0x1bbc	; 0x1bbc <transmitByte>
    476c:	8a e0       	ldi	r24, 0x0A	; 10
    476e:	0e 94 de 0d 	call	0x1bbc	; 0x1bbc <transmitByte>
		    	        TX_NEWLINE;
    4772:	8d e0       	ldi	r24, 0x0D	; 13
    4774:	0e 94 de 0d 	call	0x1bbc	; 0x1bbc <transmitByte>
    4778:	8a e0       	ldi	r24, 0x0A	; 10
    477a:	0e 94 de 0d 	call	0x1bbc	; 0x1bbc <transmitByte>
		   
		 TX_NEWLINE;
    477e:	8d e0       	ldi	r24, 0x0D	; 13
    4780:	0e 94 de 0d 	call	0x1bbc	; 0x1bbc <transmitByte>
    4784:	8a e0       	ldi	r24, 0x0A	; 10
    4786:	0e 94 de 0d 	call	0x1bbc	; 0x1bbc <transmitByte>
			   transmitString_F(PSTR("pineapples percentage selected:"));
    478a:	84 e5       	ldi	r24, 0x54	; 84
    478c:	98 e0       	ldi	r25, 0x08	; 8
    478e:	0e 94 e2 0d 	call	0x1bc4	; 0x1bc4 <transmitString_F>
			   transmitInt(pineapplespercentage[0]);
    4792:	c6 e4       	ldi	r28, 0x46	; 70
    4794:	d2 e0       	ldi	r29, 0x02	; 2
    4796:	88 81       	ld	r24, Y
    4798:	0e 94 02 0e 	call	0x1c04	; 0x1c04 <transmitInt>
			    transmitInt(pineapplespercentage[1]);
    479c:	8a 81       	ldd	r24, Y+2	; 0x02
    479e:	0e 94 02 0e 	call	0x1c04	; 0x1c04 <transmitInt>
				//////////////////////////////////////////////////////////////
				 TX_NEWLINE;
    47a2:	8d e0       	ldi	r24, 0x0D	; 13
    47a4:	0e 94 de 0d 	call	0x1bbc	; 0x1bbc <transmitByte>
    47a8:	8a e0       	ldi	r24, 0x0A	; 10
    47aa:	0e 94 de 0d 	call	0x1bbc	; 0x1bbc <transmitByte>
						transmitString_F(PSTR("Enter the percentage of apples"));
    47ae:	85 e3       	ldi	r24, 0x35	; 53
    47b0:	98 e0       	ldi	r25, 0x08	; 8
    47b2:	0e 94 e2 0d 	call	0x1bc4	; 0x1bc4 <transmitString_F>
		 TX_NEWLINE;
    47b6:	8d e0       	ldi	r24, 0x0D	; 13
    47b8:	0e 94 de 0d 	call	0x1bbc	; 0x1bbc <transmitByte>
    47bc:	8a e0       	ldi	r24, 0x0A	; 10
    47be:	0e 94 de 0d 	call	0x1bbc	; 0x1bbc <transmitByte>
		  transmitByte(' ');
    47c2:	80 e2       	ldi	r24, 0x20	; 32
    47c4:	0e 94 de 0d 	call	0x1bbc	; 0x1bbc <transmitByte>
		   data= receiveByte(); transmitByte(data);
    47c8:	0e 94 da 0d 	call	0x1bb4	; 0x1bb4 <receiveByte>
    47cc:	80 93 af 02 	sts	0x02AF, r24	; 0x8002af <data>
    47d0:	0e 94 de 0d 	call	0x1bbc	; 0x1bbc <transmitByte>
		   applespercentage[0] = (data & 0x0f); //
    47d4:	c2 e4       	ldi	r28, 0x42	; 66
    47d6:	d2 e0       	ldi	r29, 0x02	; 2
    47d8:	80 91 af 02 	lds	r24, 0x02AF	; 0x8002af <data>
    47dc:	8f 70       	andi	r24, 0x0F	; 15
    47de:	90 e0       	ldi	r25, 0x00	; 0
    47e0:	99 83       	std	Y+1, r25	; 0x01
    47e2:	88 83       	st	Y, r24
		    transmitByte(' ');	
    47e4:	80 e2       	ldi	r24, 0x20	; 32
    47e6:	0e 94 de 0d 	call	0x1bbc	; 0x1bbc <transmitByte>
			data = receiveByte(); transmitByte(data);
    47ea:	0e 94 da 0d 	call	0x1bb4	; 0x1bb4 <receiveByte>
    47ee:	80 93 af 02 	sts	0x02AF, r24	; 0x8002af <data>
    47f2:	0e 94 de 0d 	call	0x1bbc	; 0x1bbc <transmitByte>
		   applespercentage[1] = (data & 0x0f); //
    47f6:	80 91 af 02 	lds	r24, 0x02AF	; 0x8002af <data>
    47fa:	8f 70       	andi	r24, 0x0F	; 15
    47fc:	90 e0       	ldi	r25, 0x00	; 0
    47fe:	9b 83       	std	Y+3, r25	; 0x03
    4800:	8a 83       	std	Y+2, r24	; 0x02
		   TX_NEWLINE;
    4802:	8d e0       	ldi	r24, 0x0D	; 13
    4804:	0e 94 de 0d 	call	0x1bbc	; 0x1bbc <transmitByte>
    4808:	8a e0       	ldi	r24, 0x0A	; 10
    480a:	0e 94 de 0d 	call	0x1bbc	; 0x1bbc <transmitByte>
		       for (int i=0;i<2;i++)
		       {
			       applespercentagewhole=10*applespercentagewhole+applespercentage[i];
    480e:	20 91 91 02 	lds	r18, 0x0291	; 0x800291 <applespercentagewhole>
    4812:	30 91 92 02 	lds	r19, 0x0292	; 0x800292 <applespercentagewhole+0x1>
    4816:	c9 01       	movw	r24, r18
    4818:	88 0f       	add	r24, r24
    481a:	99 1f       	adc	r25, r25
    481c:	22 0f       	add	r18, r18
    481e:	33 1f       	adc	r19, r19
    4820:	22 0f       	add	r18, r18
    4822:	33 1f       	adc	r19, r19
    4824:	22 0f       	add	r18, r18
    4826:	33 1f       	adc	r19, r19
    4828:	82 0f       	add	r24, r18
    482a:	93 1f       	adc	r25, r19
    482c:	28 81       	ld	r18, Y
    482e:	39 81       	ldd	r19, Y+1	; 0x01
    4830:	82 0f       	add	r24, r18
    4832:	93 1f       	adc	r25, r19
    4834:	9c 01       	movw	r18, r24
    4836:	22 0f       	add	r18, r18
    4838:	33 1f       	adc	r19, r19
    483a:	88 0f       	add	r24, r24
    483c:	99 1f       	adc	r25, r25
    483e:	88 0f       	add	r24, r24
    4840:	99 1f       	adc	r25, r25
    4842:	88 0f       	add	r24, r24
    4844:	99 1f       	adc	r25, r25
    4846:	82 0f       	add	r24, r18
    4848:	93 1f       	adc	r25, r19
    484a:	2a 81       	ldd	r18, Y+2	; 0x02
    484c:	3b 81       	ldd	r19, Y+3	; 0x03
    484e:	28 0f       	add	r18, r24
    4850:	39 1f       	adc	r19, r25
    4852:	30 93 92 02 	sts	0x0292, r19	; 0x800292 <applespercentagewhole+0x1>
    4856:	20 93 91 02 	sts	0x0291, r18	; 0x800291 <applespercentagewhole>
		       }
		       currentapples1=ini_applewhole-(applespercentagewhole*30);
    485a:	62 ee       	ldi	r22, 0xE2	; 226
    485c:	62 03       	mulsu	r22, r18
    485e:	a0 01       	movw	r20, r0
    4860:	63 9f       	mul	r22, r19
    4862:	50 0d       	add	r21, r0
    4864:	11 24       	eor	r1, r1
    4866:	80 91 c2 02 	lds	r24, 0x02C2	; 0x8002c2 <ini_applewhole>
    486a:	90 91 c3 02 	lds	r25, 0x02C3	; 0x8002c3 <ini_applewhole+0x1>
    486e:	84 0f       	add	r24, r20
    4870:	95 1f       	adc	r25, r21
    4872:	90 93 cf 02 	sts	0x02CF, r25	; 0x8002cf <currentapples1+0x1>
    4876:	80 93 ce 02 	sts	0x02CE, r24	; 0x8002ce <currentapples1>
    487a:	ec e2       	ldi	r30, 0x2C	; 44
    487c:	f2 e0       	ldi	r31, 0x02	; 2
    487e:	c4 e2       	ldi	r28, 0x24	; 36
    4880:	d2 e0       	ldi	r29, 0x02	; 2
			   currentapples=currentapples1;
		       ////////////////////////////////
		       for (int i = 3; i >= 0; i--)
		       {
			       currentapplesarray[i] = currentapples % 10;
    4882:	2a e0       	ldi	r18, 0x0A	; 10
    4884:	30 e0       	ldi	r19, 0x00	; 0
    4886:	b9 01       	movw	r22, r18
    4888:	0e 94 db 2d 	call	0x5bb6	; 0x5bb6 <__divmodhi4>
    488c:	92 93       	st	-Z, r25
    488e:	82 93       	st	-Z, r24
			       currentapples = currentapples/ 10;
    4890:	86 2f       	mov	r24, r22
    4892:	97 2f       	mov	r25, r23
			       applespercentagewhole=10*applespercentagewhole+applespercentage[i];
		       }
		       currentapples1=ini_applewhole-(applespercentagewhole*30);
			   currentapples=currentapples1;
		       ////////////////////////////////
		       for (int i = 3; i >= 0; i--)
    4894:	ec 17       	cp	r30, r28
    4896:	fd 07       	cpc	r31, r29
    4898:	b1 f7       	brne	.-20     	; 0x4886 <menu+0x21ae>
    489a:	90 93 b5 02 	sts	0x02B5, r25	; 0x8002b5 <currentapples+0x1>
    489e:	80 93 b4 02 	sts	0x02B4, r24	; 0x8002b4 <currentapples>
		       {
			       currentapplesarray[i] = currentapples % 10;
			       currentapples = currentapples/ 10;
		       }
		       TX_NEWLINE;
    48a2:	8d e0       	ldi	r24, 0x0D	; 13
    48a4:	0e 94 de 0d 	call	0x1bbc	; 0x1bbc <transmitByte>
    48a8:	8a e0       	ldi	r24, 0x0A	; 10
    48aa:	0e 94 de 0d 	call	0x1bbc	; 0x1bbc <transmitByte>
		       transmitString_F(PSTR("APPLES REMAINING ARE :"));
    48ae:	8e e1       	ldi	r24, 0x1E	; 30
    48b0:	98 e0       	ldi	r25, 0x08	; 8
    48b2:	0e 94 e2 0d 	call	0x1bc4	; 0x1bc4 <transmitString_F>
		       transmitInt(currentapplesarray[0]);
    48b6:	c4 e2       	ldi	r28, 0x24	; 36
    48b8:	d2 e0       	ldi	r29, 0x02	; 2
    48ba:	88 81       	ld	r24, Y
    48bc:	0e 94 02 0e 	call	0x1c04	; 0x1c04 <transmitInt>
		       transmitInt(currentapplesarray[1]);
    48c0:	8a 81       	ldd	r24, Y+2	; 0x02
    48c2:	0e 94 02 0e 	call	0x1c04	; 0x1c04 <transmitInt>
		       transmitInt(currentapplesarray[2]);
    48c6:	8c 81       	ldd	r24, Y+4	; 0x04
    48c8:	0e 94 02 0e 	call	0x1c04	; 0x1c04 <transmitInt>
		       transmitInt(currentapplesarray[3]);
    48cc:	8e 81       	ldd	r24, Y+6	; 0x06
    48ce:	0e 94 02 0e 	call	0x1c04	; 0x1c04 <transmitInt>
		   
		 TX_NEWLINE;
    48d2:	8d e0       	ldi	r24, 0x0D	; 13
    48d4:	0e 94 de 0d 	call	0x1bbc	; 0x1bbc <transmitByte>
    48d8:	8a e0       	ldi	r24, 0x0A	; 10
    48da:	0e 94 de 0d 	call	0x1bbc	; 0x1bbc <transmitByte>
			   transmitString_F(PSTR("Pineapples percentage selected:"));
    48de:	8e ef       	ldi	r24, 0xFE	; 254
    48e0:	97 e0       	ldi	r25, 0x07	; 7
    48e2:	0e 94 e2 0d 	call	0x1bc4	; 0x1bc4 <transmitString_F>
			   transmitInt(applespercentage[0]);
    48e6:	c2 e4       	ldi	r28, 0x42	; 66
    48e8:	d2 e0       	ldi	r29, 0x02	; 2
    48ea:	88 81       	ld	r24, Y
    48ec:	0e 94 02 0e 	call	0x1c04	; 0x1c04 <transmitInt>
			    transmitInt(applespercentage[1]);
    48f0:	8a 81       	ldd	r24, Y+2	; 0x02
    48f2:	0e 94 02 0e 	call	0x1c04	; 0x1c04 <transmitInt>
				///////////////////////////
				 TX_NEWLINE;
    48f6:	8d e0       	ldi	r24, 0x0D	; 13
    48f8:	0e 94 de 0d 	call	0x1bbc	; 0x1bbc <transmitByte>
    48fc:	8a e0       	ldi	r24, 0x0A	; 10
    48fe:	0e 94 de 0d 	call	0x1bbc	; 0x1bbc <transmitByte>
						transmitString_F(PSTR("Enter the percentage of guavas"));
    4902:	8f ed       	ldi	r24, 0xDF	; 223
    4904:	97 e0       	ldi	r25, 0x07	; 7
    4906:	0e 94 e2 0d 	call	0x1bc4	; 0x1bc4 <transmitString_F>
		 TX_NEWLINE;
    490a:	8d e0       	ldi	r24, 0x0D	; 13
    490c:	0e 94 de 0d 	call	0x1bbc	; 0x1bbc <transmitByte>
    4910:	8a e0       	ldi	r24, 0x0A	; 10
    4912:	0e 94 de 0d 	call	0x1bbc	; 0x1bbc <transmitByte>
		  transmitByte(' ');
    4916:	80 e2       	ldi	r24, 0x20	; 32
    4918:	0e 94 de 0d 	call	0x1bbc	; 0x1bbc <transmitByte>
		   data= receiveByte(); transmitByte(data);
    491c:	0e 94 da 0d 	call	0x1bb4	; 0x1bb4 <receiveByte>
    4920:	80 93 af 02 	sts	0x02AF, r24	; 0x8002af <data>
    4924:	0e 94 de 0d 	call	0x1bbc	; 0x1bbc <transmitByte>
		   guavaspercentage[0] = (data & 0x0f); //
    4928:	ca e4       	ldi	r28, 0x4A	; 74
    492a:	d2 e0       	ldi	r29, 0x02	; 2
    492c:	80 91 af 02 	lds	r24, 0x02AF	; 0x8002af <data>
    4930:	8f 70       	andi	r24, 0x0F	; 15
    4932:	90 e0       	ldi	r25, 0x00	; 0
    4934:	99 83       	std	Y+1, r25	; 0x01
    4936:	88 83       	st	Y, r24
		  
		    transmitByte(' ');	
    4938:	80 e2       	ldi	r24, 0x20	; 32
    493a:	0e 94 de 0d 	call	0x1bbc	; 0x1bbc <transmitByte>
			data = receiveByte(); transmitByte(data);
    493e:	0e 94 da 0d 	call	0x1bb4	; 0x1bb4 <receiveByte>
    4942:	80 93 af 02 	sts	0x02AF, r24	; 0x8002af <data>
    4946:	0e 94 de 0d 	call	0x1bbc	; 0x1bbc <transmitByte>
		   guavaspercentage[1] = (data & 0x0f); //
    494a:	80 91 af 02 	lds	r24, 0x02AF	; 0x8002af <data>
    494e:	8f 70       	andi	r24, 0x0F	; 15
    4950:	90 e0       	ldi	r25, 0x00	; 0
    4952:	9b 83       	std	Y+3, r25	; 0x03
    4954:	8a 83       	std	Y+2, r24	; 0x02
		        TX_NEWLINE;
    4956:	8d e0       	ldi	r24, 0x0D	; 13
    4958:	0e 94 de 0d 	call	0x1bbc	; 0x1bbc <transmitByte>
    495c:	8a e0       	ldi	r24, 0x0A	; 10
    495e:	0e 94 de 0d 	call	0x1bbc	; 0x1bbc <transmitByte>
		        for (int i=0;i<2;i++)
		        {
			        guavaspercentagewhole=10*guavaspercentagewhole+guavaspercentage[i];
    4962:	20 91 ab 02 	lds	r18, 0x02AB	; 0x8002ab <guavaspercentagewhole>
    4966:	30 91 ac 02 	lds	r19, 0x02AC	; 0x8002ac <guavaspercentagewhole+0x1>
    496a:	c9 01       	movw	r24, r18
    496c:	88 0f       	add	r24, r24
    496e:	99 1f       	adc	r25, r25
    4970:	22 0f       	add	r18, r18
    4972:	33 1f       	adc	r19, r19
    4974:	22 0f       	add	r18, r18
    4976:	33 1f       	adc	r19, r19
    4978:	22 0f       	add	r18, r18
    497a:	33 1f       	adc	r19, r19
    497c:	82 0f       	add	r24, r18
    497e:	93 1f       	adc	r25, r19
    4980:	28 81       	ld	r18, Y
    4982:	39 81       	ldd	r19, Y+1	; 0x01
    4984:	82 0f       	add	r24, r18
    4986:	93 1f       	adc	r25, r19
    4988:	9c 01       	movw	r18, r24
    498a:	22 0f       	add	r18, r18
    498c:	33 1f       	adc	r19, r19
    498e:	88 0f       	add	r24, r24
    4990:	99 1f       	adc	r25, r25
    4992:	88 0f       	add	r24, r24
    4994:	99 1f       	adc	r25, r25
    4996:	88 0f       	add	r24, r24
    4998:	99 1f       	adc	r25, r25
    499a:	82 0f       	add	r24, r18
    499c:	93 1f       	adc	r25, r19
    499e:	2a 81       	ldd	r18, Y+2	; 0x02
    49a0:	3b 81       	ldd	r19, Y+3	; 0x03
    49a2:	28 0f       	add	r18, r24
    49a4:	39 1f       	adc	r19, r25
    49a6:	30 93 ac 02 	sts	0x02AC, r19	; 0x8002ac <guavaspercentagewhole+0x1>
    49aa:	20 93 ab 02 	sts	0x02AB, r18	; 0x8002ab <guavaspercentagewhole>
		        }
		        currentguavas1=ini_guavawhole-(guavaspercentagewhole*30);
    49ae:	62 ee       	ldi	r22, 0xE2	; 226
    49b0:	62 03       	mulsu	r22, r18
    49b2:	a0 01       	movw	r20, r0
    49b4:	63 9f       	mul	r22, r19
    49b6:	50 0d       	add	r21, r0
    49b8:	11 24       	eor	r1, r1
    49ba:	80 91 96 02 	lds	r24, 0x0296	; 0x800296 <ini_guavawhole>
    49be:	90 91 97 02 	lds	r25, 0x0297	; 0x800297 <ini_guavawhole+0x1>
    49c2:	84 0f       	add	r24, r20
    49c4:	95 1f       	adc	r25, r21
    49c6:	90 93 a6 02 	sts	0x02A6, r25	; 0x8002a6 <currentguavas1+0x1>
    49ca:	80 93 a5 02 	sts	0x02A5, r24	; 0x8002a5 <currentguavas1>
    49ce:	ec e1       	ldi	r30, 0x1C	; 28
    49d0:	f2 e0       	ldi	r31, 0x02	; 2
    49d2:	c4 e1       	ldi	r28, 0x14	; 20
    49d4:	d2 e0       	ldi	r29, 0x02	; 2
				
				currentguavas=currentguavas1;
		        ////////////////////////////////
		        for (int i = 3; i >= 0; i--)
		        {
			        currentguavasarray[i] = currentguavas% 10;
    49d6:	2a e0       	ldi	r18, 0x0A	; 10
    49d8:	30 e0       	ldi	r19, 0x00	; 0
    49da:	b9 01       	movw	r22, r18
    49dc:	0e 94 db 2d 	call	0x5bb6	; 0x5bb6 <__divmodhi4>
    49e0:	92 93       	st	-Z, r25
    49e2:	82 93       	st	-Z, r24
			        currentguavas = currentguavas/ 10;
    49e4:	86 2f       	mov	r24, r22
    49e6:	97 2f       	mov	r25, r23
		        }
		        currentguavas1=ini_guavawhole-(guavaspercentagewhole*30);
				
				currentguavas=currentguavas1;
		        ////////////////////////////////
		        for (int i = 3; i >= 0; i--)
    49e8:	ec 17       	cp	r30, r28
    49ea:	fd 07       	cpc	r31, r29
    49ec:	b1 f7       	brne	.-20     	; 0x49da <menu+0x2302>
    49ee:	90 93 b3 02 	sts	0x02B3, r25	; 0x8002b3 <currentguavas+0x1>
    49f2:	80 93 b2 02 	sts	0x02B2, r24	; 0x8002b2 <currentguavas>
		        {
			        currentguavasarray[i] = currentguavas% 10;
			        currentguavas = currentguavas/ 10;
		        }
		        TX_NEWLINE;
    49f6:	8d e0       	ldi	r24, 0x0D	; 13
    49f8:	0e 94 de 0d 	call	0x1bbc	; 0x1bbc <transmitByte>
    49fc:	8a e0       	ldi	r24, 0x0A	; 10
    49fe:	0e 94 de 0d 	call	0x1bbc	; 0x1bbc <transmitByte>
		        transmitString_F(PSTR("GUAVAS REMAINING ARE :"));
    4a02:	88 ec       	ldi	r24, 0xC8	; 200
    4a04:	97 e0       	ldi	r25, 0x07	; 7
    4a06:	0e 94 e2 0d 	call	0x1bc4	; 0x1bc4 <transmitString_F>
		        transmitInt(currentguavasarray[0]);
    4a0a:	c4 e1       	ldi	r28, 0x14	; 20
    4a0c:	d2 e0       	ldi	r29, 0x02	; 2
    4a0e:	88 81       	ld	r24, Y
    4a10:	0e 94 02 0e 	call	0x1c04	; 0x1c04 <transmitInt>
		        transmitInt(currentguavasarray[1]);
    4a14:	8a 81       	ldd	r24, Y+2	; 0x02
    4a16:	0e 94 02 0e 	call	0x1c04	; 0x1c04 <transmitInt>
		        transmitInt(currentguavasarray[2]);
    4a1a:	8c 81       	ldd	r24, Y+4	; 0x04
    4a1c:	0e 94 02 0e 	call	0x1c04	; 0x1c04 <transmitInt>
		        transmitInt(currentguavasarray[3]);
    4a20:	8e 81       	ldd	r24, Y+6	; 0x06
    4a22:	0e 94 02 0e 	call	0x1c04	; 0x1c04 <transmitInt>
		        TX_NEWLINE;
    4a26:	8d e0       	ldi	r24, 0x0D	; 13
    4a28:	0e 94 de 0d 	call	0x1bbc	; 0x1bbc <transmitByte>
    4a2c:	8a e0       	ldi	r24, 0x0A	; 10
    4a2e:	0e 94 de 0d 	call	0x1bbc	; 0x1bbc <transmitByte>
		         TX_NEWLINE;
    4a32:	8d e0       	ldi	r24, 0x0D	; 13
    4a34:	0e 94 de 0d 	call	0x1bbc	; 0x1bbc <transmitByte>
    4a38:	8a e0       	ldi	r24, 0x0A	; 10
    4a3a:	0e 94 de 0d 	call	0x1bbc	; 0x1bbc <transmitByte>
			   transmitString_F(PSTR("Guavas percentage selected:"));
    4a3e:	8c ea       	ldi	r24, 0xAC	; 172
    4a40:	97 e0       	ldi	r25, 0x07	; 7
    4a42:	0e 94 e2 0d 	call	0x1bc4	; 0x1bc4 <transmitString_F>
			   transmitInt(guavaspercentage[0]);
    4a46:	ca e4       	ldi	r28, 0x4A	; 74
    4a48:	d2 e0       	ldi	r29, 0x02	; 2
    4a4a:	88 81       	ld	r24, Y
    4a4c:	0e 94 02 0e 	call	0x1c04	; 0x1c04 <transmitInt>
			    transmitInt(guavaspercentage[1]);
    4a50:	8a 81       	ldd	r24, Y+2	; 0x02
    4a52:	0e 94 02 0e 	call	0x1c04	; 0x1c04 <transmitInt>
				
				  
				
		break;
    4a56:	14 c0       	rjmp	.+40     	; 0x4a80 <menu+0x23a8>
		  /////////////////////////////////////////////////////////////////////////////////////
		  default:
		  TX_NEWLINE;
    4a58:	8d e0       	ldi	r24, 0x0D	; 13
    4a5a:	0e 94 de 0d 	call	0x1bbc	; 0x1bbc <transmitByte>
    4a5e:	8a e0       	ldi	r24, 0x0A	; 10
    4a60:	0e 94 de 0d 	call	0x1bbc	; 0x1bbc <transmitByte>
		  transmitString_F(PSTR("Invalid Option, Try Again (1 - 4);"));
    4a64:	89 e8       	ldi	r24, 0x89	; 137
    4a66:	97 e0       	ldi	r25, 0x07	; 7
    4a68:	0e 94 e2 0d 	call	0x1bc4	; 0x1bc4 <transmitString_F>
		  TX_NEWLINE;
    4a6c:	8d e0       	ldi	r24, 0x0D	; 13
    4a6e:	0e 94 de 0d 	call	0x1bbc	; 0x1bbc <transmitByte>
    4a72:	8a e0       	ldi	r24, 0x0A	; 10
    4a74:	0e 94 de 0d 	call	0x1bbc	; 0x1bbc <transmitByte>
		  transmitString_F(PSTR("Press Enter to Continue;"));
    4a78:	80 e7       	ldi	r24, 0x70	; 112
    4a7a:	97 e0       	ldi	r25, 0x07	; 7
    4a7c:	0e 94 e2 0d 	call	0x1bc4	; 0x1bc4 <transmitString_F>

		  break;
	}  
	
	///////////////////////////////////////////choosing bottle sizes/////////////////////////////////////////////////////////////////
	  eeprom_write_byte(5,currentoranges1);
    4a80:	60 91 80 02 	lds	r22, 0x0280	; 0x800280 <currentoranges1>
    4a84:	85 e0       	ldi	r24, 0x05	; 5
    4a86:	90 e0       	ldi	r25, 0x00	; 0
    4a88:	0e 94 46 2e 	call	0x5c8c	; 0x5c8c <eeprom_write_byte>
	  eeprom_write_byte(6,currentpineapples1);
    4a8c:	60 91 b0 02 	lds	r22, 0x02B0	; 0x8002b0 <currentpineapples1>
    4a90:	86 e0       	ldi	r24, 0x06	; 6
    4a92:	90 e0       	ldi	r25, 0x00	; 0
    4a94:	0e 94 46 2e 	call	0x5c8c	; 0x5c8c <eeprom_write_byte>
	  eeprom_write_byte(7,currentguavas1);
    4a98:	60 91 a5 02 	lds	r22, 0x02A5	; 0x8002a5 <currentguavas1>
    4a9c:	87 e0       	ldi	r24, 0x07	; 7
    4a9e:	90 e0       	ldi	r25, 0x00	; 0
    4aa0:	0e 94 46 2e 	call	0x5c8c	; 0x5c8c <eeprom_write_byte>
	  eeprom_write_byte(8,currentmangoes1);
    4aa4:	60 91 84 02 	lds	r22, 0x0284	; 0x800284 <currentmangoes1>
    4aa8:	88 e0       	ldi	r24, 0x08	; 8
    4aaa:	90 e0       	ldi	r25, 0x00	; 0
    4aac:	0e 94 46 2e 	call	0x5c8c	; 0x5c8c <eeprom_write_byte>
	  eeprom_write_byte(9,currentapples1);
    4ab0:	60 91 ce 02 	lds	r22, 0x02CE	; 0x8002ce <currentapples1>
    4ab4:	89 e0       	ldi	r24, 0x09	; 9
    4ab6:	90 e0       	ldi	r25, 0x00	; 0
    4ab8:	0e 94 46 2e 	call	0x5c8c	; 0x5c8c <eeprom_write_byte>
	  
	  
	  
	
	bottle_sizes();
    4abc:	0e 94 10 0e 	call	0x1c20	; 0x1c20 <bottle_sizes>
	/////////////////////////////////////////////////////////////////////////////////////////////////////////////                                                                                         
			
		   break;
    4ac0:	1f c3       	rjmp	.+1598   	; 0x5100 <menu+0x2a28>
	   
	   //////////////////////////////////////////////////////////////////////////////////////
	   case '2': TX_NEWLINE;//
    4ac2:	8d e0       	ldi	r24, 0x0D	; 13
    4ac4:	0e 94 de 0d 	call	0x1bbc	; 0x1bbc <transmitByte>
    4ac8:	8a e0       	ldi	r24, 0x0A	; 10
    4aca:	0e 94 de 0d 	call	0x1bbc	; 0x1bbc <transmitByte>
    4ace:	8f e4       	ldi	r24, 0x4F	; 79
    4ad0:	93 ec       	ldi	r25, 0xC3	; 195
    4ad2:	01 97       	sbiw	r24, 0x01	; 1
    4ad4:	f1 f7       	brne	.-4      	; 0x4ad2 <menu+0x23fa>
    4ad6:	00 c0       	rjmp	.+0      	; 0x4ad8 <menu+0x2400>
    4ad8:	00 00       	nop
			_delay_ms(200);
			
		   transmitString_F( PSTR(" Amount of drink in liters in the storage container:"));
    4ada:	8b e3       	ldi	r24, 0x3B	; 59
    4adc:	97 e0       	ldi	r25, 0x07	; 7
    4ade:	0e 94 e2 0d 	call	0x1bc4	; 0x1bc4 <transmitString_F>
		   
	
	 ///////////////////////////////////////////////////////////////////
	 storagecontainer1=storagecontainer;
    4ae2:	80 91 be 02 	lds	r24, 0x02BE	; 0x8002be <storagecontainer>
    4ae6:	90 91 bf 02 	lds	r25, 0x02BF	; 0x8002bf <storagecontainer+0x1>
	 
	
			  for (int i = 2; i >= 0; i--)
			  {
				  volume2[i] = storagecontainer1% 10;
    4aea:	cc e3       	ldi	r28, 0x3C	; 60
    4aec:	d2 e0       	ldi	r29, 0x02	; 2
    4aee:	2a e0       	ldi	r18, 0x0A	; 10
    4af0:	30 e0       	ldi	r19, 0x00	; 0
    4af2:	b9 01       	movw	r22, r18
    4af4:	0e 94 db 2d 	call	0x5bb6	; 0x5bb6 <__divmodhi4>
    4af8:	9d 83       	std	Y+5, r25	; 0x05
    4afa:	8c 83       	std	Y+4, r24	; 0x04
    4afc:	cb 01       	movw	r24, r22
    4afe:	b9 01       	movw	r22, r18
    4b00:	0e 94 db 2d 	call	0x5bb6	; 0x5bb6 <__divmodhi4>
    4b04:	9b 83       	std	Y+3, r25	; 0x03
    4b06:	8a 83       	std	Y+2, r24	; 0x02
    4b08:	cb 01       	movw	r24, r22
    4b0a:	b9 01       	movw	r22, r18
    4b0c:	0e 94 db 2d 	call	0x5bb6	; 0x5bb6 <__divmodhi4>
    4b10:	99 83       	std	Y+1, r25	; 0x01
    4b12:	88 83       	st	Y, r24
    4b14:	70 93 bd 02 	sts	0x02BD, r23	; 0x8002bd <storagecontainer1+0x1>
    4b18:	60 93 bc 02 	sts	0x02BC, r22	; 0x8002bc <storagecontainer1>
				  storagecontainer1 = storagecontainer1/ 10;
			  }
			  
			  TX_NEWLINE;
    4b1c:	8d e0       	ldi	r24, 0x0D	; 13
    4b1e:	0e 94 de 0d 	call	0x1bbc	; 0x1bbc <transmitByte>
    4b22:	8a e0       	ldi	r24, 0x0A	; 10
    4b24:	0e 94 de 0d 	call	0x1bbc	; 0x1bbc <transmitByte>
			  transmitInt(volume2[0]);
    4b28:	88 81       	ld	r24, Y
    4b2a:	0e 94 02 0e 	call	0x1c04	; 0x1c04 <transmitInt>
			  transmitInt(volume2[1]);
    4b2e:	8a 81       	ldd	r24, Y+2	; 0x02
    4b30:	0e 94 02 0e 	call	0x1c04	; 0x1c04 <transmitInt>
			  transmitInt(volume2[2]);
    4b34:	8c 81       	ldd	r24, Y+4	; 0x04
    4b36:	0e 94 02 0e 	call	0x1c04	; 0x1c04 <transmitInt>
			   transmitString_F( PSTR(" litres"));
    4b3a:	83 e3       	ldi	r24, 0x33	; 51
    4b3c:	97 e0       	ldi	r25, 0x07	; 7
    4b3e:	0e 94 e2 0d 	call	0x1bc4	; 0x1bc4 <transmitString_F>
			  TX_NEWLINE;
    4b42:	8d e0       	ldi	r24, 0x0D	; 13
    4b44:	0e 94 de 0d 	call	0x1bbc	; 0x1bbc <transmitByte>
    4b48:	8a e0       	ldi	r24, 0x0A	; 10
    4b4a:	0e 94 de 0d 	call	0x1bbc	; 0x1bbc <transmitByte>
			 TX_NEWLINE;
    4b4e:	8d e0       	ldi	r24, 0x0D	; 13
    4b50:	0e 94 de 0d 	call	0x1bbc	; 0x1bbc <transmitByte>
    4b54:	8a e0       	ldi	r24, 0x0A	; 10
    4b56:	0e 94 de 0d 	call	0x1bbc	; 0x1bbc <transmitByte>
			 transmitString_F(PSTR("Press Enter to Continue;"));
    4b5a:	8a e1       	ldi	r24, 0x1A	; 26
    4b5c:	97 e0       	ldi	r25, 0x07	; 7
    4b5e:	0e 94 e2 0d 	call	0x1bc4	; 0x1bc4 <transmitString_F>
			 
			 /////////////////////////////////////////////////////////////////////
	
		   TX_NEWLINE;
    4b62:	8d e0       	ldi	r24, 0x0D	; 13
    4b64:	0e 94 de 0d 	call	0x1bbc	; 0x1bbc <transmitByte>
    4b68:	8a e0       	ldi	r24, 0x0A	; 10
    4b6a:	0e 94 de 0d 	call	0x1bbc	; 0x1bbc <transmitByte>
		  transmitByte(' ');
    4b6e:	80 e2       	ldi	r24, 0x20	; 32
    4b70:	0e 94 de 0d 	call	0x1bbc	; 0x1bbc <transmitByte>
		   
	   break;
    4b74:	c5 c2       	rjmp	.+1418   	; 0x5100 <menu+0x2a28>
	  ///////////////////////////////////////////////////////////////////////////////////// 
	    case '3': TX_NEWLINE;//
    4b76:	8d e0       	ldi	r24, 0x0D	; 13
    4b78:	0e 94 de 0d 	call	0x1bbc	; 0x1bbc <transmitByte>
    4b7c:	8a e0       	ldi	r24, 0x0A	; 10
    4b7e:	0e 94 de 0d 	call	0x1bbc	; 0x1bbc <transmitByte>
    4b82:	8f e4       	ldi	r24, 0x4F	; 79
    4b84:	93 ec       	ldi	r25, 0xC3	; 195
    4b86:	01 97       	sbiw	r24, 0x01	; 1
    4b88:	f1 f7       	brne	.-4      	; 0x4b86 <menu+0x24ae>
    4b8a:	00 c0       	rjmp	.+0      	; 0x4b8c <menu+0x24b4>
    4b8c:	00 00       	nop
			_delay_ms(200);
		   transmitString_F( PSTR(" Bottles that are filled with  the drink :"));
    4b8e:	8f ee       	ldi	r24, 0xEF	; 239
    4b90:	96 e0       	ldi	r25, 0x06	; 6
    4b92:	0e 94 e2 0d 	call	0x1bc4	; 0x1bc4 <transmitString_F>
		   TX_NEWLINE;
    4b96:	8d e0       	ldi	r24, 0x0D	; 13
    4b98:	0e 94 de 0d 	call	0x1bbc	; 0x1bbc <transmitByte>
    4b9c:	8a e0       	ldi	r24, 0x0A	; 10
    4b9e:	0e 94 de 0d 	call	0x1bbc	; 0x1bbc <transmitByte>
		   //////////////////////////////////
		   bottles_filled2=bottles_filled;
    4ba2:	80 91 9e 02 	lds	r24, 0x029E	; 0x80029e <bottles_filled>
    4ba6:	90 91 9f 02 	lds	r25, 0x029F	; 0x80029f <bottles_filled+0x1>
		    for (int i = 2; i >= 0; i--)
			 {
				 bottles_filled1[i] = bottles_filled2% 10;
    4baa:	ce ee       	ldi	r28, 0xEE	; 238
    4bac:	d1 e0       	ldi	r29, 0x01	; 1
    4bae:	2a e0       	ldi	r18, 0x0A	; 10
    4bb0:	30 e0       	ldi	r19, 0x00	; 0
    4bb2:	b9 01       	movw	r22, r18
    4bb4:	0e 94 db 2d 	call	0x5bb6	; 0x5bb6 <__divmodhi4>
    4bb8:	9d 83       	std	Y+5, r25	; 0x05
    4bba:	8c 83       	std	Y+4, r24	; 0x04
    4bbc:	cb 01       	movw	r24, r22
    4bbe:	b9 01       	movw	r22, r18
    4bc0:	fa d7       	rcall	.+4084   	; 0x5bb6 <__divmodhi4>
    4bc2:	9b 83       	std	Y+3, r25	; 0x03
    4bc4:	8a 83       	std	Y+2, r24	; 0x02
    4bc6:	cb 01       	movw	r24, r22
    4bc8:	b9 01       	movw	r22, r18
    4bca:	f5 d7       	rcall	.+4074   	; 0x5bb6 <__divmodhi4>
    4bcc:	88 83       	st	Y, r24
    4bce:	99 83       	std	Y+1, r25	; 0x01
    4bd0:	70 93 ae 02 	sts	0x02AE, r23	; 0x8002ae <bottles_filled2+0x1>
    4bd4:	60 93 ad 02 	sts	0x02AD, r22	; 0x8002ad <bottles_filled2>
				 bottles_filled2 = bottles_filled2/ 10;
			 }
			 
			 transmitInt(bottles_filled1[0]);
    4bd8:	0e 94 02 0e 	call	0x1c04	; 0x1c04 <transmitInt>
			 transmitInt(bottles_filled1[1]);
    4bdc:	8a 81       	ldd	r24, Y+2	; 0x02
    4bde:	0e 94 02 0e 	call	0x1c04	; 0x1c04 <transmitInt>
			 transmitInt(bottles_filled1[2]);
    4be2:	8c 81       	ldd	r24, Y+4	; 0x04
    4be4:	0e 94 02 0e 	call	0x1c04	; 0x1c04 <transmitInt>
			 TX_NEWLINE;
    4be8:	8d e0       	ldi	r24, 0x0D	; 13
    4bea:	0e 94 de 0d 	call	0x1bbc	; 0x1bbc <transmitByte>
    4bee:	8a e0       	ldi	r24, 0x0A	; 10
    4bf0:	0e 94 de 0d 	call	0x1bbc	; 0x1bbc <transmitByte>
			 TX_NEWLINE;
    4bf4:	8d e0       	ldi	r24, 0x0D	; 13
    4bf6:	0e 94 de 0d 	call	0x1bbc	; 0x1bbc <transmitByte>
    4bfa:	8a e0       	ldi	r24, 0x0A	; 10
    4bfc:	0e 94 de 0d 	call	0x1bbc	; 0x1bbc <transmitByte>
			 transmitString_F(PSTR("Press Enter to Continue;"));
    4c00:	86 ed       	ldi	r24, 0xD6	; 214
    4c02:	96 e0       	ldi	r25, 0x06	; 6
    4c04:	0e 94 e2 0d 	call	0x1bc4	; 0x1bc4 <transmitString_F>
		   
		   ////////////////////////////////////
		   
		   
		  transmitByte(' ');
    4c08:	80 e2       	ldi	r24, 0x20	; 32
    4c0a:	0e 94 de 0d 	call	0x1bbc	; 0x1bbc <transmitByte>
		   
	   break;
    4c0e:	78 c2       	rjmp	.+1264   	; 0x5100 <menu+0x2a28>
	  ///////////////////////////////////////////////////////////////////////////////////// 
	 
	  case '4': TX_NEWLINE;//
    4c10:	8d e0       	ldi	r24, 0x0D	; 13
    4c12:	0e 94 de 0d 	call	0x1bbc	; 0x1bbc <transmitByte>
    4c16:	8a e0       	ldi	r24, 0x0A	; 10
    4c18:	0e 94 de 0d 	call	0x1bbc	; 0x1bbc <transmitByte>
    4c1c:	8f e4       	ldi	r24, 0x4F	; 79
    4c1e:	93 ec       	ldi	r25, 0xC3	; 195
    4c20:	01 97       	sbiw	r24, 0x01	; 1
    4c22:	f1 f7       	brne	.-4      	; 0x4c20 <menu+0x2548>
    4c24:	00 c0       	rjmp	.+0      	; 0x4c26 <menu+0x254e>
    4c26:	00 00       	nop
			_delay_ms(200);
			currentoranges=currentoranges1;
    4c28:	80 91 80 02 	lds	r24, 0x0280	; 0x800280 <currentoranges1>
    4c2c:	90 91 81 02 	lds	r25, 0x0281	; 0x800281 <currentoranges1+0x1>
    4c30:	90 93 c1 02 	sts	0x02C1, r25	; 0x8002c1 <currentoranges+0x1>
    4c34:	80 93 c0 02 	sts	0x02C0, r24	; 0x8002c0 <currentoranges>
		   transmitString_F( PSTR(" Amount of fruit left after mixing the drink :"));
    4c38:	87 ea       	ldi	r24, 0xA7	; 167
    4c3a:	96 e0       	ldi	r25, 0x06	; 6
    4c3c:	0e 94 e2 0d 	call	0x1bc4	; 0x1bc4 <transmitString_F>
    4c40:	80 91 c0 02 	lds	r24, 0x02C0	; 0x8002c0 <currentoranges>
    4c44:	90 91 c1 02 	lds	r25, 0x02C1	; 0x8002c1 <currentoranges+0x1>
    4c48:	ec e3       	ldi	r30, 0x3C	; 60
    4c4a:	f2 e0       	ldi	r31, 0x02	; 2
    4c4c:	c4 e3       	ldi	r28, 0x34	; 52
    4c4e:	d2 e0       	ldi	r29, 0x02	; 2
		   for (int i = 3; i >= 0; i--)
		   {
			   currentorangesarray[i] = currentoranges % 10;
    4c50:	2a e0       	ldi	r18, 0x0A	; 10
    4c52:	30 e0       	ldi	r19, 0x00	; 0
    4c54:	b9 01       	movw	r22, r18
    4c56:	af d7       	rcall	.+3934   	; 0x5bb6 <__divmodhi4>
    4c58:	92 93       	st	-Z, r25
    4c5a:	82 93       	st	-Z, r24
			   currentoranges = currentoranges/ 10;
    4c5c:	86 2f       	mov	r24, r22
    4c5e:	97 2f       	mov	r25, r23
	 
	  case '4': TX_NEWLINE;//
			_delay_ms(200);
			currentoranges=currentoranges1;
		   transmitString_F( PSTR(" Amount of fruit left after mixing the drink :"));
		   for (int i = 3; i >= 0; i--)
    4c60:	ec 17       	cp	r30, r28
    4c62:	fd 07       	cpc	r31, r29
    4c64:	b9 f7       	brne	.-18     	; 0x4c54 <menu+0x257c>
    4c66:	60 93 c0 02 	sts	0x02C0, r22	; 0x8002c0 <currentoranges>
    4c6a:	70 93 c1 02 	sts	0x02C1, r23	; 0x8002c1 <currentoranges+0x1>
		   {
			   currentorangesarray[i] = currentoranges % 10;
			   currentoranges = currentoranges/ 10;
		   }
		    TX_NEWLINE;
    4c6e:	8d e0       	ldi	r24, 0x0D	; 13
    4c70:	0e 94 de 0d 	call	0x1bbc	; 0x1bbc <transmitByte>
    4c74:	8a e0       	ldi	r24, 0x0A	; 10
    4c76:	0e 94 de 0d 	call	0x1bbc	; 0x1bbc <transmitByte>
			   transmitString_F(PSTR("ORANGES REMAINING ARE :"));
    4c7a:	8f e8       	ldi	r24, 0x8F	; 143
    4c7c:	96 e0       	ldi	r25, 0x06	; 6
    4c7e:	0e 94 e2 0d 	call	0x1bc4	; 0x1bc4 <transmitString_F>
			   transmitInt(currentorangesarray[0]);
    4c82:	c4 e3       	ldi	r28, 0x34	; 52
    4c84:	d2 e0       	ldi	r29, 0x02	; 2
    4c86:	88 81       	ld	r24, Y
    4c88:	0e 94 02 0e 	call	0x1c04	; 0x1c04 <transmitInt>
			    transmitInt(currentorangesarray[1]);
    4c8c:	8a 81       	ldd	r24, Y+2	; 0x02
    4c8e:	0e 94 02 0e 	call	0x1c04	; 0x1c04 <transmitInt>
				 transmitInt(currentorangesarray[2]);
    4c92:	8c 81       	ldd	r24, Y+4	; 0x04
    4c94:	0e 94 02 0e 	call	0x1c04	; 0x1c04 <transmitInt>
				 transmitInt(currentorangesarray[3]);	
    4c98:	8e 81       	ldd	r24, Y+6	; 0x06
    4c9a:	0e 94 02 0e 	call	0x1c04	; 0x1c04 <transmitInt>
				  TX_NEWLINE;
    4c9e:	8d e0       	ldi	r24, 0x0D	; 13
    4ca0:	0e 94 de 0d 	call	0x1bbc	; 0x1bbc <transmitByte>
    4ca4:	8a e0       	ldi	r24, 0x0A	; 10
    4ca6:	0e 94 de 0d 	call	0x1bbc	; 0x1bbc <transmitByte>
				  currentmangoes=currentmangoes1;
    4caa:	80 91 84 02 	lds	r24, 0x0284	; 0x800284 <currentmangoes1>
    4cae:	90 91 85 02 	lds	r25, 0x0285	; 0x800285 <currentmangoes1+0x1>
    4cb2:	e4 e3       	ldi	r30, 0x34	; 52
    4cb4:	f2 e0       	ldi	r31, 0x02	; 2
    4cb6:	cc e2       	ldi	r28, 0x2C	; 44
    4cb8:	d2 e0       	ldi	r29, 0x02	; 2
				  for (int i = 3; i >= 0; i--)
				  {
					  currentmangoesarray[i] = currentmangoes% 10;
    4cba:	2a e0       	ldi	r18, 0x0A	; 10
    4cbc:	30 e0       	ldi	r19, 0x00	; 0
    4cbe:	b9 01       	movw	r22, r18
    4cc0:	7a d7       	rcall	.+3828   	; 0x5bb6 <__divmodhi4>
    4cc2:	92 93       	st	-Z, r25
    4cc4:	82 93       	st	-Z, r24
					  currentmangoes = currentmangoes/ 10;
    4cc6:	86 2f       	mov	r24, r22
    4cc8:	97 2f       	mov	r25, r23
			    transmitInt(currentorangesarray[1]);
				 transmitInt(currentorangesarray[2]);
				 transmitInt(currentorangesarray[3]);	
				  TX_NEWLINE;
				  currentmangoes=currentmangoes1;
				  for (int i = 3; i >= 0; i--)
    4cca:	ec 17       	cp	r30, r28
    4ccc:	fd 07       	cpc	r31, r29
    4cce:	b9 f7       	brne	.-18     	; 0x4cbe <menu+0x25e6>
    4cd0:	60 93 8f 02 	sts	0x028F, r22	; 0x80028f <currentmangoes>
    4cd4:	70 93 90 02 	sts	0x0290, r23	; 0x800290 <currentmangoes+0x1>
				  {
					  currentmangoesarray[i] = currentmangoes% 10;
					  currentmangoes = currentmangoes/ 10;
				  }
			   transmitString_F(PSTR("MANGOES REMAINING ARE :"));
    4cd8:	87 e7       	ldi	r24, 0x77	; 119
    4cda:	96 e0       	ldi	r25, 0x06	; 6
    4cdc:	0e 94 e2 0d 	call	0x1bc4	; 0x1bc4 <transmitString_F>
			   transmitInt(currentmangoesarray[0]);
    4ce0:	cc e2       	ldi	r28, 0x2C	; 44
    4ce2:	d2 e0       	ldi	r29, 0x02	; 2
    4ce4:	88 81       	ld	r24, Y
    4ce6:	0e 94 02 0e 	call	0x1c04	; 0x1c04 <transmitInt>
			    transmitInt(currentmangoesarray[1]);
    4cea:	8a 81       	ldd	r24, Y+2	; 0x02
    4cec:	0e 94 02 0e 	call	0x1c04	; 0x1c04 <transmitInt>
				 transmitInt(currentmangoesarray[2]);
    4cf0:	8c 81       	ldd	r24, Y+4	; 0x04
    4cf2:	0e 94 02 0e 	call	0x1c04	; 0x1c04 <transmitInt>
				 transmitInt(currentmangoesarray[3]);		  
    4cf6:	8e 81       	ldd	r24, Y+6	; 0x06
    4cf8:	0e 94 02 0e 	call	0x1c04	; 0x1c04 <transmitInt>
	  TX_NEWLINE;
    4cfc:	8d e0       	ldi	r24, 0x0D	; 13
    4cfe:	0e 94 de 0d 	call	0x1bbc	; 0x1bbc <transmitByte>
    4d02:	8a e0       	ldi	r24, 0x0A	; 10
    4d04:	0e 94 de 0d 	call	0x1bbc	; 0x1bbc <transmitByte>
	  currentpineapples=currentpineapples1;
    4d08:	80 91 b0 02 	lds	r24, 0x02B0	; 0x8002b0 <currentpineapples1>
    4d0c:	90 91 b1 02 	lds	r25, 0x02B1	; 0x8002b1 <currentpineapples1+0x1>
    4d10:	e4 e2       	ldi	r30, 0x24	; 36
    4d12:	f2 e0       	ldi	r31, 0x02	; 2
    4d14:	cc e1       	ldi	r28, 0x1C	; 28
    4d16:	d2 e0       	ldi	r29, 0x02	; 2
	   for (int i = 3; i >= 0; i--)
	   {
		   currentpineapplesarray[i] = currentpineapples% 10;
    4d18:	2a e0       	ldi	r18, 0x0A	; 10
    4d1a:	30 e0       	ldi	r19, 0x00	; 0
    4d1c:	b9 01       	movw	r22, r18
    4d1e:	4b d7       	rcall	.+3734   	; 0x5bb6 <__divmodhi4>
    4d20:	92 93       	st	-Z, r25
    4d22:	82 93       	st	-Z, r24
		   currentpineapples = currentpineapples/ 10;
    4d24:	86 2f       	mov	r24, r22
    4d26:	97 2f       	mov	r25, r23
			    transmitInt(currentmangoesarray[1]);
				 transmitInt(currentmangoesarray[2]);
				 transmitInt(currentmangoesarray[3]);		  
	  TX_NEWLINE;
	  currentpineapples=currentpineapples1;
	   for (int i = 3; i >= 0; i--)
    4d28:	ec 17       	cp	r30, r28
    4d2a:	fd 07       	cpc	r31, r29
    4d2c:	b9 f7       	brne	.-18     	; 0x4d1c <menu+0x2644>
    4d2e:	60 93 c6 02 	sts	0x02C6, r22	; 0x8002c6 <currentpineapples>
    4d32:	70 93 c7 02 	sts	0x02C7, r23	; 0x8002c7 <currentpineapples+0x1>
	   {
		   currentpineapplesarray[i] = currentpineapples% 10;
		   currentpineapples = currentpineapples/ 10;
	   }
			   transmitString_F(PSTR("PINEAPPLES REMAINING ARE :"));
    4d36:	8c e5       	ldi	r24, 0x5C	; 92
    4d38:	96 e0       	ldi	r25, 0x06	; 6
    4d3a:	0e 94 e2 0d 	call	0x1bc4	; 0x1bc4 <transmitString_F>
			   transmitInt(currentpineapplesarray[0]);
    4d3e:	cc e1       	ldi	r28, 0x1C	; 28
    4d40:	d2 e0       	ldi	r29, 0x02	; 2
    4d42:	88 81       	ld	r24, Y
    4d44:	0e 94 02 0e 	call	0x1c04	; 0x1c04 <transmitInt>
			    transmitInt(currentpineapplesarray[1]);
    4d48:	8a 81       	ldd	r24, Y+2	; 0x02
    4d4a:	0e 94 02 0e 	call	0x1c04	; 0x1c04 <transmitInt>
				 transmitInt(currentpineapplesarray[2]);
    4d4e:	8c 81       	ldd	r24, Y+4	; 0x04
    4d50:	0e 94 02 0e 	call	0x1c04	; 0x1c04 <transmitInt>
				 transmitInt(currentpineapplesarray[3]);	
    4d54:	8e 81       	ldd	r24, Y+6	; 0x06
    4d56:	0e 94 02 0e 	call	0x1c04	; 0x1c04 <transmitInt>
		    TX_NEWLINE;
    4d5a:	8d e0       	ldi	r24, 0x0D	; 13
    4d5c:	0e 94 de 0d 	call	0x1bbc	; 0x1bbc <transmitByte>
    4d60:	8a e0       	ldi	r24, 0x0A	; 10
    4d62:	0e 94 de 0d 	call	0x1bbc	; 0x1bbc <transmitByte>
			currentguavas=currentguavas1;
    4d66:	80 91 a5 02 	lds	r24, 0x02A5	; 0x8002a5 <currentguavas1>
    4d6a:	90 91 a6 02 	lds	r25, 0x02A6	; 0x8002a6 <currentguavas1+0x1>
    4d6e:	ec e1       	ldi	r30, 0x1C	; 28
    4d70:	f2 e0       	ldi	r31, 0x02	; 2
    4d72:	c4 e1       	ldi	r28, 0x14	; 20
    4d74:	d2 e0       	ldi	r29, 0x02	; 2
			  for (int i = 3; i >= 0; i--)
			  {
				  currentguavasarray[i] = currentguavas% 10;
    4d76:	2a e0       	ldi	r18, 0x0A	; 10
    4d78:	30 e0       	ldi	r19, 0x00	; 0
    4d7a:	b9 01       	movw	r22, r18
    4d7c:	1c d7       	rcall	.+3640   	; 0x5bb6 <__divmodhi4>
    4d7e:	92 93       	st	-Z, r25
    4d80:	82 93       	st	-Z, r24
				  currentguavas = currentguavas/ 10;
    4d82:	86 2f       	mov	r24, r22
    4d84:	97 2f       	mov	r25, r23
			    transmitInt(currentpineapplesarray[1]);
				 transmitInt(currentpineapplesarray[2]);
				 transmitInt(currentpineapplesarray[3]);	
		    TX_NEWLINE;
			currentguavas=currentguavas1;
			  for (int i = 3; i >= 0; i--)
    4d86:	ec 17       	cp	r30, r28
    4d88:	fd 07       	cpc	r31, r29
    4d8a:	b9 f7       	brne	.-18     	; 0x4d7a <menu+0x26a2>
    4d8c:	60 93 b2 02 	sts	0x02B2, r22	; 0x8002b2 <currentguavas>
    4d90:	70 93 b3 02 	sts	0x02B3, r23	; 0x8002b3 <currentguavas+0x1>
			  {
				  currentguavasarray[i] = currentguavas% 10;
				  currentguavas = currentguavas/ 10;
			  }
			   transmitString_F(PSTR("GUAVAS REMAINING ARE :"));
    4d94:	85 e4       	ldi	r24, 0x45	; 69
    4d96:	96 e0       	ldi	r25, 0x06	; 6
    4d98:	0e 94 e2 0d 	call	0x1bc4	; 0x1bc4 <transmitString_F>
			   transmitInt(currentguavasarray[0]);
    4d9c:	c4 e1       	ldi	r28, 0x14	; 20
    4d9e:	d2 e0       	ldi	r29, 0x02	; 2
    4da0:	88 81       	ld	r24, Y
    4da2:	0e 94 02 0e 	call	0x1c04	; 0x1c04 <transmitInt>
			    transmitInt(currentguavasarray[1]);
    4da6:	8a 81       	ldd	r24, Y+2	; 0x02
    4da8:	0e 94 02 0e 	call	0x1c04	; 0x1c04 <transmitInt>
				 transmitInt(currentguavasarray[2]);
    4dac:	8c 81       	ldd	r24, Y+4	; 0x04
    4dae:	0e 94 02 0e 	call	0x1c04	; 0x1c04 <transmitInt>
				 transmitInt(currentguavasarray[3]);		  
    4db2:	8e 81       	ldd	r24, Y+6	; 0x06
    4db4:	0e 94 02 0e 	call	0x1c04	; 0x1c04 <transmitInt>
		    TX_NEWLINE;
    4db8:	8d e0       	ldi	r24, 0x0D	; 13
    4dba:	0e 94 de 0d 	call	0x1bbc	; 0x1bbc <transmitByte>
    4dbe:	8a e0       	ldi	r24, 0x0A	; 10
    4dc0:	0e 94 de 0d 	call	0x1bbc	; 0x1bbc <transmitByte>
			currentapples=currentapples1;
    4dc4:	80 91 ce 02 	lds	r24, 0x02CE	; 0x8002ce <currentapples1>
    4dc8:	90 91 cf 02 	lds	r25, 0x02CF	; 0x8002cf <currentapples1+0x1>
    4dcc:	ec e2       	ldi	r30, 0x2C	; 44
    4dce:	f2 e0       	ldi	r31, 0x02	; 2
    4dd0:	c4 e2       	ldi	r28, 0x24	; 36
    4dd2:	d2 e0       	ldi	r29, 0x02	; 2
			 for (int i = 3; i >= 0; i--)
			 {
				 currentapplesarray[i] = currentapples % 10;
    4dd4:	2a e0       	ldi	r18, 0x0A	; 10
    4dd6:	30 e0       	ldi	r19, 0x00	; 0
    4dd8:	b9 01       	movw	r22, r18
    4dda:	ed d6       	rcall	.+3546   	; 0x5bb6 <__divmodhi4>
    4ddc:	92 93       	st	-Z, r25
    4dde:	82 93       	st	-Z, r24
				 currentapples = currentapples/ 10;
    4de0:	86 2f       	mov	r24, r22
    4de2:	97 2f       	mov	r25, r23
			    transmitInt(currentguavasarray[1]);
				 transmitInt(currentguavasarray[2]);
				 transmitInt(currentguavasarray[3]);		  
		    TX_NEWLINE;
			currentapples=currentapples1;
			 for (int i = 3; i >= 0; i--)
    4de4:	ec 17       	cp	r30, r28
    4de6:	fd 07       	cpc	r31, r29
    4de8:	b9 f7       	brne	.-18     	; 0x4dd8 <menu+0x2700>
    4dea:	60 93 b4 02 	sts	0x02B4, r22	; 0x8002b4 <currentapples>
    4dee:	70 93 b5 02 	sts	0x02B5, r23	; 0x8002b5 <currentapples+0x1>
			 {
				 currentapplesarray[i] = currentapples % 10;
				 currentapples = currentapples/ 10;
			 }
		       transmitString_F(PSTR("APPLES REMAINING ARE :"));
    4df2:	8e e2       	ldi	r24, 0x2E	; 46
    4df4:	96 e0       	ldi	r25, 0x06	; 6
    4df6:	0e 94 e2 0d 	call	0x1bc4	; 0x1bc4 <transmitString_F>
		       transmitInt(currentapplesarray[0]);
    4dfa:	c4 e2       	ldi	r28, 0x24	; 36
    4dfc:	d2 e0       	ldi	r29, 0x02	; 2
    4dfe:	88 81       	ld	r24, Y
    4e00:	0e 94 02 0e 	call	0x1c04	; 0x1c04 <transmitInt>
		       transmitInt(currentapplesarray[1]);
    4e04:	8a 81       	ldd	r24, Y+2	; 0x02
    4e06:	0e 94 02 0e 	call	0x1c04	; 0x1c04 <transmitInt>
		       transmitInt(currentapplesarray[2]);
    4e0a:	8c 81       	ldd	r24, Y+4	; 0x04
    4e0c:	0e 94 02 0e 	call	0x1c04	; 0x1c04 <transmitInt>
		       transmitInt(currentapplesarray[3]);
    4e10:	8e 81       	ldd	r24, Y+6	; 0x06
    4e12:	0e 94 02 0e 	call	0x1c04	; 0x1c04 <transmitInt>
			   
			   TX_NEWLINE;
    4e16:	8d e0       	ldi	r24, 0x0D	; 13
    4e18:	0e 94 de 0d 	call	0x1bbc	; 0x1bbc <transmitByte>
    4e1c:	8a e0       	ldi	r24, 0x0A	; 10
    4e1e:	0e 94 de 0d 	call	0x1bbc	; 0x1bbc <transmitByte>
			   transmitString_F(PSTR("Press Enter to Continue;"));
    4e22:	85 e1       	ldi	r24, 0x15	; 21
    4e24:	96 e0       	ldi	r25, 0x06	; 6
    4e26:	0e 94 e2 0d 	call	0x1bc4	; 0x1bc4 <transmitString_F>
		   
				 		  
	TX_NEWLINE;
    4e2a:	8d e0       	ldi	r24, 0x0D	; 13
    4e2c:	0e 94 de 0d 	call	0x1bbc	; 0x1bbc <transmitByte>
    4e30:	8a e0       	ldi	r24, 0x0A	; 10
    4e32:	0e 94 de 0d 	call	0x1bbc	; 0x1bbc <transmitByte>
		  transmitByte(' ');
    4e36:	80 e2       	ldi	r24, 0x20	; 32
    4e38:	0e 94 de 0d 	call	0x1bbc	; 0x1bbc <transmitByte>
		   
	   break;
    4e3c:	61 c1       	rjmp	.+706    	; 0x5100 <menu+0x2a28>
	  ///////////////////////////////////////////////////////////////////////////////////// 
	   case '5': TX_NEWLINE;//
    4e3e:	8d e0       	ldi	r24, 0x0D	; 13
    4e40:	0e 94 de 0d 	call	0x1bbc	; 0x1bbc <transmitByte>
    4e44:	8a e0       	ldi	r24, 0x0A	; 10
    4e46:	0e 94 de 0d 	call	0x1bbc	; 0x1bbc <transmitByte>
    4e4a:	8f e4       	ldi	r24, 0x4F	; 79
    4e4c:	93 ec       	ldi	r25, 0xC3	; 195
    4e4e:	01 97       	sbiw	r24, 0x01	; 1
    4e50:	f1 f7       	brne	.-4      	; 0x4e4e <menu+0x2776>
    4e52:	00 c0       	rjmp	.+0      	; 0x4e54 <menu+0x277c>
    4e54:	00 00       	nop
			_delay_ms(200);
		   transmitString_F( PSTR("Time the plant has worked:"));
    4e56:	8a ef       	ldi	r24, 0xFA	; 250
    4e58:	95 e0       	ldi	r25, 0x05	; 5
    4e5a:	0e 94 e2 0d 	call	0x1bc4	; 0x1bc4 <transmitString_F>
		  ///////////////////////////
		  time_on1=time_on;
    4e5e:	80 91 98 02 	lds	r24, 0x0298	; 0x800298 <time_on>
    4e62:	90 91 99 02 	lds	r25, 0x0299	; 0x800299 <time_on+0x1>
		  for (int i = 2; i >= 0; i--)
		  {
			  time_on_arr[i] = time_on1% 10;
    4e66:	c2 ee       	ldi	r28, 0xE2	; 226
    4e68:	d1 e0       	ldi	r29, 0x01	; 1
    4e6a:	2a e0       	ldi	r18, 0x0A	; 10
    4e6c:	30 e0       	ldi	r19, 0x00	; 0
    4e6e:	b9 01       	movw	r22, r18
    4e70:	a2 d6       	rcall	.+3396   	; 0x5bb6 <__divmodhi4>
    4e72:	9d 83       	std	Y+5, r25	; 0x05
    4e74:	8c 83       	std	Y+4, r24	; 0x04
    4e76:	cb 01       	movw	r24, r22
    4e78:	b9 01       	movw	r22, r18
    4e7a:	9d d6       	rcall	.+3386   	; 0x5bb6 <__divmodhi4>
    4e7c:	9b 83       	std	Y+3, r25	; 0x03
    4e7e:	8a 83       	std	Y+2, r24	; 0x02
    4e80:	cb 01       	movw	r24, r22
    4e82:	b9 01       	movw	r22, r18
    4e84:	98 d6       	rcall	.+3376   	; 0x5bb6 <__divmodhi4>
    4e86:	88 83       	st	Y, r24
    4e88:	99 83       	std	Y+1, r25	; 0x01
    4e8a:	70 93 a2 02 	sts	0x02A2, r23	; 0x8002a2 <time_on1+0x1>
    4e8e:	60 93 a1 02 	sts	0x02A1, r22	; 0x8002a1 <time_on1>
			  time_on1 = time_on1/ 10;
		  }
		  
		  transmitInt(time_on_arr[0]);
    4e92:	0e 94 02 0e 	call	0x1c04	; 0x1c04 <transmitInt>
		  transmitInt(time_on_arr[1]);
    4e96:	8a 81       	ldd	r24, Y+2	; 0x02
    4e98:	0e 94 02 0e 	call	0x1c04	; 0x1c04 <transmitInt>
		  transmitInt(time_on_arr[2]);
    4e9c:	8c 81       	ldd	r24, Y+4	; 0x04
    4e9e:	0e 94 02 0e 	call	0x1c04	; 0x1c04 <transmitInt>
		  transmitString_F( PSTR(" seconds"));
    4ea2:	81 ef       	ldi	r24, 0xF1	; 241
    4ea4:	95 e0       	ldi	r25, 0x05	; 5
    4ea6:	0e 94 e2 0d 	call	0x1bc4	; 0x1bc4 <transmitString_F>
		  TX_NEWLINE;
    4eaa:	8d e0       	ldi	r24, 0x0D	; 13
    4eac:	0e 94 de 0d 	call	0x1bbc	; 0x1bbc <transmitByte>
    4eb0:	8a e0       	ldi	r24, 0x0A	; 10
    4eb2:	0e 94 de 0d 	call	0x1bbc	; 0x1bbc <transmitByte>
		  TX_NEWLINE;
    4eb6:	8d e0       	ldi	r24, 0x0D	; 13
    4eb8:	0e 94 de 0d 	call	0x1bbc	; 0x1bbc <transmitByte>
    4ebc:	8a e0       	ldi	r24, 0x0A	; 10
    4ebe:	0e 94 de 0d 	call	0x1bbc	; 0x1bbc <transmitByte>
		  transmitString_F(PSTR("Press Enter to Continue;"));
    4ec2:	88 ed       	ldi	r24, 0xD8	; 216
    4ec4:	95 e0       	ldi	r25, 0x05	; 5
    4ec6:	0e 94 e2 0d 	call	0x1bc4	; 0x1bc4 <transmitString_F>
		  
		  
		  //////////////////////////////
		  TX_NEWLINE;
    4eca:	8d e0       	ldi	r24, 0x0D	; 13
    4ecc:	0e 94 de 0d 	call	0x1bbc	; 0x1bbc <transmitByte>
    4ed0:	8a e0       	ldi	r24, 0x0A	; 10
    4ed2:	0e 94 de 0d 	call	0x1bbc	; 0x1bbc <transmitByte>
		  transmitByte(' ');
    4ed6:	80 e2       	ldi	r24, 0x20	; 32
    4ed8:	0e 94 de 0d 	call	0x1bbc	; 0x1bbc <transmitByte>
		   
	   break;
    4edc:	11 c1       	rjmp	.+546    	; 0x5100 <menu+0x2a28>
	  ///////////////////////////////////////////////////////////////////////////////////// 
	   case '6': TX_NEWLINE;//
    4ede:	8d e0       	ldi	r24, 0x0D	; 13
    4ee0:	0e 94 de 0d 	call	0x1bbc	; 0x1bbc <transmitByte>
    4ee4:	8a e0       	ldi	r24, 0x0A	; 10
    4ee6:	0e 94 de 0d 	call	0x1bbc	; 0x1bbc <transmitByte>
    4eea:	8f e4       	ldi	r24, 0x4F	; 79
    4eec:	93 ec       	ldi	r25, 0xC3	; 195
    4eee:	01 97       	sbiw	r24, 0x01	; 1
    4ef0:	f1 f7       	brne	.-4      	; 0x4eee <menu+0x2816>
    4ef2:	00 c0       	rjmp	.+0      	; 0x4ef4 <menu+0x281c>
    4ef4:	00 00       	nop
		_delay_ms(200);
		   transmitString_F( PSTR(" Time the plant had rested  is:"));
    4ef6:	88 eb       	ldi	r24, 0xB8	; 184
    4ef8:	95 e0       	ldi	r25, 0x05	; 5
    4efa:	0e 94 e2 0d 	call	0x1bc4	; 0x1bc4 <transmitString_F>
		   ///////////////////////////
		   time_off1=time_off;
    4efe:	80 91 94 02 	lds	r24, 0x0294	; 0x800294 <time_off>
    4f02:	90 91 95 02 	lds	r25, 0x0295	; 0x800295 <time_off+0x1>
		    for (int i = 2; i >= 0; i--)
		    {
			    time_off_arr[i] = time_off1% 10;
    4f06:	c8 ee       	ldi	r28, 0xE8	; 232
    4f08:	d1 e0       	ldi	r29, 0x01	; 1
    4f0a:	2a e0       	ldi	r18, 0x0A	; 10
    4f0c:	30 e0       	ldi	r19, 0x00	; 0
    4f0e:	b9 01       	movw	r22, r18
    4f10:	52 d6       	rcall	.+3236   	; 0x5bb6 <__divmodhi4>
    4f12:	9d 83       	std	Y+5, r25	; 0x05
    4f14:	8c 83       	std	Y+4, r24	; 0x04
    4f16:	cb 01       	movw	r24, r22
    4f18:	b9 01       	movw	r22, r18
    4f1a:	4d d6       	rcall	.+3226   	; 0x5bb6 <__divmodhi4>
    4f1c:	9b 83       	std	Y+3, r25	; 0x03
    4f1e:	8a 83       	std	Y+2, r24	; 0x02
    4f20:	cb 01       	movw	r24, r22
    4f22:	b9 01       	movw	r22, r18
    4f24:	48 d6       	rcall	.+3216   	; 0x5bb6 <__divmodhi4>
    4f26:	88 83       	st	Y, r24
    4f28:	99 83       	std	Y+1, r25	; 0x01
    4f2a:	70 93 a8 02 	sts	0x02A8, r23	; 0x8002a8 <time_off1+0x1>
    4f2e:	60 93 a7 02 	sts	0x02A7, r22	; 0x8002a7 <time_off1>
			    time_off1 = time_off1/ 10;
		    }
		    
		    transmitInt(time_off_arr[0]);
    4f32:	0e 94 02 0e 	call	0x1c04	; 0x1c04 <transmitInt>
		    transmitInt(time_off_arr[1]);
    4f36:	8a 81       	ldd	r24, Y+2	; 0x02
    4f38:	0e 94 02 0e 	call	0x1c04	; 0x1c04 <transmitInt>
		    transmitInt(time_off_arr[2]);
    4f3c:	8c 81       	ldd	r24, Y+4	; 0x04
    4f3e:	0e 94 02 0e 	call	0x1c04	; 0x1c04 <transmitInt>
			transmitString_F( PSTR(" seconds"));
    4f42:	8f ea       	ldi	r24, 0xAF	; 175
    4f44:	95 e0       	ldi	r25, 0x05	; 5
    4f46:	0e 94 e2 0d 	call	0x1bc4	; 0x1bc4 <transmitString_F>
		    TX_NEWLINE;
    4f4a:	8d e0       	ldi	r24, 0x0D	; 13
    4f4c:	0e 94 de 0d 	call	0x1bbc	; 0x1bbc <transmitByte>
    4f50:	8a e0       	ldi	r24, 0x0A	; 10
    4f52:	0e 94 de 0d 	call	0x1bbc	; 0x1bbc <transmitByte>
			TX_NEWLINE;
    4f56:	8d e0       	ldi	r24, 0x0D	; 13
    4f58:	0e 94 de 0d 	call	0x1bbc	; 0x1bbc <transmitByte>
    4f5c:	8a e0       	ldi	r24, 0x0A	; 10
    4f5e:	0e 94 de 0d 	call	0x1bbc	; 0x1bbc <transmitByte>
			transmitString_F(PSTR("Press Enter to Continue;"));
    4f62:	86 e9       	ldi	r24, 0x96	; 150
    4f64:	95 e0       	ldi	r25, 0x05	; 5
    4f66:	0e 94 e2 0d 	call	0x1bc4	; 0x1bc4 <transmitString_F>
		   
		   
		   //////////////////////////////
		   TX_NEWLINE;
    4f6a:	8d e0       	ldi	r24, 0x0D	; 13
    4f6c:	0e 94 de 0d 	call	0x1bbc	; 0x1bbc <transmitByte>
    4f70:	8a e0       	ldi	r24, 0x0A	; 10
    4f72:	0e 94 de 0d 	call	0x1bbc	; 0x1bbc <transmitByte>
		  transmitByte(' ');
    4f76:	80 e2       	ldi	r24, 0x20	; 32
    4f78:	0e 94 de 0d 	call	0x1bbc	; 0x1bbc <transmitByte>
		   
	   break;
    4f7c:	c1 c0       	rjmp	.+386    	; 0x5100 <menu+0x2a28>
	   //////////////////////////////////////////////////////////////////////////////////
	   
	   
	     case '7': TX_NEWLINE;//
    4f7e:	8d e0       	ldi	r24, 0x0D	; 13
    4f80:	0e 94 de 0d 	call	0x1bbc	; 0x1bbc <transmitByte>
    4f84:	8a e0       	ldi	r24, 0x0A	; 10
    4f86:	0e 94 de 0d 	call	0x1bbc	; 0x1bbc <transmitByte>
    4f8a:	8f e4       	ldi	r24, 0x4F	; 79
    4f8c:	93 ec       	ldi	r25, 0xC3	; 195
    4f8e:	01 97       	sbiw	r24, 0x01	; 1
    4f90:	f1 f7       	brne	.-4      	; 0x4f8e <menu+0x28b6>
    4f92:	00 c0       	rjmp	.+0      	; 0x4f94 <menu+0x28bc>
    4f94:	00 00       	nop
	     _delay_ms(200);
	     transmitString_F( PSTR(" Change the volume to be dispensed:"));
    4f96:	82 e7       	ldi	r24, 0x72	; 114
    4f98:	95 e0       	ldi	r25, 0x05	; 5
    4f9a:	0e 94 e2 0d 	call	0x1bc4	; 0x1bc4 <transmitString_F>
	     ///////////////////////////
	    
	     bottle_sizes();
    4f9e:	0e 94 10 0e 	call	0x1c20	; 0x1c20 <bottle_sizes>
	     //////////////////////////////
	     TX_NEWLINE;
    4fa2:	8d e0       	ldi	r24, 0x0D	; 13
    4fa4:	0e 94 de 0d 	call	0x1bbc	; 0x1bbc <transmitByte>
    4fa8:	8a e0       	ldi	r24, 0x0A	; 10
    4faa:	0e 94 de 0d 	call	0x1bbc	; 0x1bbc <transmitByte>
	     transmitByte(' ');
    4fae:	80 e2       	ldi	r24, 0x20	; 32
    4fb0:	0e 94 de 0d 	call	0x1bbc	; 0x1bbc <transmitByte>
	     
	     break;
    4fb4:	a5 c0       	rjmp	.+330    	; 0x5100 <menu+0x2a28>
	   
	  ///////////////////////////////////////////////////////////////////////////////////// 
	   //////////////////////////////////////////////////////////////////////////////////
	   
	   
	   case '8': TX_NEWLINE;//
    4fb6:	8d e0       	ldi	r24, 0x0D	; 13
    4fb8:	0e 94 de 0d 	call	0x1bbc	; 0x1bbc <transmitByte>
    4fbc:	8a e0       	ldi	r24, 0x0A	; 10
    4fbe:	0e 94 de 0d 	call	0x1bbc	; 0x1bbc <transmitByte>
    4fc2:	8f e4       	ldi	r24, 0x4F	; 79
    4fc4:	93 ec       	ldi	r25, 0xC3	; 195
    4fc6:	01 97       	sbiw	r24, 0x01	; 1
    4fc8:	f1 f7       	brne	.-4      	; 0x4fc6 <menu+0x28ee>
    4fca:	00 c0       	rjmp	.+0      	; 0x4fcc <menu+0x28f4>
    4fcc:	00 00       	nop
	   _delay_ms(200);
	   transmitString_F( PSTR(" Clearing Existing Setting"));
    4fce:	87 e5       	ldi	r24, 0x57	; 87
    4fd0:	95 e0       	ldi	r25, 0x05	; 5
    4fd2:	0e 94 e2 0d 	call	0x1bc4	; 0x1bc4 <transmitString_F>
	   ///////////////////////////
	   numberofbottles1=0;
    4fd6:	10 92 b9 02 	sts	0x02B9, r1	; 0x8002b9 <numberofbottles1+0x1>
    4fda:	10 92 b8 02 	sts	0x02B8, r1	; 0x8002b8 <numberofbottles1>
	   bottles_filled=0;
    4fde:	10 92 9f 02 	sts	0x029F, r1	; 0x80029f <bottles_filled+0x1>
    4fe2:	10 92 9e 02 	sts	0x029E, r1	; 0x80029e <bottles_filled>
	   time_off=0;
    4fe6:	10 92 95 02 	sts	0x0295, r1	; 0x800295 <time_off+0x1>
    4fea:	10 92 94 02 	sts	0x0294, r1	; 0x800294 <time_off>
	   time_on=0;
    4fee:	10 92 99 02 	sts	0x0299, r1	; 0x800299 <time_on+0x1>
    4ff2:	10 92 98 02 	sts	0x0298, r1	; 0x800298 <time_on>
	   storagecontainer=0;
    4ff6:	10 92 bf 02 	sts	0x02BF, r1	; 0x8002bf <storagecontainer+0x1>
    4ffa:	10 92 be 02 	sts	0x02BE, r1	; 0x8002be <storagecontainer>
	   
	   currentoranges=0;
    4ffe:	10 92 c1 02 	sts	0x02C1, r1	; 0x8002c1 <currentoranges+0x1>
    5002:	10 92 c0 02 	sts	0x02C0, r1	; 0x8002c0 <currentoranges>
	   currentpineapples=0;
    5006:	10 92 c7 02 	sts	0x02C7, r1	; 0x8002c7 <currentpineapples+0x1>
    500a:	10 92 c6 02 	sts	0x02C6, r1	; 0x8002c6 <currentpineapples>
	   currentguavas=0;
    500e:	10 92 b3 02 	sts	0x02B3, r1	; 0x8002b3 <currentguavas+0x1>
    5012:	10 92 b2 02 	sts	0x02B2, r1	; 0x8002b2 <currentguavas>
	   currentmangoes=0;
    5016:	10 92 90 02 	sts	0x0290, r1	; 0x800290 <currentmangoes+0x1>
    501a:	10 92 8f 02 	sts	0x028F, r1	; 0x80028f <currentmangoes>
	   currentapples=0;
    501e:	10 92 b5 02 	sts	0x02B5, r1	; 0x8002b5 <currentapples+0x1>
    5022:	10 92 b4 02 	sts	0x02B4, r1	; 0x8002b4 <currentapples>
    5026:	9f e7       	ldi	r25, 0x7F	; 127
    5028:	2a e1       	ldi	r18, 0x1A	; 26
    502a:	86 e0       	ldi	r24, 0x06	; 6
    502c:	91 50       	subi	r25, 0x01	; 1
    502e:	20 40       	sbci	r18, 0x00	; 0
    5030:	80 40       	sbci	r24, 0x00	; 0
    5032:	e1 f7       	brne	.-8      	; 0x502c <menu+0x2954>
    5034:	00 c0       	rjmp	.+0      	; 0x5036 <menu+0x295e>
    5036:	00 00       	nop
	   
	   
	   _delay_ms(2000);
	   eeprom_write_byte(0,numberofbottles1);
    5038:	60 91 b8 02 	lds	r22, 0x02B8	; 0x8002b8 <numberofbottles1>
    503c:	80 e0       	ldi	r24, 0x00	; 0
    503e:	90 e0       	ldi	r25, 0x00	; 0
    5040:	25 d6       	rcall	.+3146   	; 0x5c8c <eeprom_write_byte>
	  eeprom_write_byte(1,bottles_filled);
    5042:	60 91 9e 02 	lds	r22, 0x029E	; 0x80029e <bottles_filled>
    5046:	81 e0       	ldi	r24, 0x01	; 1
    5048:	90 e0       	ldi	r25, 0x00	; 0
    504a:	20 d6       	rcall	.+3136   	; 0x5c8c <eeprom_write_byte>
	  eeprom_write_byte(2,time_off);
    504c:	60 91 94 02 	lds	r22, 0x0294	; 0x800294 <time_off>
    5050:	82 e0       	ldi	r24, 0x02	; 2
    5052:	90 e0       	ldi	r25, 0x00	; 0
    5054:	1b d6       	rcall	.+3126   	; 0x5c8c <eeprom_write_byte>
	   eeprom_write_byte(3,time_on);
    5056:	60 91 98 02 	lds	r22, 0x0298	; 0x800298 <time_on>
    505a:	83 e0       	ldi	r24, 0x03	; 3
    505c:	90 e0       	ldi	r25, 0x00	; 0
    505e:	16 d6       	rcall	.+3116   	; 0x5c8c <eeprom_write_byte>
	   eeprom_write_byte(4,storagecontainer);
    5060:	60 91 be 02 	lds	r22, 0x02BE	; 0x8002be <storagecontainer>
    5064:	84 e0       	ldi	r24, 0x04	; 4
    5066:	90 e0       	ldi	r25, 0x00	; 0
    5068:	11 d6       	rcall	.+3106   	; 0x5c8c <eeprom_write_byte>
	     eeprom_write_byte(5,currentoranges1);
    506a:	60 91 80 02 	lds	r22, 0x0280	; 0x800280 <currentoranges1>
    506e:	85 e0       	ldi	r24, 0x05	; 5
    5070:	90 e0       	ldi	r25, 0x00	; 0
    5072:	0c d6       	rcall	.+3096   	; 0x5c8c <eeprom_write_byte>
	     eeprom_write_byte(6,currentpineapples1);
    5074:	60 91 b0 02 	lds	r22, 0x02B0	; 0x8002b0 <currentpineapples1>
    5078:	86 e0       	ldi	r24, 0x06	; 6
    507a:	90 e0       	ldi	r25, 0x00	; 0
    507c:	07 d6       	rcall	.+3086   	; 0x5c8c <eeprom_write_byte>
	     eeprom_write_byte(7,currentguavas1);
    507e:	60 91 a5 02 	lds	r22, 0x02A5	; 0x8002a5 <currentguavas1>
    5082:	87 e0       	ldi	r24, 0x07	; 7
    5084:	90 e0       	ldi	r25, 0x00	; 0
    5086:	02 d6       	rcall	.+3076   	; 0x5c8c <eeprom_write_byte>
	     eeprom_write_byte(8,currentmangoes1);
    5088:	60 91 84 02 	lds	r22, 0x0284	; 0x800284 <currentmangoes1>
    508c:	88 e0       	ldi	r24, 0x08	; 8
    508e:	90 e0       	ldi	r25, 0x00	; 0
    5090:	fd d5       	rcall	.+3066   	; 0x5c8c <eeprom_write_byte>
	     eeprom_write_byte(9,currentapples1);
    5092:	60 91 ce 02 	lds	r22, 0x02CE	; 0x8002ce <currentapples1>
    5096:	89 e0       	ldi	r24, 0x09	; 9
    5098:	90 e0       	ldi	r25, 0x00	; 0
    509a:	f8 d5       	rcall	.+3056   	; 0x5c8c <eeprom_write_byte>
	   
	 
	   
	   TX_NEWLINE;
    509c:	8d e0       	ldi	r24, 0x0D	; 13
    509e:	0e 94 de 0d 	call	0x1bbc	; 0x1bbc <transmitByte>
    50a2:	8a e0       	ldi	r24, 0x0A	; 10
    50a4:	0e 94 de 0d 	call	0x1bbc	; 0x1bbc <transmitByte>
	   transmitString_F(PSTR("Settings cleared successfully"));
    50a8:	89 e3       	ldi	r24, 0x39	; 57
    50aa:	95 e0       	ldi	r25, 0x05	; 5
    50ac:	0e 94 e2 0d 	call	0x1bc4	; 0x1bc4 <transmitString_F>
	   TX_NEWLINE;
    50b0:	8d e0       	ldi	r24, 0x0D	; 13
    50b2:	0e 94 de 0d 	call	0x1bbc	; 0x1bbc <transmitByte>
    50b6:	8a e0       	ldi	r24, 0x0A	; 10
    50b8:	0e 94 de 0d 	call	0x1bbc	; 0x1bbc <transmitByte>
	   transmitString_F(PSTR("Press Enter to Continue;"));
    50bc:	80 e2       	ldi	r24, 0x20	; 32
    50be:	95 e0       	ldi	r25, 0x05	; 5
    50c0:	0e 94 e2 0d 	call	0x1bc4	; 0x1bc4 <transmitString_F>
	 
	   //////////////////////////////
	   TX_NEWLINE;
    50c4:	8d e0       	ldi	r24, 0x0D	; 13
    50c6:	0e 94 de 0d 	call	0x1bbc	; 0x1bbc <transmitByte>
    50ca:	8a e0       	ldi	r24, 0x0A	; 10
    50cc:	0e 94 de 0d 	call	0x1bbc	; 0x1bbc <transmitByte>
	   transmitByte(' ');
    50d0:	80 e2       	ldi	r24, 0x20	; 32
    50d2:	0e 94 de 0d 	call	0x1bbc	; 0x1bbc <transmitByte>
	   
	   break;
    50d6:	14 c0       	rjmp	.+40     	; 0x5100 <menu+0x2a28>
	   
	   /////////////////////////////////////////////////////////////////////////////////////
	  
	  
		default:
		TX_NEWLINE;
    50d8:	8d e0       	ldi	r24, 0x0D	; 13
    50da:	0e 94 de 0d 	call	0x1bbc	; 0x1bbc <transmitByte>
    50de:	8a e0       	ldi	r24, 0x0A	; 10
    50e0:	0e 94 de 0d 	call	0x1bbc	; 0x1bbc <transmitByte>
			transmitString_F(PSTR("Invalid Option, Try Again (1 - 8);"));
    50e4:	8d ef       	ldi	r24, 0xFD	; 253
    50e6:	94 e0       	ldi	r25, 0x04	; 4
    50e8:	0e 94 e2 0d 	call	0x1bc4	; 0x1bc4 <transmitString_F>
			TX_NEWLINE;
    50ec:	8d e0       	ldi	r24, 0x0D	; 13
    50ee:	0e 94 de 0d 	call	0x1bbc	; 0x1bbc <transmitByte>
    50f2:	8a e0       	ldi	r24, 0x0A	; 10
    50f4:	0e 94 de 0d 	call	0x1bbc	; 0x1bbc <transmitByte>
			transmitString_F(PSTR("Press Enter to Continue;"));
    50f8:	84 ee       	ldi	r24, 0xE4	; 228
    50fa:	94 e0       	ldi	r25, 0x04	; 4
    50fc:	0e 94 e2 0d 	call	0x1bc4	; 0x1bc4 <transmitString_F>

			break;
   }
	 
}
    5100:	df 91       	pop	r29
    5102:	cf 91       	pop	r28
    5104:	08 95       	ret

00005106 <__vector_18>:
  
   ////////////////////////////////////////////////////////////////////////////////////////


//USART ISR
ISR(USART0_RX_vect){
    5106:	1f 92       	push	r1
    5108:	0f 92       	push	r0
    510a:	0f b6       	in	r0, 0x3f	; 63
    510c:	0f 92       	push	r0
    510e:	11 24       	eor	r1, r1
    5110:	0b b6       	in	r0, 0x3b	; 59
    5112:	0f 92       	push	r0
    5114:	2f 93       	push	r18
    5116:	3f 93       	push	r19
    5118:	4f 93       	push	r20
    511a:	5f 93       	push	r21
    511c:	6f 93       	push	r22
    511e:	7f 93       	push	r23
    5120:	8f 93       	push	r24
    5122:	9f 93       	push	r25
    5124:	af 93       	push	r26
    5126:	bf 93       	push	r27
    5128:	ef 93       	push	r30
    512a:	ff 93       	push	r31
	char dataIn;
	option = UDR0;	
    512c:	8c b1       	in	r24, 0x0c	; 12
    512e:	80 93 93 02 	sts	0x0293, r24	; 0x800293 <option>
	TX_NEWLINE;
    5132:	8d e0       	ldi	r24, 0x0D	; 13
    5134:	0e 94 de 0d 	call	0x1bbc	; 0x1bbc <transmitByte>
    5138:	8a e0       	ldi	r24, 0x0A	; 10
    513a:	0e 94 de 0d 	call	0x1bbc	; 0x1bbc <transmitByte>
	transmitString_F(PSTR(" 1 : Configure the plant."));
    513e:	8a ec       	ldi	r24, 0xCA	; 202
    5140:	94 e0       	ldi	r25, 0x04	; 4
    5142:	0e 94 e2 0d 	call	0x1bc4	; 0x1bc4 <transmitString_F>
	TX_NEWLINE;
    5146:	8d e0       	ldi	r24, 0x0D	; 13
    5148:	0e 94 de 0d 	call	0x1bbc	; 0x1bbc <transmitByte>
    514c:	8a e0       	ldi	r24, 0x0A	; 10
    514e:	0e 94 de 0d 	call	0x1bbc	; 0x1bbc <transmitByte>
	transmitString_F(PSTR(" 2 :CHECK Amount of drink in liters in the storage container."));
    5152:	8c e8       	ldi	r24, 0x8C	; 140
    5154:	94 e0       	ldi	r25, 0x04	; 4
    5156:	0e 94 e2 0d 	call	0x1bc4	; 0x1bc4 <transmitString_F>
	TX_NEWLINE;
    515a:	8d e0       	ldi	r24, 0x0D	; 13
    515c:	0e 94 de 0d 	call	0x1bbc	; 0x1bbc <transmitByte>
    5160:	8a e0       	ldi	r24, 0x0A	; 10
    5162:	0e 94 de 0d 	call	0x1bbc	; 0x1bbc <transmitByte>
	transmitString_F(PSTR(" 3 :CHECK How many bottles are filled with  the drink."));
    5166:	85 e5       	ldi	r24, 0x55	; 85
    5168:	94 e0       	ldi	r25, 0x04	; 4
    516a:	0e 94 e2 0d 	call	0x1bc4	; 0x1bc4 <transmitString_F>
	TX_NEWLINE;
    516e:	8d e0       	ldi	r24, 0x0D	; 13
    5170:	0e 94 de 0d 	call	0x1bbc	; 0x1bbc <transmitByte>
    5174:	8a e0       	ldi	r24, 0x0A	; 10
    5176:	0e 94 de 0d 	call	0x1bbc	; 0x1bbc <transmitByte>
	transmitString_F(PSTR(" 4 :CHECK Amount of fruit left after mixing the drink."));
    517a:	8e e1       	ldi	r24, 0x1E	; 30
    517c:	94 e0       	ldi	r25, 0x04	; 4
    517e:	0e 94 e2 0d 	call	0x1bc4	; 0x1bc4 <transmitString_F>
	TX_NEWLINE;
    5182:	8d e0       	ldi	r24, 0x0D	; 13
    5184:	0e 94 de 0d 	call	0x1bbc	; 0x1bbc <transmitByte>
    5188:	8a e0       	ldi	r24, 0x0A	; 10
    518a:	0e 94 de 0d 	call	0x1bbc	; 0x1bbc <transmitByte>
	transmitString_F(PSTR(" 5 :CHECK How much time the plant has worked."));
    518e:	80 ef       	ldi	r24, 0xF0	; 240
    5190:	93 e0       	ldi	r25, 0x03	; 3
    5192:	0e 94 e2 0d 	call	0x1bc4	; 0x1bc4 <transmitString_F>
	TX_NEWLINE;
    5196:	8d e0       	ldi	r24, 0x0D	; 13
    5198:	0e 94 de 0d 	call	0x1bbc	; 0x1bbc <transmitByte>
    519c:	8a e0       	ldi	r24, 0x0A	; 10
    519e:	0e 94 de 0d 	call	0x1bbc	; 0x1bbc <transmitByte>
	transmitString_F(PSTR(" 6 :CHECK How much time the plant had rested."));
    51a2:	82 ec       	ldi	r24, 0xC2	; 194
    51a4:	93 e0       	ldi	r25, 0x03	; 3
    51a6:	0e 94 e2 0d 	call	0x1bc4	; 0x1bc4 <transmitString_F>
	TX_NEWLINE;
    51aa:	8d e0       	ldi	r24, 0x0D	; 13
    51ac:	0e 94 de 0d 	call	0x1bbc	; 0x1bbc <transmitByte>
    51b0:	8a e0       	ldi	r24, 0x0A	; 10
    51b2:	0e 94 de 0d 	call	0x1bbc	; 0x1bbc <transmitByte>
	transmitString_F(PSTR(" 7 :Change the volume to be dispensed."));
    51b6:	8b e9       	ldi	r24, 0x9B	; 155
    51b8:	93 e0       	ldi	r25, 0x03	; 3
    51ba:	0e 94 e2 0d 	call	0x1bc4	; 0x1bc4 <transmitString_F>
	TX_NEWLINE;
    51be:	8d e0       	ldi	r24, 0x0D	; 13
    51c0:	0e 94 de 0d 	call	0x1bbc	; 0x1bbc <transmitByte>
    51c4:	8a e0       	ldi	r24, 0x0A	; 10
    51c6:	0e 94 de 0d 	call	0x1bbc	; 0x1bbc <transmitByte>
	transmitString_F(PSTR(" 8 :Clear Existing Settings"));
    51ca:	8f e7       	ldi	r24, 0x7F	; 127
    51cc:	93 e0       	ldi	r25, 0x03	; 3
    51ce:	0e 94 e2 0d 	call	0x1bc4	; 0x1bc4 <transmitString_F>
	TX_NEWLINE;
    51d2:	8d e0       	ldi	r24, 0x0D	; 13
    51d4:	0e 94 de 0d 	call	0x1bbc	; 0x1bbc <transmitByte>
    51d8:	8a e0       	ldi	r24, 0x0A	; 10
    51da:	0e 94 de 0d 	call	0x1bbc	; 0x1bbc <transmitByte>
	transmitString_F(PSTR("  Select Option ( 1 - 8 ): "));
    51de:	83 e6       	ldi	r24, 0x63	; 99
    51e0:	93 e0       	ldi	r25, 0x03	; 3
    51e2:	0e 94 e2 0d 	call	0x1bc4	; 0x1bc4 <transmitString_F>
	TX_NEWLINE;
    51e6:	8d e0       	ldi	r24, 0x0D	; 13
    51e8:	0e 94 de 0d 	call	0x1bbc	; 0x1bbc <transmitByte>
    51ec:	8a e0       	ldi	r24, 0x0A	; 10
    51ee:	0e 94 de 0d 	call	0x1bbc	; 0x1bbc <transmitByte>
	transmitByte(' ');
    51f2:	80 e2       	ldi	r24, 0x20	; 32
    51f4:	0e 94 de 0d 	call	0x1bbc	; 0x1bbc <transmitByte>
	option = receiveByte();
    51f8:	0e 94 da 0d 	call	0x1bb4	; 0x1bb4 <receiveByte>
    51fc:	80 93 93 02 	sts	0x0293, r24	; 0x800293 <option>
	TX_NEWLINE;
    5200:	8d e0       	ldi	r24, 0x0D	; 13
    5202:	0e 94 de 0d 	call	0x1bbc	; 0x1bbc <transmitByte>
    5206:	8a e0       	ldi	r24, 0x0A	; 10
    5208:	0e 94 de 0d 	call	0x1bbc	; 0x1bbc <transmitByte>
	menu(option);
    520c:	80 91 93 02 	lds	r24, 0x0293	; 0x800293 <option>
    5210:	0e 94 6c 13 	call	0x26d8	; 0x26d8 <menu>
}
    5214:	ff 91       	pop	r31
    5216:	ef 91       	pop	r30
    5218:	bf 91       	pop	r27
    521a:	af 91       	pop	r26
    521c:	9f 91       	pop	r25
    521e:	8f 91       	pop	r24
    5220:	7f 91       	pop	r23
    5222:	6f 91       	pop	r22
    5224:	5f 91       	pop	r21
    5226:	4f 91       	pop	r20
    5228:	3f 91       	pop	r19
    522a:	2f 91       	pop	r18
    522c:	0f 90       	pop	r0
    522e:	0b be       	out	0x3b, r0	; 59
    5230:	0f 90       	pop	r0
    5232:	0f be       	out	0x3f, r0	; 63
    5234:	0f 90       	pop	r0
    5236:	1f 90       	pop	r1
    5238:	18 95       	reti

0000523a <main>:

////////////////////////////////////////////////
int main(void)

{	
	DDRA =  0xFF;
    523a:	8f ef       	ldi	r24, 0xFF	; 255
    523c:	8a bb       	out	0x1a, r24	; 26
	DDRB =  0x01;
    523e:	91 e0       	ldi	r25, 0x01	; 1
    5240:	97 bb       	out	0x17, r25	; 23
	DDRE = 0xFF;
    5242:	82 b9       	out	0x02, r24	; 2
	DDRE = 0b11111110;
    5244:	8e ef       	ldi	r24, 0xFE	; 254
    5246:	82 b9       	out	0x02, r24	; 2
	
	USART_Init(UBRR);
    5248:	83 e3       	ldi	r24, 0x33	; 51
    524a:	90 e0       	ldi	r25, 0x00	; 0
    524c:	0e 94 d1 0d 	call	0x1ba2	; 0x1ba2 <USART_Init>
	init_timer0();
    5250:	0e 94 c7 0d 	call	0x1b8e	; 0x1b8e <init_timer0>
	TX_NEWLINE;
    5254:	8d e0       	ldi	r24, 0x0D	; 13
    5256:	0e 94 de 0d 	call	0x1bbc	; 0x1bbc <transmitByte>
    525a:	8a e0       	ldi	r24, 0x0A	; 10
    525c:	0e 94 de 0d 	call	0x1bbc	; 0x1bbc <transmitByte>
	TX_NEWLINE;
    5260:	8d e0       	ldi	r24, 0x0D	; 13
    5262:	0e 94 de 0d 	call	0x1bbc	; 0x1bbc <transmitByte>
    5266:	8a e0       	ldi	r24, 0x0A	; 10
    5268:	0e 94 de 0d 	call	0x1bbc	; 0x1bbc <transmitByte>
	transmitString_F(PSTR("|*****************************************   |"));
    526c:	84 e3       	ldi	r24, 0x34	; 52
    526e:	93 e0       	ldi	r25, 0x03	; 3
    5270:	0e 94 e2 0d 	call	0x1bc4	; 0x1bc4 <transmitString_F>
	TX_NEWLINE;
    5274:	8d e0       	ldi	r24, 0x0D	; 13
    5276:	0e 94 de 0d 	call	0x1bbc	; 0x1bbc <transmitByte>
    527a:	8a e0       	ldi	r24, 0x0A	; 10
    527c:	0e 94 de 0d 	call	0x1bbc	; 0x1bbc <transmitByte>
	transmitString_F(PSTR("|    WELCOME TO MACK BEVERAGES               |"));
    5280:	85 e0       	ldi	r24, 0x05	; 5
    5282:	93 e0       	ldi	r25, 0x03	; 3
    5284:	0e 94 e2 0d 	call	0x1bc4	; 0x1bc4 <transmitString_F>
	TX_NEWLINE;
    5288:	8d e0       	ldi	r24, 0x0D	; 13
    528a:	0e 94 de 0d 	call	0x1bbc	; 0x1bbc <transmitByte>
    528e:	8a e0       	ldi	r24, 0x0A	; 10
    5290:	0e 94 de 0d 	call	0x1bbc	; 0x1bbc <transmitByte>
	transmitString_F(PSTR("|    GROUP MEMBERS                           |"));
    5294:	86 ed       	ldi	r24, 0xD6	; 214
    5296:	92 e0       	ldi	r25, 0x02	; 2
    5298:	0e 94 e2 0d 	call	0x1bc4	; 0x1bc4 <transmitString_F>
	TX_NEWLINE;
    529c:	8d e0       	ldi	r24, 0x0D	; 13
    529e:	0e 94 de 0d 	call	0x1bbc	; 0x1bbc <transmitByte>
    52a2:	8a e0       	ldi	r24, 0x0A	; 10
    52a4:	0e 94 de 0d 	call	0x1bbc	; 0x1bbc <transmitByte>
	transmitString_F(PSTR("|1: SSEBBAALE PAUL             15/U/12712/EVE|"));
    52a8:	87 ea       	ldi	r24, 0xA7	; 167
    52aa:	92 e0       	ldi	r25, 0x02	; 2
    52ac:	0e 94 e2 0d 	call	0x1bc4	; 0x1bc4 <transmitString_F>
	TX_NEWLINE;
    52b0:	8d e0       	ldi	r24, 0x0D	; 13
    52b2:	0e 94 de 0d 	call	0x1bbc	; 0x1bbc <transmitByte>
    52b6:	8a e0       	ldi	r24, 0x0A	; 10
    52b8:	0e 94 de 0d 	call	0x1bbc	; 0x1bbc <transmitByte>
	transmitString_F(PSTR("|2: KASINGABALYA JEROME	        15/U/5873/EVE |"));
    52bc:	87 e7       	ldi	r24, 0x77	; 119
    52be:	92 e0       	ldi	r25, 0x02	; 2
    52c0:	0e 94 e2 0d 	call	0x1bc4	; 0x1bc4 <transmitString_F>
	TX_NEWLINE;
    52c4:	8d e0       	ldi	r24, 0x0D	; 13
    52c6:	0e 94 de 0d 	call	0x1bbc	; 0x1bbc <transmitByte>
    52ca:	8a e0       	ldi	r24, 0x0A	; 10
    52cc:	0e 94 de 0d 	call	0x1bbc	; 0x1bbc <transmitByte>
	transmitString_F(PSTR("|3: WATASA VICTOR CHRIS	        15/U/13762/EVE|"));
    52d0:	87 e4       	ldi	r24, 0x47	; 71
    52d2:	92 e0       	ldi	r25, 0x02	; 2
    52d4:	0e 94 e2 0d 	call	0x1bc4	; 0x1bc4 <transmitString_F>
	TX_NEWLINE;
    52d8:	8d e0       	ldi	r24, 0x0D	; 13
    52da:	0e 94 de 0d 	call	0x1bbc	; 0x1bbc <transmitByte>
    52de:	8a e0       	ldi	r24, 0x0A	; 10
    52e0:	0e 94 de 0d 	call	0x1bbc	; 0x1bbc <transmitByte>
	transmitString_F(PSTR("|4: MUBOKU EMMANUEL	            15/U/7738/EVE |"));
    52e4:	87 e1       	ldi	r24, 0x17	; 23
    52e6:	92 e0       	ldi	r25, 0x02	; 2
    52e8:	0e 94 e2 0d 	call	0x1bc4	; 0x1bc4 <transmitString_F>
	TX_NEWLINE;
    52ec:	8d e0       	ldi	r24, 0x0D	; 13
    52ee:	0e 94 de 0d 	call	0x1bbc	; 0x1bbc <transmitByte>
    52f2:	8a e0       	ldi	r24, 0x0A	; 10
    52f4:	0e 94 de 0d 	call	0x1bbc	; 0x1bbc <transmitByte>
	transmitString_F(PSTR("|5: MURINGI REMULUS	            15/U/8324/EVE |"));
    52f8:	87 ee       	ldi	r24, 0xE7	; 231
    52fa:	91 e0       	ldi	r25, 0x01	; 1
    52fc:	0e 94 e2 0d 	call	0x1bc4	; 0x1bc4 <transmitString_F>
	TX_NEWLINE;
    5300:	8d e0       	ldi	r24, 0x0D	; 13
    5302:	0e 94 de 0d 	call	0x1bbc	; 0x1bbc <transmitByte>
    5306:	8a e0       	ldi	r24, 0x0A	; 10
    5308:	0e 94 de 0d 	call	0x1bbc	; 0x1bbc <transmitByte>
	transmitString_F(PSTR("|6: KABWAMA RONALD	             15/U/5398/EVE |"));
    530c:	87 eb       	ldi	r24, 0xB7	; 183
    530e:	91 e0       	ldi	r25, 0x01	; 1
    5310:	0e 94 e2 0d 	call	0x1bc4	; 0x1bc4 <transmitString_F>
	TX_NEWLINE;  
    5314:	8d e0       	ldi	r24, 0x0D	; 13
    5316:	0e 94 de 0d 	call	0x1bbc	; 0x1bbc <transmitByte>
    531a:	8a e0       	ldi	r24, 0x0A	; 10
    531c:	0e 94 de 0d 	call	0x1bbc	; 0x1bbc <transmitByte>
	transmitString_F(PSTR("|7: OWOT JONATHAN	              15/U/12361/EVE|"));
    5320:	87 e8       	ldi	r24, 0x87	; 135
    5322:	91 e0       	ldi	r25, 0x01	; 1
    5324:	0e 94 e2 0d 	call	0x1bc4	; 0x1bc4 <transmitString_F>
	TX_NEWLINE;
    5328:	8d e0       	ldi	r24, 0x0D	; 13
    532a:	0e 94 de 0d 	call	0x1bbc	; 0x1bbc <transmitByte>
    532e:	8a e0       	ldi	r24, 0x0A	; 10
    5330:	0e 94 de 0d 	call	0x1bbc	; 0x1bbc <transmitByte>
	transmitString_F(PSTR("|8: KATONGOLE DRAKE	            15/U/6012/EVE |"));
    5334:	87 e5       	ldi	r24, 0x57	; 87
    5336:	91 e0       	ldi	r25, 0x01	; 1
    5338:	0e 94 e2 0d 	call	0x1bc4	; 0x1bc4 <transmitString_F>
	TX_NEWLINE;
    533c:	8d e0       	ldi	r24, 0x0D	; 13
    533e:	0e 94 de 0d 	call	0x1bbc	; 0x1bbc <transmitByte>
    5342:	8a e0       	ldi	r24, 0x0A	; 10
    5344:	0e 94 de 0d 	call	0x1bbc	; 0x1bbc <transmitByte>
	transmitString_F(PSTR("|9: ASIGA STANLEY	              15/U/6012/EVE |"));
    5348:	87 e2       	ldi	r24, 0x27	; 39
    534a:	91 e0       	ldi	r25, 0x01	; 1
    534c:	0e 94 e2 0d 	call	0x1bc4	; 0x1bc4 <transmitString_F>
	TX_NEWLINE;
    5350:	8d e0       	ldi	r24, 0x0D	; 13
    5352:	0e 94 de 0d 	call	0x1bbc	; 0x1bbc <transmitByte>
    5356:	8a e0       	ldi	r24, 0x0A	; 10
    5358:	0e 94 de 0d 	call	0x1bbc	; 0x1bbc <transmitByte>
	transmitString_F(PSTR("|10: KABOGYOZA STEPHEN	         15/U/5366/EVE |"));
    535c:	87 ef       	ldi	r24, 0xF7	; 247
    535e:	90 e0       	ldi	r25, 0x00	; 0
    5360:	0e 94 e2 0d 	call	0x1bc4	; 0x1bc4 <transmitString_F>
	TX_NEWLINE;
    5364:	8d e0       	ldi	r24, 0x0D	; 13
    5366:	0e 94 de 0d 	call	0x1bbc	; 0x1bbc <transmitByte>
    536a:	8a e0       	ldi	r24, 0x0A	; 10
    536c:	0e 94 de 0d 	call	0x1bbc	; 0x1bbc <transmitByte>
	transmitString_F(PSTR("|*****************************************   |"));
    5370:	88 ec       	ldi	r24, 0xC8	; 200
    5372:	90 e0       	ldi	r25, 0x00	; 0
    5374:	0e 94 e2 0d 	call	0x1bc4	; 0x1bc4 <transmitString_F>
	TX_NEWLINE;
    5378:	8d e0       	ldi	r24, 0x0D	; 13
    537a:	0e 94 de 0d 	call	0x1bbc	; 0x1bbc <transmitByte>
    537e:	8a e0       	ldi	r24, 0x0A	; 10
    5380:	0e 94 de 0d 	call	0x1bbc	; 0x1bbc <transmitByte>
	transmitString_F(PSTR("                                           "));
    5384:	8c e9       	ldi	r24, 0x9C	; 156
    5386:	90 e0       	ldi	r25, 0x00	; 0
    5388:	0e 94 e2 0d 	call	0x1bc4	; 0x1bc4 <transmitString_F>
	TX_NEWLINE;
    538c:	8d e0       	ldi	r24, 0x0D	; 13
    538e:	0e 94 de 0d 	call	0x1bbc	; 0x1bbc <transmitByte>
    5392:	8a e0       	ldi	r24, 0x0A	; 10
    5394:	0e 94 de 0d 	call	0x1bbc	; 0x1bbc <transmitByte>
	
	transmitString("PRESS ANY KEY to proceed...");
    5398:	80 e0       	ldi	r24, 0x00	; 0
    539a:	91 e0       	ldi	r25, 0x01	; 1
    539c:	0e 94 f4 0d 	call	0x1be8	; 0x1be8 <transmitString>
	
	
	
	initialise();
    53a0:	0e 94 45 0d 	call	0x1a8a	; 0x1a8a <initialise>
	
	numberofbottles1=eeprom_read_byte(0);
    53a4:	80 e0       	ldi	r24, 0x00	; 0
    53a6:	90 e0       	ldi	r25, 0x00	; 0
    53a8:	69 d4       	rcall	.+2258   	; 0x5c7c <eeprom_read_byte>
    53aa:	90 e0       	ldi	r25, 0x00	; 0
    53ac:	90 93 b9 02 	sts	0x02B9, r25	; 0x8002b9 <numberofbottles1+0x1>
    53b0:	80 93 b8 02 	sts	0x02B8, r24	; 0x8002b8 <numberofbottles1>
	bottles_filled=eeprom_read_byte(1);
    53b4:	81 e0       	ldi	r24, 0x01	; 1
    53b6:	90 e0       	ldi	r25, 0x00	; 0
    53b8:	61 d4       	rcall	.+2242   	; 0x5c7c <eeprom_read_byte>
    53ba:	90 e0       	ldi	r25, 0x00	; 0
    53bc:	90 93 9f 02 	sts	0x029F, r25	; 0x80029f <bottles_filled+0x1>
    53c0:	80 93 9e 02 	sts	0x029E, r24	; 0x80029e <bottles_filled>
	time_off=eeprom_read_byte(2);
    53c4:	82 e0       	ldi	r24, 0x02	; 2
    53c6:	90 e0       	ldi	r25, 0x00	; 0
    53c8:	59 d4       	rcall	.+2226   	; 0x5c7c <eeprom_read_byte>
    53ca:	90 e0       	ldi	r25, 0x00	; 0
    53cc:	90 93 95 02 	sts	0x0295, r25	; 0x800295 <time_off+0x1>
    53d0:	80 93 94 02 	sts	0x0294, r24	; 0x800294 <time_off>
	time_on=eeprom_read_byte(3);
    53d4:	83 e0       	ldi	r24, 0x03	; 3
    53d6:	90 e0       	ldi	r25, 0x00	; 0
    53d8:	51 d4       	rcall	.+2210   	; 0x5c7c <eeprom_read_byte>
    53da:	90 e0       	ldi	r25, 0x00	; 0
    53dc:	90 93 99 02 	sts	0x0299, r25	; 0x800299 <time_on+0x1>
    53e0:	80 93 98 02 	sts	0x0298, r24	; 0x800298 <time_on>
	 storagecontainer=eeprom_read_byte(4); 
    53e4:	84 e0       	ldi	r24, 0x04	; 4
    53e6:	90 e0       	ldi	r25, 0x00	; 0
    53e8:	49 d4       	rcall	.+2194   	; 0x5c7c <eeprom_read_byte>
    53ea:	90 e0       	ldi	r25, 0x00	; 0
    53ec:	90 93 bf 02 	sts	0x02BF, r25	; 0x8002bf <storagecontainer+0x1>
    53f0:	80 93 be 02 	sts	0x02BE, r24	; 0x8002be <storagecontainer>
	 currentoranges1=eeprom_read_byte(5);
    53f4:	85 e0       	ldi	r24, 0x05	; 5
    53f6:	90 e0       	ldi	r25, 0x00	; 0
    53f8:	41 d4       	rcall	.+2178   	; 0x5c7c <eeprom_read_byte>
    53fa:	90 e0       	ldi	r25, 0x00	; 0
    53fc:	90 93 81 02 	sts	0x0281, r25	; 0x800281 <currentoranges1+0x1>
    5400:	80 93 80 02 	sts	0x0280, r24	; 0x800280 <currentoranges1>
	 currentpineapples1=eeprom_read_byte(6);
    5404:	86 e0       	ldi	r24, 0x06	; 6
    5406:	90 e0       	ldi	r25, 0x00	; 0
    5408:	39 d4       	rcall	.+2162   	; 0x5c7c <eeprom_read_byte>
    540a:	90 e0       	ldi	r25, 0x00	; 0
    540c:	90 93 b1 02 	sts	0x02B1, r25	; 0x8002b1 <currentpineapples1+0x1>
    5410:	80 93 b0 02 	sts	0x02B0, r24	; 0x8002b0 <currentpineapples1>
	 currentguavas1=eeprom_read_byte(7);
    5414:	87 e0       	ldi	r24, 0x07	; 7
    5416:	90 e0       	ldi	r25, 0x00	; 0
    5418:	31 d4       	rcall	.+2146   	; 0x5c7c <eeprom_read_byte>
    541a:	90 e0       	ldi	r25, 0x00	; 0
    541c:	90 93 a6 02 	sts	0x02A6, r25	; 0x8002a6 <currentguavas1+0x1>
    5420:	80 93 a5 02 	sts	0x02A5, r24	; 0x8002a5 <currentguavas1>
	 currentmangoes1=eeprom_read_byte(8);
    5424:	88 e0       	ldi	r24, 0x08	; 8
    5426:	90 e0       	ldi	r25, 0x00	; 0
    5428:	29 d4       	rcall	.+2130   	; 0x5c7c <eeprom_read_byte>
    542a:	90 e0       	ldi	r25, 0x00	; 0
    542c:	90 93 85 02 	sts	0x0285, r25	; 0x800285 <currentmangoes1+0x1>
    5430:	80 93 84 02 	sts	0x0284, r24	; 0x800284 <currentmangoes1>
	 currentapples1=eeprom_read_byte(9);
    5434:	89 e0       	ldi	r24, 0x09	; 9
    5436:	90 e0       	ldi	r25, 0x00	; 0
    5438:	21 d4       	rcall	.+2114   	; 0x5c7c <eeprom_read_byte>
    543a:	90 e0       	ldi	r25, 0x00	; 0
    543c:	90 93 cf 02 	sts	0x02CF, r25	; 0x8002cf <currentapples1+0x1>
    5440:	80 93 ce 02 	sts	0x02CE, r24	; 0x8002ce <currentapples1>
	 
	
	
	
	PORTB |=(1<<1);
    5444:	c1 9a       	sbi	0x18, 1	; 24
			lcd_write_string("RESTING");
			_delay_ms(1000);
		time_off++;
		eeprom_write_byte(2,time_off);
}else{
	PORTB=0x01;
    5446:	ee 24       	eor	r14, r14
    5448:	e3 94       	inc	r14

void lcd_position(uint8_t pos){
	//address
	if (pos==1)
	{
		PORTF = 0x80;
    544a:	c2 e6       	ldi	r28, 0x62	; 98
    544c:	d0 e0       	ldi	r29, 0x00	; 0
    544e:	00 e8       	ldi	r16, 0x80	; 128
		enable();
	}else if (pos == 2)
	{
		PORTF = 0xC0;
    5450:	10 ec       	ldi	r17, 0xC0	; 192
		enable();
	}else if (pos == 3){
		
		PORTF = 0x94;
    5452:	0f 2e       	mov	r0, r31
    5454:	f4 e9       	ldi	r31, 0x94	; 148
    5456:	ff 2e       	mov	r15, r31
    5458:	f0 2d       	mov	r31, r0
				
				if (numberofbottles1 != 0 )
				{ 
				
				
			PORTB=0x02;
    545a:	68 94       	set
    545c:	bb 24       	eor	r11, r11
    545e:	b1 f8       	bld	r11, 1
	
	////////////////////////////////DECREMENT BOTTLES
					bottles_filled++;
					numberofbottles1--;
					eeprom_write_byte(0,numberofbottles1);
					eeprom_write_byte(1,bottles_filled);
    5460:	0f 2e       	mov	r0, r31
    5462:	fe e9       	ldi	r31, 0x9E	; 158
    5464:	cf 2e       	mov	r12, r31
    5466:	f2 e0       	ldi	r31, 0x02	; 2
    5468:	df 2e       	mov	r13, r31
    546a:	f0 2d       	mov	r31, r0
	
	
	
		while(1)
    {
			if((PINB &(1<<1))==0){
    546c:	b1 99       	sbic	0x16, 1	; 22
    546e:	68 c1       	rjmp	.+720    	; 0x5740 <main+0x506>
				if (storagecontainer != 0){
    5470:	80 91 be 02 	lds	r24, 0x02BE	; 0x8002be <storagecontainer>
    5474:	90 91 bf 02 	lds	r25, 0x02BF	; 0x8002bf <storagecontainer+0x1>
    5478:	89 2b       	or	r24, r25
    547a:	09 f4       	brne	.+2      	; 0x547e <main+0x244>
    547c:	2e c1       	rjmp	.+604    	; 0x56da <main+0x4a0>
					
				
				if (numberofbottles1 != 0 )
    547e:	80 91 b8 02 	lds	r24, 0x02B8	; 0x8002b8 <numberofbottles1>
    5482:	90 91 b9 02 	lds	r25, 0x02B9	; 0x8002b9 <numberofbottles1+0x1>
    5486:	89 2b       	or	r24, r25
    5488:	09 f4       	brne	.+2      	; 0x548c <main+0x252>
    548a:	e3 c0       	rjmp	.+454    	; 0x5652 <main+0x418>
				{ 
				
				
			PORTB=0x02;
    548c:	b8 ba       	out	0x18, r11	; 24
	clearscreen();
    548e:	0e 94 5c 0d 	call	0x1ab8	; 0x1ab8 <clearscreen>

void lcd_position(uint8_t pos){
	//address
	if (pos==1)
	{
		PORTF = 0x80;
    5492:	08 83       	st	Y, r16
		enable();
    5494:	0e 94 36 0d 	call	0x1a6c	; 0x1a6c <enable>
				
				
			PORTB=0x02;
	clearscreen();
	lcd_position(1);
	lcd_write_string("**STATUS*");
    5498:	8c e1       	ldi	r24, 0x1C	; 28
    549a:	91 e0       	ldi	r25, 0x01	; 1
    549c:	0e 94 69 0d 	call	0x1ad2	; 0x1ad2 <lcd_write_string>
	{
		PORTF = 0x80;
		enable();
	}else if (pos == 2)
	{
		PORTF = 0xC0;
    54a0:	18 83       	st	Y, r17
		enable();
    54a2:	0e 94 36 0d 	call	0x1a6c	; 0x1a6c <enable>
			PORTB=0x02;
	clearscreen();
	lcd_position(1);
	lcd_write_string("**STATUS*");
	lcd_position(2);
	lcd_write_string(" SENDING BOTTLE ");
    54a6:	86 e2       	ldi	r24, 0x26	; 38
    54a8:	91 e0       	ldi	r25, 0x01	; 1
    54aa:	0e 94 69 0d 	call	0x1ad2	; 0x1ad2 <lcd_write_string>
	{
		PORTF = 0xC0;
		enable();
	}else if (pos == 3){
		
		PORTF = 0x94;
    54ae:	f8 82       	st	Y, r15
		enable();
    54b0:	0e 94 36 0d 	call	0x1a6c	; 0x1a6c <enable>
	lcd_position(1);
	lcd_write_string("**STATUS*");
	lcd_position(2);
	lcd_write_string(" SENDING BOTTLE ");
	lcd_position(3);
	lcd_write_string(" TO STAGE");
    54b4:	87 e3       	ldi	r24, 0x37	; 55
    54b6:	91 e0       	ldi	r25, 0x01	; 1
    54b8:	0e 94 69 0d 	call	0x1ad2	; 0x1ad2 <lcd_write_string>
    54bc:	2f e7       	ldi	r18, 0x7F	; 127
    54be:	8a e1       	ldi	r24, 0x1A	; 26
    54c0:	96 e0       	ldi	r25, 0x06	; 6
    54c2:	21 50       	subi	r18, 0x01	; 1
    54c4:	80 40       	sbci	r24, 0x00	; 0
    54c6:	90 40       	sbci	r25, 0x00	; 0
    54c8:	e1 f7       	brne	.-8      	; 0x54c2 <main+0x288>
    54ca:	00 c0       	rjmp	.+0      	; 0x54cc <main+0x292>
    54cc:	00 00       	nop
	_delay_ms(2000);
	motor();
    54ce:	0e 94 7f 0d 	call	0x1afe	; 0x1afe <motor>
	time_on++;
    54d2:	60 91 98 02 	lds	r22, 0x0298	; 0x800298 <time_on>
    54d6:	70 91 99 02 	lds	r23, 0x0299	; 0x800299 <time_on+0x1>
    54da:	6f 5f       	subi	r22, 0xFF	; 255
    54dc:	7f 4f       	sbci	r23, 0xFF	; 255
    54de:	70 93 99 02 	sts	0x0299, r23	; 0x800299 <time_on+0x1>
    54e2:	60 93 98 02 	sts	0x0298, r22	; 0x800298 <time_on>
	eeprom_write_byte(3,time_on);
    54e6:	83 e0       	ldi	r24, 0x03	; 3
    54e8:	90 e0       	ldi	r25, 0x00	; 0
    54ea:	d0 d3       	rcall	.+1952   	; 0x5c8c <eeprom_write_byte>
	
	
	
	
	clearscreen();
    54ec:	0e 94 5c 0d 	call	0x1ab8	; 0x1ab8 <clearscreen>

void lcd_position(uint8_t pos){
	//address
	if (pos==1)
	{
		PORTF = 0x80;
    54f0:	08 83       	st	Y, r16
		enable();
    54f2:	0e 94 36 0d 	call	0x1a6c	; 0x1a6c <enable>
	
	
	
	clearscreen();
	lcd_position(1);
	lcd_write_string("**STATUS*");
    54f6:	8c e1       	ldi	r24, 0x1C	; 28
    54f8:	91 e0       	ldi	r25, 0x01	; 1
    54fa:	0e 94 69 0d 	call	0x1ad2	; 0x1ad2 <lcd_write_string>
	{
		PORTF = 0x80;
		enable();
	}else if (pos == 2)
	{
		PORTF = 0xC0;
    54fe:	18 83       	st	Y, r17
		enable();
    5500:	0e 94 36 0d 	call	0x1a6c	; 0x1a6c <enable>
	
	clearscreen();
	lcd_position(1);
	lcd_write_string("**STATUS*");
	lcd_position(2);
	lcd_write_string(" FILLING BOTTLE");
    5504:	81 e4       	ldi	r24, 0x41	; 65
    5506:	91 e0       	ldi	r25, 0x01	; 1
    5508:	0e 94 69 0d 	call	0x1ad2	; 0x1ad2 <lcd_write_string>
	PORTA=2;
    550c:	bb ba       	out	0x1b, r11	; 27
    550e:	ef e3       	ldi	r30, 0x3F	; 63
    5510:	fd e0       	ldi	r31, 0x0D	; 13
    5512:	23 e0       	ldi	r18, 0x03	; 3
    5514:	e1 50       	subi	r30, 0x01	; 1
    5516:	f0 40       	sbci	r31, 0x00	; 0
    5518:	20 40       	sbci	r18, 0x00	; 0
    551a:	e1 f7       	brne	.-8      	; 0x5514 <main+0x2da>
    551c:	00 c0       	rjmp	.+0      	; 0x551e <main+0x2e4>
    551e:	00 00       	nop
	_delay_ms(1000);
	PORTA=1;
    5520:	eb ba       	out	0x1b, r14	; 27
    5522:	8f e3       	ldi	r24, 0x3F	; 63
    5524:	9d e0       	ldi	r25, 0x0D	; 13
    5526:	e3 e0       	ldi	r30, 0x03	; 3
    5528:	81 50       	subi	r24, 0x01	; 1
    552a:	90 40       	sbci	r25, 0x00	; 0
    552c:	e0 40       	sbci	r30, 0x00	; 0
    552e:	e1 f7       	brne	.-8      	; 0x5528 <main+0x2ee>
    5530:	00 c0       	rjmp	.+0      	; 0x5532 <main+0x2f8>
    5532:	00 00       	nop
	_delay_ms(1000);
	PORTA=0;
    5534:	1b ba       	out	0x1b, r1	; 27
	
	////////////////////////////////DECREMENT BOTTLES
					bottles_filled++;
    5536:	80 91 9e 02 	lds	r24, 0x029E	; 0x80029e <bottles_filled>
    553a:	90 91 9f 02 	lds	r25, 0x029F	; 0x80029f <bottles_filled+0x1>
    553e:	01 96       	adiw	r24, 0x01	; 1
    5540:	90 93 9f 02 	sts	0x029F, r25	; 0x80029f <bottles_filled+0x1>
    5544:	80 93 9e 02 	sts	0x029E, r24	; 0x80029e <bottles_filled>
					numberofbottles1--;
    5548:	60 91 b8 02 	lds	r22, 0x02B8	; 0x8002b8 <numberofbottles1>
    554c:	70 91 b9 02 	lds	r23, 0x02B9	; 0x8002b9 <numberofbottles1+0x1>
    5550:	61 50       	subi	r22, 0x01	; 1
    5552:	71 09       	sbc	r23, r1
    5554:	70 93 b9 02 	sts	0x02B9, r23	; 0x8002b9 <numberofbottles1+0x1>
    5558:	60 93 b8 02 	sts	0x02B8, r22	; 0x8002b8 <numberofbottles1>
					eeprom_write_byte(0,numberofbottles1);
    555c:	80 e0       	ldi	r24, 0x00	; 0
    555e:	90 e0       	ldi	r25, 0x00	; 0
    5560:	95 d3       	rcall	.+1834   	; 0x5c8c <eeprom_write_byte>
					eeprom_write_byte(1,bottles_filled);
    5562:	f6 01       	movw	r30, r12
    5564:	60 81       	ld	r22, Z
    5566:	81 e0       	ldi	r24, 0x01	; 1
    5568:	90 e0       	ldi	r25, 0x00	; 0
    556a:	90 d3       	rcall	.+1824   	; 0x5c8c <eeprom_write_byte>
					 storagecontainer=storagecontainer-(selectedvolume);
    556c:	60 91 be 02 	lds	r22, 0x02BE	; 0x8002be <storagecontainer>
    5570:	70 91 bf 02 	lds	r23, 0x02BF	; 0x8002bf <storagecontainer+0x1>
    5574:	07 2e       	mov	r0, r23
    5576:	00 0c       	add	r0, r0
    5578:	88 0b       	sbc	r24, r24
    557a:	99 0b       	sbc	r25, r25
    557c:	2d d2       	rcall	.+1114   	; 0x59d8 <__floatsisf>
    557e:	20 91 86 02 	lds	r18, 0x0286	; 0x800286 <selectedvolume>
    5582:	30 91 87 02 	lds	r19, 0x0287	; 0x800287 <selectedvolume+0x1>
    5586:	40 91 88 02 	lds	r20, 0x0288	; 0x800288 <selectedvolume+0x2>
    558a:	50 91 89 02 	lds	r21, 0x0289	; 0x800289 <selectedvolume+0x3>
    558e:	24 d1       	rcall	.+584    	; 0x57d8 <__subsf3>
    5590:	f0 d1       	rcall	.+992    	; 0x5972 <__fixsfsi>
    5592:	60 93 be 02 	sts	0x02BE, r22	; 0x8002be <storagecontainer>
    5596:	70 93 bf 02 	sts	0x02BF, r23	; 0x8002bf <storagecontainer+0x1>
					 eeprom_write_byte(4,storagecontainer);
    559a:	84 e0       	ldi	r24, 0x04	; 4
    559c:	90 e0       	ldi	r25, 0x00	; 0
    559e:	76 d3       	rcall	.+1772   	; 0x5c8c <eeprom_write_byte>
	
	///////////////////////
	
	
	
	clearscreen();
    55a0:	0e 94 5c 0d 	call	0x1ab8	; 0x1ab8 <clearscreen>

void lcd_position(uint8_t pos){
	//address
	if (pos==1)
	{
		PORTF = 0x80;
    55a4:	08 83       	st	Y, r16
		enable();
    55a6:	0e 94 36 0d 	call	0x1a6c	; 0x1a6c <enable>
	
	
	
	clearscreen();
	lcd_position(1);
	lcd_write_string("**STATUS*");
    55aa:	8c e1       	ldi	r24, 0x1C	; 28
    55ac:	91 e0       	ldi	r25, 0x01	; 1
    55ae:	0e 94 69 0d 	call	0x1ad2	; 0x1ad2 <lcd_write_string>
	{
		PORTF = 0x80;
		enable();
	}else if (pos == 2)
	{
		PORTF = 0xC0;
    55b2:	18 83       	st	Y, r17
		enable();
    55b4:	0e 94 36 0d 	call	0x1a6c	; 0x1a6c <enable>
	
	clearscreen();
	lcd_position(1);
	lcd_write_string("**STATUS*");
	lcd_position(2);
	lcd_write_string("MOVING BOTTLE TO");
    55b8:	81 e5       	ldi	r24, 0x51	; 81
    55ba:	91 e0       	ldi	r25, 0x01	; 1
    55bc:	0e 94 69 0d 	call	0x1ad2	; 0x1ad2 <lcd_write_string>
	{
		PORTF = 0xC0;
		enable();
	}else if (pos == 3){
		
		PORTF = 0x94;
    55c0:	f8 82       	st	Y, r15
		enable();
    55c2:	0e 94 36 0d 	call	0x1a6c	; 0x1a6c <enable>
	lcd_position(1);
	lcd_write_string("**STATUS*");
	lcd_position(2);
	lcd_write_string("MOVING BOTTLE TO");
	lcd_position(3);
	lcd_write_string("SEALING STAGE");
    55c6:	82 e6       	ldi	r24, 0x62	; 98
    55c8:	91 e0       	ldi	r25, 0x01	; 1
    55ca:	0e 94 69 0d 	call	0x1ad2	; 0x1ad2 <lcd_write_string>
    55ce:	ff e7       	ldi	r31, 0x7F	; 127
    55d0:	2a e1       	ldi	r18, 0x1A	; 26
    55d2:	86 e0       	ldi	r24, 0x06	; 6
    55d4:	f1 50       	subi	r31, 0x01	; 1
    55d6:	20 40       	sbci	r18, 0x00	; 0
    55d8:	80 40       	sbci	r24, 0x00	; 0
    55da:	e1 f7       	brne	.-8      	; 0x55d4 <main+0x39a>
    55dc:	00 c0       	rjmp	.+0      	; 0x55de <main+0x3a4>
    55de:	00 00       	nop
	_delay_ms(2000);
	motor();
    55e0:	0e 94 7f 0d 	call	0x1afe	; 0x1afe <motor>
	
	
	clearscreen();
    55e4:	0e 94 5c 0d 	call	0x1ab8	; 0x1ab8 <clearscreen>

void lcd_position(uint8_t pos){
	//address
	if (pos==1)
	{
		PORTF = 0x80;
    55e8:	08 83       	st	Y, r16
		enable();
    55ea:	0e 94 36 0d 	call	0x1a6c	; 0x1a6c <enable>
	motor();
	
	
	clearscreen();
	lcd_position(1);
	lcd_write_string("**STATUS*");
    55ee:	8c e1       	ldi	r24, 0x1C	; 28
    55f0:	91 e0       	ldi	r25, 0x01	; 1
    55f2:	0e 94 69 0d 	call	0x1ad2	; 0x1ad2 <lcd_write_string>
	{
		PORTF = 0x80;
		enable();
	}else if (pos == 2)
	{
		PORTF = 0xC0;
    55f6:	18 83       	st	Y, r17
		enable();
    55f8:	0e 94 36 0d 	call	0x1a6c	; 0x1a6c <enable>
	
	clearscreen();
	lcd_position(1);
	lcd_write_string("**STATUS*");
	lcd_position(2);
	lcd_write_string("SEALING BOTTLE");
    55fc:	80 e7       	ldi	r24, 0x70	; 112
    55fe:	91 e0       	ldi	r25, 0x01	; 1
    5600:	0e 94 69 0d 	call	0x1ad2	; 0x1ad2 <lcd_write_string>
	PORTA=1;
    5604:	eb ba       	out	0x1b, r14	; 27
    5606:	9f e3       	ldi	r25, 0x3F	; 63
    5608:	ed e0       	ldi	r30, 0x0D	; 13
    560a:	f3 e0       	ldi	r31, 0x03	; 3
    560c:	91 50       	subi	r25, 0x01	; 1
    560e:	e0 40       	sbci	r30, 0x00	; 0
    5610:	f0 40       	sbci	r31, 0x00	; 0
    5612:	e1 f7       	brne	.-8      	; 0x560c <main+0x3d2>
    5614:	00 c0       	rjmp	.+0      	; 0x5616 <main+0x3dc>
    5616:	00 00       	nop
	_delay_ms(1000);
	PORTA=0;
    5618:	1b ba       	out	0x1b, r1	; 27
	
	
	clearscreen();
    561a:	0e 94 5c 0d 	call	0x1ab8	; 0x1ab8 <clearscreen>

void lcd_position(uint8_t pos){
	//address
	if (pos==1)
	{
		PORTF = 0x80;
    561e:	08 83       	st	Y, r16
		enable();
    5620:	0e 94 36 0d 	call	0x1a6c	; 0x1a6c <enable>
	PORTA=0;
	
	
	clearscreen();
	lcd_position(1);
	lcd_write_string("**STATUS*");
    5624:	8c e1       	ldi	r24, 0x1C	; 28
    5626:	91 e0       	ldi	r25, 0x01	; 1
    5628:	0e 94 69 0d 	call	0x1ad2	; 0x1ad2 <lcd_write_string>
	{
		PORTF = 0x80;
		enable();
	}else if (pos == 2)
	{
		PORTF = 0xC0;
    562c:	18 83       	st	Y, r17
		enable();
    562e:	0e 94 36 0d 	call	0x1a6c	; 0x1a6c <enable>
	
	clearscreen();
	lcd_position(1);
	lcd_write_string("**STATUS*");
	lcd_position(2);
	lcd_write_string("MOVING BOTTLE");
    5632:	8f e7       	ldi	r24, 0x7F	; 127
    5634:	91 e0       	ldi	r25, 0x01	; 1
    5636:	0e 94 69 0d 	call	0x1ad2	; 0x1ad2 <lcd_write_string>
	{
		PORTF = 0xC0;
		enable();
	}else if (pos == 3){
		
		PORTF = 0x94;
    563a:	f8 82       	st	Y, r15
		enable();
    563c:	0e 94 36 0d 	call	0x1a6c	; 0x1a6c <enable>
	lcd_position(1);
	lcd_write_string("**STATUS*");
	lcd_position(2);
	lcd_write_string("MOVING BOTTLE");
	lcd_position(3);
	lcd_write_string("TO STORAGE");
    5640:	8d e8       	ldi	r24, 0x8D	; 141
    5642:	91 e0       	ldi	r25, 0x01	; 1
    5644:	0e 94 69 0d 	call	0x1ad2	; 0x1ad2 <lcd_write_string>
		 motor();
    5648:	0e 94 7f 0d 	call	0x1afe	; 0x1afe <motor>

		 motor();
    564c:	0e 94 7f 0d 	call	0x1afe	; 0x1afe <motor>
    5650:	0d cf       	rjmp	.-486    	; 0x546c <main+0x232>
		}
		
		
		
		else{
			PORTB=0x01;
    5652:	e8 ba       	out	0x18, r14	; 24
			clearscreen();
    5654:	0e 94 5c 0d 	call	0x1ab8	; 0x1ab8 <clearscreen>

void lcd_position(uint8_t pos){
	//address
	if (pos==1)
	{
		PORTF = 0x80;
    5658:	08 83       	st	Y, r16
		enable();
    565a:	0e 94 36 0d 	call	0x1a6c	; 0x1a6c <enable>
		
		else{
			PORTB=0x01;
			clearscreen();
			lcd_position(1);
	lcd_write_string("*COMPLETED");
    565e:	88 e9       	ldi	r24, 0x98	; 152
    5660:	91 e0       	ldi	r25, 0x01	; 1
    5662:	0e 94 69 0d 	call	0x1ad2	; 0x1ad2 <lcd_write_string>
    5666:	2f e3       	ldi	r18, 0x3F	; 63
    5668:	8d e0       	ldi	r24, 0x0D	; 13
    566a:	93 e0       	ldi	r25, 0x03	; 3
    566c:	21 50       	subi	r18, 0x01	; 1
    566e:	80 40       	sbci	r24, 0x00	; 0
    5670:	90 40       	sbci	r25, 0x00	; 0
    5672:	e1 f7       	brne	.-8      	; 0x566c <main+0x432>
    5674:	00 c0       	rjmp	.+0      	; 0x5676 <main+0x43c>
    5676:	00 00       	nop
	{
		PORTF = 0x80;
		enable();
	}else if (pos == 2)
	{
		PORTF = 0xC0;
    5678:	18 83       	st	Y, r17
		enable();
    567a:	0e 94 36 0d 	call	0x1a6c	; 0x1a6c <enable>
			clearscreen();
			lcd_position(1);
	lcd_write_string("*COMPLETED");
	_delay_ms(1000);
	lcd_position(2);
	lcd_write_string(" RE-CONFIGURE");
    567e:	83 ea       	ldi	r24, 0xA3	; 163
    5680:	91 e0       	ldi	r25, 0x01	; 1
    5682:	0e 94 69 0d 	call	0x1ad2	; 0x1ad2 <lcd_write_string>
    5686:	ef e3       	ldi	r30, 0x3F	; 63
    5688:	fd e0       	ldi	r31, 0x0D	; 13
    568a:	23 e0       	ldi	r18, 0x03	; 3
    568c:	e1 50       	subi	r30, 0x01	; 1
    568e:	f0 40       	sbci	r31, 0x00	; 0
    5690:	20 40       	sbci	r18, 0x00	; 0
    5692:	e1 f7       	brne	.-8      	; 0x568c <main+0x452>
    5694:	00 c0       	rjmp	.+0      	; 0x5696 <main+0x45c>
    5696:	00 00       	nop
	{
		PORTF = 0xC0;
		enable();
	}else if (pos == 3){
		
		PORTF = 0x94;
    5698:	f8 82       	st	Y, r15
		enable();
    569a:	0e 94 36 0d 	call	0x1a6c	; 0x1a6c <enable>
	_delay_ms(1000);
	lcd_position(2);
	lcd_write_string(" RE-CONFIGURE");
	_delay_ms(1000);
	lcd_position(3);
	lcd_write_string("THE MACHINE");
    569e:	81 eb       	ldi	r24, 0xB1	; 177
    56a0:	91 e0       	ldi	r25, 0x01	; 1
    56a2:	0e 94 69 0d 	call	0x1ad2	; 0x1ad2 <lcd_write_string>
    56a6:	8f e3       	ldi	r24, 0x3F	; 63
    56a8:	9d e0       	ldi	r25, 0x0D	; 13
    56aa:	e3 e0       	ldi	r30, 0x03	; 3
    56ac:	81 50       	subi	r24, 0x01	; 1
    56ae:	90 40       	sbci	r25, 0x00	; 0
    56b0:	e0 40       	sbci	r30, 0x00	; 0
    56b2:	e1 f7       	brne	.-8      	; 0x56ac <main+0x472>
    56b4:	00 c0       	rjmp	.+0      	; 0x56b6 <main+0x47c>
    56b6:	00 00       	nop
			_delay_ms(1000);
			
				numberofbottles=0;
    56b8:	10 92 bb 02 	sts	0x02BB, r1	; 0x8002bb <numberofbottles+0x1>
    56bc:	10 92 ba 02 	sts	0x02BA, r1	; 0x8002ba <numberofbottles>
				bottles_filled=0;
    56c0:	10 92 9f 02 	sts	0x029F, r1	; 0x80029f <bottles_filled+0x1>
    56c4:	10 92 9e 02 	sts	0x029E, r1	; 0x80029e <bottles_filled>
				time_off=0;
    56c8:	10 92 95 02 	sts	0x0295, r1	; 0x800295 <time_off+0x1>
    56cc:	10 92 94 02 	sts	0x0294, r1	; 0x800294 <time_off>
				time_on=0;
    56d0:	10 92 99 02 	sts	0x0299, r1	; 0x800299 <time_on+0x1>
    56d4:	10 92 98 02 	sts	0x0298, r1	; 0x800298 <time_on>
    56d8:	c9 ce       	rjmp	.-622    	; 0x546c <main+0x232>
		} 
		
		} else{	
				
			
				clearscreen();
    56da:	0e 94 5c 0d 	call	0x1ab8	; 0x1ab8 <clearscreen>

void lcd_position(uint8_t pos){
	//address
	if (pos==1)
	{
		PORTF = 0x80;
    56de:	08 83       	st	Y, r16
		enable();
    56e0:	0e 94 36 0d 	call	0x1a6c	; 0x1a6c <enable>
		} else{	
				
			
				clearscreen();
				lcd_position(1);
				lcd_write_string("*PLEASE");
    56e4:	8d eb       	ldi	r24, 0xBD	; 189
    56e6:	91 e0       	ldi	r25, 0x01	; 1
    56e8:	0e 94 69 0d 	call	0x1ad2	; 0x1ad2 <lcd_write_string>
    56ec:	ff e3       	ldi	r31, 0x3F	; 63
    56ee:	2d e0       	ldi	r18, 0x0D	; 13
    56f0:	83 e0       	ldi	r24, 0x03	; 3
    56f2:	f1 50       	subi	r31, 0x01	; 1
    56f4:	20 40       	sbci	r18, 0x00	; 0
    56f6:	80 40       	sbci	r24, 0x00	; 0
    56f8:	e1 f7       	brne	.-8      	; 0x56f2 <main+0x4b8>
    56fa:	00 c0       	rjmp	.+0      	; 0x56fc <main+0x4c2>
    56fc:	00 00       	nop
	{
		PORTF = 0x80;
		enable();
	}else if (pos == 2)
	{
		PORTF = 0xC0;
    56fe:	18 83       	st	Y, r17
		enable();
    5700:	0e 94 36 0d 	call	0x1a6c	; 0x1a6c <enable>
				clearscreen();
				lcd_position(1);
				lcd_write_string("*PLEASE");
				_delay_ms(1000);
				lcd_position(2);
				lcd_write_string("1ST CONFIGURE");
    5704:	85 ec       	ldi	r24, 0xC5	; 197
    5706:	91 e0       	ldi	r25, 0x01	; 1
    5708:	0e 94 69 0d 	call	0x1ad2	; 0x1ad2 <lcd_write_string>
    570c:	9f e3       	ldi	r25, 0x3F	; 63
    570e:	ed e0       	ldi	r30, 0x0D	; 13
    5710:	f3 e0       	ldi	r31, 0x03	; 3
    5712:	91 50       	subi	r25, 0x01	; 1
    5714:	e0 40       	sbci	r30, 0x00	; 0
    5716:	f0 40       	sbci	r31, 0x00	; 0
    5718:	e1 f7       	brne	.-8      	; 0x5712 <main+0x4d8>
    571a:	00 c0       	rjmp	.+0      	; 0x571c <main+0x4e2>
    571c:	00 00       	nop
	{
		PORTF = 0xC0;
		enable();
	}else if (pos == 3){
		
		PORTF = 0x94;
    571e:	f8 82       	st	Y, r15
		enable();
    5720:	0e 94 36 0d 	call	0x1a6c	; 0x1a6c <enable>
				_delay_ms(1000);
				lcd_position(2);
				lcd_write_string("1ST CONFIGURE");
				_delay_ms(1000);
				lcd_position(3);
				lcd_write_string("THE MACHINE");
    5724:	81 eb       	ldi	r24, 0xB1	; 177
    5726:	91 e0       	ldi	r25, 0x01	; 1
    5728:	0e 94 69 0d 	call	0x1ad2	; 0x1ad2 <lcd_write_string>
    572c:	2f e3       	ldi	r18, 0x3F	; 63
    572e:	8d e0       	ldi	r24, 0x0D	; 13
    5730:	93 e0       	ldi	r25, 0x03	; 3
    5732:	21 50       	subi	r18, 0x01	; 1
    5734:	80 40       	sbci	r24, 0x00	; 0
    5736:	90 40       	sbci	r25, 0x00	; 0
    5738:	e1 f7       	brne	.-8      	; 0x5732 <main+0x4f8>
    573a:	00 c0       	rjmp	.+0      	; 0x573c <main+0x502>
    573c:	00 00       	nop
    573e:	96 ce       	rjmp	.-724    	; 0x546c <main+0x232>
		}
		 
		 
		 
		} else{	
		if (time_on != 0 )
    5740:	80 91 98 02 	lds	r24, 0x0298	; 0x800298 <time_on>
    5744:	90 91 99 02 	lds	r25, 0x0299	; 0x800299 <time_on+0x1>
    5748:	89 2b       	or	r24, r25
    574a:	09 f4       	brne	.+2      	; 0x574e <main+0x514>
    574c:	41 c0       	rjmp	.+130    	; 0x57d0 <main+0x596>
		{PORTB=0x01;
    574e:	e8 ba       	out	0x18, r14	; 24
			clearscreen();
    5750:	0e 94 5c 0d 	call	0x1ab8	; 0x1ab8 <clearscreen>

void lcd_position(uint8_t pos){
	//address
	if (pos==1)
	{
		PORTF = 0x80;
    5754:	08 83       	st	Y, r16
		enable();
    5756:	0e 94 36 0d 	call	0x1a6c	; 0x1a6c <enable>
		} else{	
		if (time_on != 0 )
		{PORTB=0x01;
			clearscreen();
			lcd_position(1);
			lcd_write_string("*STATUS*");
    575a:	8d e1       	ldi	r24, 0x1D	; 29
    575c:	91 e0       	ldi	r25, 0x01	; 1
    575e:	0e 94 69 0d 	call	0x1ad2	; 0x1ad2 <lcd_write_string>
    5762:	ef e3       	ldi	r30, 0x3F	; 63
    5764:	fd e0       	ldi	r31, 0x0D	; 13
    5766:	23 e0       	ldi	r18, 0x03	; 3
    5768:	e1 50       	subi	r30, 0x01	; 1
    576a:	f0 40       	sbci	r31, 0x00	; 0
    576c:	20 40       	sbci	r18, 0x00	; 0
    576e:	e1 f7       	brne	.-8      	; 0x5768 <main+0x52e>
    5770:	00 c0       	rjmp	.+0      	; 0x5772 <main+0x538>
    5772:	00 00       	nop
	{
		PORTF = 0x80;
		enable();
	}else if (pos == 2)
	{
		PORTF = 0xC0;
    5774:	18 83       	st	Y, r17
		enable();
    5776:	0e 94 36 0d 	call	0x1a6c	; 0x1a6c <enable>
			clearscreen();
			lcd_position(1);
			lcd_write_string("*STATUS*");
			_delay_ms(1000);
			lcd_position(2);
			lcd_write_string("PLANT");
    577a:	83 ed       	ldi	r24, 0xD3	; 211
    577c:	91 e0       	ldi	r25, 0x01	; 1
    577e:	0e 94 69 0d 	call	0x1ad2	; 0x1ad2 <lcd_write_string>
    5782:	8f e3       	ldi	r24, 0x3F	; 63
    5784:	9d e0       	ldi	r25, 0x0D	; 13
    5786:	e3 e0       	ldi	r30, 0x03	; 3
    5788:	81 50       	subi	r24, 0x01	; 1
    578a:	90 40       	sbci	r25, 0x00	; 0
    578c:	e0 40       	sbci	r30, 0x00	; 0
    578e:	e1 f7       	brne	.-8      	; 0x5788 <main+0x54e>
    5790:	00 c0       	rjmp	.+0      	; 0x5792 <main+0x558>
    5792:	00 00       	nop
	{
		PORTF = 0xC0;
		enable();
	}else if (pos == 3){
		
		PORTF = 0x94;
    5794:	f8 82       	st	Y, r15
		enable();
    5796:	0e 94 36 0d 	call	0x1a6c	; 0x1a6c <enable>
			_delay_ms(1000);
			lcd_position(2);
			lcd_write_string("PLANT");
			_delay_ms(1000);
			lcd_position(3);
			lcd_write_string("RESTING");
    579a:	89 ed       	ldi	r24, 0xD9	; 217
    579c:	91 e0       	ldi	r25, 0x01	; 1
    579e:	0e 94 69 0d 	call	0x1ad2	; 0x1ad2 <lcd_write_string>
    57a2:	ff e3       	ldi	r31, 0x3F	; 63
    57a4:	2d e0       	ldi	r18, 0x0D	; 13
    57a6:	83 e0       	ldi	r24, 0x03	; 3
    57a8:	f1 50       	subi	r31, 0x01	; 1
    57aa:	20 40       	sbci	r18, 0x00	; 0
    57ac:	80 40       	sbci	r24, 0x00	; 0
    57ae:	e1 f7       	brne	.-8      	; 0x57a8 <main+0x56e>
    57b0:	00 c0       	rjmp	.+0      	; 0x57b2 <main+0x578>
    57b2:	00 00       	nop
			_delay_ms(1000);
		time_off++;
    57b4:	60 91 94 02 	lds	r22, 0x0294	; 0x800294 <time_off>
    57b8:	70 91 95 02 	lds	r23, 0x0295	; 0x800295 <time_off+0x1>
    57bc:	6f 5f       	subi	r22, 0xFF	; 255
    57be:	7f 4f       	sbci	r23, 0xFF	; 255
    57c0:	70 93 95 02 	sts	0x0295, r23	; 0x800295 <time_off+0x1>
    57c4:	60 93 94 02 	sts	0x0294, r22	; 0x800294 <time_off>
		eeprom_write_byte(2,time_off);
    57c8:	82 e0       	ldi	r24, 0x02	; 2
    57ca:	90 e0       	ldi	r25, 0x00	; 0
    57cc:	5f d2       	rcall	.+1214   	; 0x5c8c <eeprom_write_byte>
    57ce:	4e ce       	rjmp	.-868    	; 0x546c <main+0x232>
}else{
	PORTB=0x01;
    57d0:	e8 ba       	out	0x18, r14	; 24
	clearscreen();
    57d2:	0e 94 5c 0d 	call	0x1ab8	; 0x1ab8 <clearscreen>
    57d6:	4a ce       	rjmp	.-876    	; 0x546c <main+0x232>

000057d8 <__subsf3>:
    57d8:	50 58       	subi	r21, 0x80	; 128

000057da <__addsf3>:
    57da:	bb 27       	eor	r27, r27
    57dc:	aa 27       	eor	r26, r26
    57de:	0e d0       	rcall	.+28     	; 0x57fc <__addsf3x>
    57e0:	4d c1       	rjmp	.+666    	; 0x5a7c <__fp_round>
    57e2:	3e d1       	rcall	.+636    	; 0x5a60 <__fp_pscA>
    57e4:	30 f0       	brcs	.+12     	; 0x57f2 <__addsf3+0x18>
    57e6:	43 d1       	rcall	.+646    	; 0x5a6e <__fp_pscB>
    57e8:	20 f0       	brcs	.+8      	; 0x57f2 <__addsf3+0x18>
    57ea:	31 f4       	brne	.+12     	; 0x57f8 <__addsf3+0x1e>
    57ec:	9f 3f       	cpi	r25, 0xFF	; 255
    57ee:	11 f4       	brne	.+4      	; 0x57f4 <__addsf3+0x1a>
    57f0:	1e f4       	brtc	.+6      	; 0x57f8 <__addsf3+0x1e>
    57f2:	33 c1       	rjmp	.+614    	; 0x5a5a <__fp_nan>
    57f4:	0e f4       	brtc	.+2      	; 0x57f8 <__addsf3+0x1e>
    57f6:	e0 95       	com	r30
    57f8:	e7 fb       	bst	r30, 7
    57fa:	29 c1       	rjmp	.+594    	; 0x5a4e <__fp_inf>

000057fc <__addsf3x>:
    57fc:	e9 2f       	mov	r30, r25
    57fe:	4f d1       	rcall	.+670    	; 0x5a9e <__fp_split3>
    5800:	80 f3       	brcs	.-32     	; 0x57e2 <__addsf3+0x8>
    5802:	ba 17       	cp	r27, r26
    5804:	62 07       	cpc	r22, r18
    5806:	73 07       	cpc	r23, r19
    5808:	84 07       	cpc	r24, r20
    580a:	95 07       	cpc	r25, r21
    580c:	18 f0       	brcs	.+6      	; 0x5814 <__addsf3x+0x18>
    580e:	71 f4       	brne	.+28     	; 0x582c <__addsf3x+0x30>
    5810:	9e f5       	brtc	.+102    	; 0x5878 <__addsf3x+0x7c>
    5812:	67 c1       	rjmp	.+718    	; 0x5ae2 <__fp_zero>
    5814:	0e f4       	brtc	.+2      	; 0x5818 <__addsf3x+0x1c>
    5816:	e0 95       	com	r30
    5818:	0b 2e       	mov	r0, r27
    581a:	ba 2f       	mov	r27, r26
    581c:	a0 2d       	mov	r26, r0
    581e:	0b 01       	movw	r0, r22
    5820:	b9 01       	movw	r22, r18
    5822:	90 01       	movw	r18, r0
    5824:	0c 01       	movw	r0, r24
    5826:	ca 01       	movw	r24, r20
    5828:	a0 01       	movw	r20, r0
    582a:	11 24       	eor	r1, r1
    582c:	ff 27       	eor	r31, r31
    582e:	59 1b       	sub	r21, r25
    5830:	99 f0       	breq	.+38     	; 0x5858 <__addsf3x+0x5c>
    5832:	59 3f       	cpi	r21, 0xF9	; 249
    5834:	50 f4       	brcc	.+20     	; 0x584a <__addsf3x+0x4e>
    5836:	50 3e       	cpi	r21, 0xE0	; 224
    5838:	68 f1       	brcs	.+90     	; 0x5894 <__addsf3x+0x98>
    583a:	1a 16       	cp	r1, r26
    583c:	f0 40       	sbci	r31, 0x00	; 0
    583e:	a2 2f       	mov	r26, r18
    5840:	23 2f       	mov	r18, r19
    5842:	34 2f       	mov	r19, r20
    5844:	44 27       	eor	r20, r20
    5846:	58 5f       	subi	r21, 0xF8	; 248
    5848:	f3 cf       	rjmp	.-26     	; 0x5830 <__addsf3x+0x34>
    584a:	46 95       	lsr	r20
    584c:	37 95       	ror	r19
    584e:	27 95       	ror	r18
    5850:	a7 95       	ror	r26
    5852:	f0 40       	sbci	r31, 0x00	; 0
    5854:	53 95       	inc	r21
    5856:	c9 f7       	brne	.-14     	; 0x584a <__addsf3x+0x4e>
    5858:	7e f4       	brtc	.+30     	; 0x5878 <__addsf3x+0x7c>
    585a:	1f 16       	cp	r1, r31
    585c:	ba 0b       	sbc	r27, r26
    585e:	62 0b       	sbc	r22, r18
    5860:	73 0b       	sbc	r23, r19
    5862:	84 0b       	sbc	r24, r20
    5864:	ba f0       	brmi	.+46     	; 0x5894 <__addsf3x+0x98>
    5866:	91 50       	subi	r25, 0x01	; 1
    5868:	a1 f0       	breq	.+40     	; 0x5892 <__addsf3x+0x96>
    586a:	ff 0f       	add	r31, r31
    586c:	bb 1f       	adc	r27, r27
    586e:	66 1f       	adc	r22, r22
    5870:	77 1f       	adc	r23, r23
    5872:	88 1f       	adc	r24, r24
    5874:	c2 f7       	brpl	.-16     	; 0x5866 <__addsf3x+0x6a>
    5876:	0e c0       	rjmp	.+28     	; 0x5894 <__addsf3x+0x98>
    5878:	ba 0f       	add	r27, r26
    587a:	62 1f       	adc	r22, r18
    587c:	73 1f       	adc	r23, r19
    587e:	84 1f       	adc	r24, r20
    5880:	48 f4       	brcc	.+18     	; 0x5894 <__addsf3x+0x98>
    5882:	87 95       	ror	r24
    5884:	77 95       	ror	r23
    5886:	67 95       	ror	r22
    5888:	b7 95       	ror	r27
    588a:	f7 95       	ror	r31
    588c:	9e 3f       	cpi	r25, 0xFE	; 254
    588e:	08 f0       	brcs	.+2      	; 0x5892 <__addsf3x+0x96>
    5890:	b3 cf       	rjmp	.-154    	; 0x57f8 <__addsf3+0x1e>
    5892:	93 95       	inc	r25
    5894:	88 0f       	add	r24, r24
    5896:	08 f0       	brcs	.+2      	; 0x589a <__addsf3x+0x9e>
    5898:	99 27       	eor	r25, r25
    589a:	ee 0f       	add	r30, r30
    589c:	97 95       	ror	r25
    589e:	87 95       	ror	r24
    58a0:	08 95       	ret

000058a2 <__divsf3>:
    58a2:	0c d0       	rcall	.+24     	; 0x58bc <__divsf3x>
    58a4:	eb c0       	rjmp	.+470    	; 0x5a7c <__fp_round>
    58a6:	e3 d0       	rcall	.+454    	; 0x5a6e <__fp_pscB>
    58a8:	40 f0       	brcs	.+16     	; 0x58ba <__divsf3+0x18>
    58aa:	da d0       	rcall	.+436    	; 0x5a60 <__fp_pscA>
    58ac:	30 f0       	brcs	.+12     	; 0x58ba <__divsf3+0x18>
    58ae:	21 f4       	brne	.+8      	; 0x58b8 <__divsf3+0x16>
    58b0:	5f 3f       	cpi	r21, 0xFF	; 255
    58b2:	19 f0       	breq	.+6      	; 0x58ba <__divsf3+0x18>
    58b4:	cc c0       	rjmp	.+408    	; 0x5a4e <__fp_inf>
    58b6:	51 11       	cpse	r21, r1
    58b8:	15 c1       	rjmp	.+554    	; 0x5ae4 <__fp_szero>
    58ba:	cf c0       	rjmp	.+414    	; 0x5a5a <__fp_nan>

000058bc <__divsf3x>:
    58bc:	f0 d0       	rcall	.+480    	; 0x5a9e <__fp_split3>
    58be:	98 f3       	brcs	.-26     	; 0x58a6 <__divsf3+0x4>

000058c0 <__divsf3_pse>:
    58c0:	99 23       	and	r25, r25
    58c2:	c9 f3       	breq	.-14     	; 0x58b6 <__divsf3+0x14>
    58c4:	55 23       	and	r21, r21
    58c6:	b1 f3       	breq	.-20     	; 0x58b4 <__divsf3+0x12>
    58c8:	95 1b       	sub	r25, r21
    58ca:	55 0b       	sbc	r21, r21
    58cc:	bb 27       	eor	r27, r27
    58ce:	aa 27       	eor	r26, r26
    58d0:	62 17       	cp	r22, r18
    58d2:	73 07       	cpc	r23, r19
    58d4:	84 07       	cpc	r24, r20
    58d6:	38 f0       	brcs	.+14     	; 0x58e6 <__divsf3_pse+0x26>
    58d8:	9f 5f       	subi	r25, 0xFF	; 255
    58da:	5f 4f       	sbci	r21, 0xFF	; 255
    58dc:	22 0f       	add	r18, r18
    58de:	33 1f       	adc	r19, r19
    58e0:	44 1f       	adc	r20, r20
    58e2:	aa 1f       	adc	r26, r26
    58e4:	a9 f3       	breq	.-22     	; 0x58d0 <__divsf3_pse+0x10>
    58e6:	33 d0       	rcall	.+102    	; 0x594e <__divsf3_pse+0x8e>
    58e8:	0e 2e       	mov	r0, r30
    58ea:	3a f0       	brmi	.+14     	; 0x58fa <__divsf3_pse+0x3a>
    58ec:	e0 e8       	ldi	r30, 0x80	; 128
    58ee:	30 d0       	rcall	.+96     	; 0x5950 <__divsf3_pse+0x90>
    58f0:	91 50       	subi	r25, 0x01	; 1
    58f2:	50 40       	sbci	r21, 0x00	; 0
    58f4:	e6 95       	lsr	r30
    58f6:	00 1c       	adc	r0, r0
    58f8:	ca f7       	brpl	.-14     	; 0x58ec <__divsf3_pse+0x2c>
    58fa:	29 d0       	rcall	.+82     	; 0x594e <__divsf3_pse+0x8e>
    58fc:	fe 2f       	mov	r31, r30
    58fe:	27 d0       	rcall	.+78     	; 0x594e <__divsf3_pse+0x8e>
    5900:	66 0f       	add	r22, r22
    5902:	77 1f       	adc	r23, r23
    5904:	88 1f       	adc	r24, r24
    5906:	bb 1f       	adc	r27, r27
    5908:	26 17       	cp	r18, r22
    590a:	37 07       	cpc	r19, r23
    590c:	48 07       	cpc	r20, r24
    590e:	ab 07       	cpc	r26, r27
    5910:	b0 e8       	ldi	r27, 0x80	; 128
    5912:	09 f0       	breq	.+2      	; 0x5916 <__divsf3_pse+0x56>
    5914:	bb 0b       	sbc	r27, r27
    5916:	80 2d       	mov	r24, r0
    5918:	bf 01       	movw	r22, r30
    591a:	ff 27       	eor	r31, r31
    591c:	93 58       	subi	r25, 0x83	; 131
    591e:	5f 4f       	sbci	r21, 0xFF	; 255
    5920:	2a f0       	brmi	.+10     	; 0x592c <__divsf3_pse+0x6c>
    5922:	9e 3f       	cpi	r25, 0xFE	; 254
    5924:	51 05       	cpc	r21, r1
    5926:	68 f0       	brcs	.+26     	; 0x5942 <__divsf3_pse+0x82>
    5928:	92 c0       	rjmp	.+292    	; 0x5a4e <__fp_inf>
    592a:	dc c0       	rjmp	.+440    	; 0x5ae4 <__fp_szero>
    592c:	5f 3f       	cpi	r21, 0xFF	; 255
    592e:	ec f3       	brlt	.-6      	; 0x592a <__divsf3_pse+0x6a>
    5930:	98 3e       	cpi	r25, 0xE8	; 232
    5932:	dc f3       	brlt	.-10     	; 0x592a <__divsf3_pse+0x6a>
    5934:	86 95       	lsr	r24
    5936:	77 95       	ror	r23
    5938:	67 95       	ror	r22
    593a:	b7 95       	ror	r27
    593c:	f7 95       	ror	r31
    593e:	9f 5f       	subi	r25, 0xFF	; 255
    5940:	c9 f7       	brne	.-14     	; 0x5934 <__divsf3_pse+0x74>
    5942:	88 0f       	add	r24, r24
    5944:	91 1d       	adc	r25, r1
    5946:	96 95       	lsr	r25
    5948:	87 95       	ror	r24
    594a:	97 f9       	bld	r25, 7
    594c:	08 95       	ret
    594e:	e1 e0       	ldi	r30, 0x01	; 1
    5950:	66 0f       	add	r22, r22
    5952:	77 1f       	adc	r23, r23
    5954:	88 1f       	adc	r24, r24
    5956:	bb 1f       	adc	r27, r27
    5958:	62 17       	cp	r22, r18
    595a:	73 07       	cpc	r23, r19
    595c:	84 07       	cpc	r24, r20
    595e:	ba 07       	cpc	r27, r26
    5960:	20 f0       	brcs	.+8      	; 0x596a <__divsf3_pse+0xaa>
    5962:	62 1b       	sub	r22, r18
    5964:	73 0b       	sbc	r23, r19
    5966:	84 0b       	sbc	r24, r20
    5968:	ba 0b       	sbc	r27, r26
    596a:	ee 1f       	adc	r30, r30
    596c:	88 f7       	brcc	.-30     	; 0x5950 <__divsf3_pse+0x90>
    596e:	e0 95       	com	r30
    5970:	08 95       	ret

00005972 <__fixsfsi>:
    5972:	04 d0       	rcall	.+8      	; 0x597c <__fixunssfsi>
    5974:	68 94       	set
    5976:	b1 11       	cpse	r27, r1
    5978:	b5 c0       	rjmp	.+362    	; 0x5ae4 <__fp_szero>
    597a:	08 95       	ret

0000597c <__fixunssfsi>:
    597c:	98 d0       	rcall	.+304    	; 0x5aae <__fp_splitA>
    597e:	88 f0       	brcs	.+34     	; 0x59a2 <__fixunssfsi+0x26>
    5980:	9f 57       	subi	r25, 0x7F	; 127
    5982:	90 f0       	brcs	.+36     	; 0x59a8 <__fixunssfsi+0x2c>
    5984:	b9 2f       	mov	r27, r25
    5986:	99 27       	eor	r25, r25
    5988:	b7 51       	subi	r27, 0x17	; 23
    598a:	a0 f0       	brcs	.+40     	; 0x59b4 <__fixunssfsi+0x38>
    598c:	d1 f0       	breq	.+52     	; 0x59c2 <__fixunssfsi+0x46>
    598e:	66 0f       	add	r22, r22
    5990:	77 1f       	adc	r23, r23
    5992:	88 1f       	adc	r24, r24
    5994:	99 1f       	adc	r25, r25
    5996:	1a f0       	brmi	.+6      	; 0x599e <__fixunssfsi+0x22>
    5998:	ba 95       	dec	r27
    599a:	c9 f7       	brne	.-14     	; 0x598e <__fixunssfsi+0x12>
    599c:	12 c0       	rjmp	.+36     	; 0x59c2 <__fixunssfsi+0x46>
    599e:	b1 30       	cpi	r27, 0x01	; 1
    59a0:	81 f0       	breq	.+32     	; 0x59c2 <__fixunssfsi+0x46>
    59a2:	9f d0       	rcall	.+318    	; 0x5ae2 <__fp_zero>
    59a4:	b1 e0       	ldi	r27, 0x01	; 1
    59a6:	08 95       	ret
    59a8:	9c c0       	rjmp	.+312    	; 0x5ae2 <__fp_zero>
    59aa:	67 2f       	mov	r22, r23
    59ac:	78 2f       	mov	r23, r24
    59ae:	88 27       	eor	r24, r24
    59b0:	b8 5f       	subi	r27, 0xF8	; 248
    59b2:	39 f0       	breq	.+14     	; 0x59c2 <__fixunssfsi+0x46>
    59b4:	b9 3f       	cpi	r27, 0xF9	; 249
    59b6:	cc f3       	brlt	.-14     	; 0x59aa <__fixunssfsi+0x2e>
    59b8:	86 95       	lsr	r24
    59ba:	77 95       	ror	r23
    59bc:	67 95       	ror	r22
    59be:	b3 95       	inc	r27
    59c0:	d9 f7       	brne	.-10     	; 0x59b8 <__fixunssfsi+0x3c>
    59c2:	3e f4       	brtc	.+14     	; 0x59d2 <__fixunssfsi+0x56>
    59c4:	90 95       	com	r25
    59c6:	80 95       	com	r24
    59c8:	70 95       	com	r23
    59ca:	61 95       	neg	r22
    59cc:	7f 4f       	sbci	r23, 0xFF	; 255
    59ce:	8f 4f       	sbci	r24, 0xFF	; 255
    59d0:	9f 4f       	sbci	r25, 0xFF	; 255
    59d2:	08 95       	ret

000059d4 <__floatunsisf>:
    59d4:	e8 94       	clt
    59d6:	09 c0       	rjmp	.+18     	; 0x59ea <__floatsisf+0x12>

000059d8 <__floatsisf>:
    59d8:	97 fb       	bst	r25, 7
    59da:	3e f4       	brtc	.+14     	; 0x59ea <__floatsisf+0x12>
    59dc:	90 95       	com	r25
    59de:	80 95       	com	r24
    59e0:	70 95       	com	r23
    59e2:	61 95       	neg	r22
    59e4:	7f 4f       	sbci	r23, 0xFF	; 255
    59e6:	8f 4f       	sbci	r24, 0xFF	; 255
    59e8:	9f 4f       	sbci	r25, 0xFF	; 255
    59ea:	99 23       	and	r25, r25
    59ec:	a9 f0       	breq	.+42     	; 0x5a18 <__floatsisf+0x40>
    59ee:	f9 2f       	mov	r31, r25
    59f0:	96 e9       	ldi	r25, 0x96	; 150
    59f2:	bb 27       	eor	r27, r27
    59f4:	93 95       	inc	r25
    59f6:	f6 95       	lsr	r31
    59f8:	87 95       	ror	r24
    59fa:	77 95       	ror	r23
    59fc:	67 95       	ror	r22
    59fe:	b7 95       	ror	r27
    5a00:	f1 11       	cpse	r31, r1
    5a02:	f8 cf       	rjmp	.-16     	; 0x59f4 <__floatsisf+0x1c>
    5a04:	fa f4       	brpl	.+62     	; 0x5a44 <__floatsisf+0x6c>
    5a06:	bb 0f       	add	r27, r27
    5a08:	11 f4       	brne	.+4      	; 0x5a0e <__floatsisf+0x36>
    5a0a:	60 ff       	sbrs	r22, 0
    5a0c:	1b c0       	rjmp	.+54     	; 0x5a44 <__floatsisf+0x6c>
    5a0e:	6f 5f       	subi	r22, 0xFF	; 255
    5a10:	7f 4f       	sbci	r23, 0xFF	; 255
    5a12:	8f 4f       	sbci	r24, 0xFF	; 255
    5a14:	9f 4f       	sbci	r25, 0xFF	; 255
    5a16:	16 c0       	rjmp	.+44     	; 0x5a44 <__floatsisf+0x6c>
    5a18:	88 23       	and	r24, r24
    5a1a:	11 f0       	breq	.+4      	; 0x5a20 <__floatsisf+0x48>
    5a1c:	96 e9       	ldi	r25, 0x96	; 150
    5a1e:	11 c0       	rjmp	.+34     	; 0x5a42 <__floatsisf+0x6a>
    5a20:	77 23       	and	r23, r23
    5a22:	21 f0       	breq	.+8      	; 0x5a2c <__floatsisf+0x54>
    5a24:	9e e8       	ldi	r25, 0x8E	; 142
    5a26:	87 2f       	mov	r24, r23
    5a28:	76 2f       	mov	r23, r22
    5a2a:	05 c0       	rjmp	.+10     	; 0x5a36 <__floatsisf+0x5e>
    5a2c:	66 23       	and	r22, r22
    5a2e:	71 f0       	breq	.+28     	; 0x5a4c <__floatsisf+0x74>
    5a30:	96 e8       	ldi	r25, 0x86	; 134
    5a32:	86 2f       	mov	r24, r22
    5a34:	70 e0       	ldi	r23, 0x00	; 0
    5a36:	60 e0       	ldi	r22, 0x00	; 0
    5a38:	2a f0       	brmi	.+10     	; 0x5a44 <__floatsisf+0x6c>
    5a3a:	9a 95       	dec	r25
    5a3c:	66 0f       	add	r22, r22
    5a3e:	77 1f       	adc	r23, r23
    5a40:	88 1f       	adc	r24, r24
    5a42:	da f7       	brpl	.-10     	; 0x5a3a <__floatsisf+0x62>
    5a44:	88 0f       	add	r24, r24
    5a46:	96 95       	lsr	r25
    5a48:	87 95       	ror	r24
    5a4a:	97 f9       	bld	r25, 7
    5a4c:	08 95       	ret

00005a4e <__fp_inf>:
    5a4e:	97 f9       	bld	r25, 7
    5a50:	9f 67       	ori	r25, 0x7F	; 127
    5a52:	80 e8       	ldi	r24, 0x80	; 128
    5a54:	70 e0       	ldi	r23, 0x00	; 0
    5a56:	60 e0       	ldi	r22, 0x00	; 0
    5a58:	08 95       	ret

00005a5a <__fp_nan>:
    5a5a:	9f ef       	ldi	r25, 0xFF	; 255
    5a5c:	80 ec       	ldi	r24, 0xC0	; 192
    5a5e:	08 95       	ret

00005a60 <__fp_pscA>:
    5a60:	00 24       	eor	r0, r0
    5a62:	0a 94       	dec	r0
    5a64:	16 16       	cp	r1, r22
    5a66:	17 06       	cpc	r1, r23
    5a68:	18 06       	cpc	r1, r24
    5a6a:	09 06       	cpc	r0, r25
    5a6c:	08 95       	ret

00005a6e <__fp_pscB>:
    5a6e:	00 24       	eor	r0, r0
    5a70:	0a 94       	dec	r0
    5a72:	12 16       	cp	r1, r18
    5a74:	13 06       	cpc	r1, r19
    5a76:	14 06       	cpc	r1, r20
    5a78:	05 06       	cpc	r0, r21
    5a7a:	08 95       	ret

00005a7c <__fp_round>:
    5a7c:	09 2e       	mov	r0, r25
    5a7e:	03 94       	inc	r0
    5a80:	00 0c       	add	r0, r0
    5a82:	11 f4       	brne	.+4      	; 0x5a88 <__fp_round+0xc>
    5a84:	88 23       	and	r24, r24
    5a86:	52 f0       	brmi	.+20     	; 0x5a9c <__fp_round+0x20>
    5a88:	bb 0f       	add	r27, r27
    5a8a:	40 f4       	brcc	.+16     	; 0x5a9c <__fp_round+0x20>
    5a8c:	bf 2b       	or	r27, r31
    5a8e:	11 f4       	brne	.+4      	; 0x5a94 <__fp_round+0x18>
    5a90:	60 ff       	sbrs	r22, 0
    5a92:	04 c0       	rjmp	.+8      	; 0x5a9c <__fp_round+0x20>
    5a94:	6f 5f       	subi	r22, 0xFF	; 255
    5a96:	7f 4f       	sbci	r23, 0xFF	; 255
    5a98:	8f 4f       	sbci	r24, 0xFF	; 255
    5a9a:	9f 4f       	sbci	r25, 0xFF	; 255
    5a9c:	08 95       	ret

00005a9e <__fp_split3>:
    5a9e:	57 fd       	sbrc	r21, 7
    5aa0:	90 58       	subi	r25, 0x80	; 128
    5aa2:	44 0f       	add	r20, r20
    5aa4:	55 1f       	adc	r21, r21
    5aa6:	59 f0       	breq	.+22     	; 0x5abe <__fp_splitA+0x10>
    5aa8:	5f 3f       	cpi	r21, 0xFF	; 255
    5aaa:	71 f0       	breq	.+28     	; 0x5ac8 <__fp_splitA+0x1a>
    5aac:	47 95       	ror	r20

00005aae <__fp_splitA>:
    5aae:	88 0f       	add	r24, r24
    5ab0:	97 fb       	bst	r25, 7
    5ab2:	99 1f       	adc	r25, r25
    5ab4:	61 f0       	breq	.+24     	; 0x5ace <__fp_splitA+0x20>
    5ab6:	9f 3f       	cpi	r25, 0xFF	; 255
    5ab8:	79 f0       	breq	.+30     	; 0x5ad8 <__fp_splitA+0x2a>
    5aba:	87 95       	ror	r24
    5abc:	08 95       	ret
    5abe:	12 16       	cp	r1, r18
    5ac0:	13 06       	cpc	r1, r19
    5ac2:	14 06       	cpc	r1, r20
    5ac4:	55 1f       	adc	r21, r21
    5ac6:	f2 cf       	rjmp	.-28     	; 0x5aac <__fp_split3+0xe>
    5ac8:	46 95       	lsr	r20
    5aca:	f1 df       	rcall	.-30     	; 0x5aae <__fp_splitA>
    5acc:	08 c0       	rjmp	.+16     	; 0x5ade <__fp_splitA+0x30>
    5ace:	16 16       	cp	r1, r22
    5ad0:	17 06       	cpc	r1, r23
    5ad2:	18 06       	cpc	r1, r24
    5ad4:	99 1f       	adc	r25, r25
    5ad6:	f1 cf       	rjmp	.-30     	; 0x5aba <__fp_splitA+0xc>
    5ad8:	86 95       	lsr	r24
    5ada:	71 05       	cpc	r23, r1
    5adc:	61 05       	cpc	r22, r1
    5ade:	08 94       	sec
    5ae0:	08 95       	ret

00005ae2 <__fp_zero>:
    5ae2:	e8 94       	clt

00005ae4 <__fp_szero>:
    5ae4:	bb 27       	eor	r27, r27
    5ae6:	66 27       	eor	r22, r22
    5ae8:	77 27       	eor	r23, r23
    5aea:	cb 01       	movw	r24, r22
    5aec:	97 f9       	bld	r25, 7
    5aee:	08 95       	ret

00005af0 <__mulsf3>:
    5af0:	0b d0       	rcall	.+22     	; 0x5b08 <__mulsf3x>
    5af2:	c4 cf       	rjmp	.-120    	; 0x5a7c <__fp_round>
    5af4:	b5 df       	rcall	.-150    	; 0x5a60 <__fp_pscA>
    5af6:	28 f0       	brcs	.+10     	; 0x5b02 <__mulsf3+0x12>
    5af8:	ba df       	rcall	.-140    	; 0x5a6e <__fp_pscB>
    5afa:	18 f0       	brcs	.+6      	; 0x5b02 <__mulsf3+0x12>
    5afc:	95 23       	and	r25, r21
    5afe:	09 f0       	breq	.+2      	; 0x5b02 <__mulsf3+0x12>
    5b00:	a6 cf       	rjmp	.-180    	; 0x5a4e <__fp_inf>
    5b02:	ab cf       	rjmp	.-170    	; 0x5a5a <__fp_nan>
    5b04:	11 24       	eor	r1, r1
    5b06:	ee cf       	rjmp	.-36     	; 0x5ae4 <__fp_szero>

00005b08 <__mulsf3x>:
    5b08:	ca df       	rcall	.-108    	; 0x5a9e <__fp_split3>
    5b0a:	a0 f3       	brcs	.-24     	; 0x5af4 <__mulsf3+0x4>

00005b0c <__mulsf3_pse>:
    5b0c:	95 9f       	mul	r25, r21
    5b0e:	d1 f3       	breq	.-12     	; 0x5b04 <__mulsf3+0x14>
    5b10:	95 0f       	add	r25, r21
    5b12:	50 e0       	ldi	r21, 0x00	; 0
    5b14:	55 1f       	adc	r21, r21
    5b16:	62 9f       	mul	r22, r18
    5b18:	f0 01       	movw	r30, r0
    5b1a:	72 9f       	mul	r23, r18
    5b1c:	bb 27       	eor	r27, r27
    5b1e:	f0 0d       	add	r31, r0
    5b20:	b1 1d       	adc	r27, r1
    5b22:	63 9f       	mul	r22, r19
    5b24:	aa 27       	eor	r26, r26
    5b26:	f0 0d       	add	r31, r0
    5b28:	b1 1d       	adc	r27, r1
    5b2a:	aa 1f       	adc	r26, r26
    5b2c:	64 9f       	mul	r22, r20
    5b2e:	66 27       	eor	r22, r22
    5b30:	b0 0d       	add	r27, r0
    5b32:	a1 1d       	adc	r26, r1
    5b34:	66 1f       	adc	r22, r22
    5b36:	82 9f       	mul	r24, r18
    5b38:	22 27       	eor	r18, r18
    5b3a:	b0 0d       	add	r27, r0
    5b3c:	a1 1d       	adc	r26, r1
    5b3e:	62 1f       	adc	r22, r18
    5b40:	73 9f       	mul	r23, r19
    5b42:	b0 0d       	add	r27, r0
    5b44:	a1 1d       	adc	r26, r1
    5b46:	62 1f       	adc	r22, r18
    5b48:	83 9f       	mul	r24, r19
    5b4a:	a0 0d       	add	r26, r0
    5b4c:	61 1d       	adc	r22, r1
    5b4e:	22 1f       	adc	r18, r18
    5b50:	74 9f       	mul	r23, r20
    5b52:	33 27       	eor	r19, r19
    5b54:	a0 0d       	add	r26, r0
    5b56:	61 1d       	adc	r22, r1
    5b58:	23 1f       	adc	r18, r19
    5b5a:	84 9f       	mul	r24, r20
    5b5c:	60 0d       	add	r22, r0
    5b5e:	21 1d       	adc	r18, r1
    5b60:	82 2f       	mov	r24, r18
    5b62:	76 2f       	mov	r23, r22
    5b64:	6a 2f       	mov	r22, r26
    5b66:	11 24       	eor	r1, r1
    5b68:	9f 57       	subi	r25, 0x7F	; 127
    5b6a:	50 40       	sbci	r21, 0x00	; 0
    5b6c:	8a f0       	brmi	.+34     	; 0x5b90 <__mulsf3_pse+0x84>
    5b6e:	e1 f0       	breq	.+56     	; 0x5ba8 <__mulsf3_pse+0x9c>
    5b70:	88 23       	and	r24, r24
    5b72:	4a f0       	brmi	.+18     	; 0x5b86 <__mulsf3_pse+0x7a>
    5b74:	ee 0f       	add	r30, r30
    5b76:	ff 1f       	adc	r31, r31
    5b78:	bb 1f       	adc	r27, r27
    5b7a:	66 1f       	adc	r22, r22
    5b7c:	77 1f       	adc	r23, r23
    5b7e:	88 1f       	adc	r24, r24
    5b80:	91 50       	subi	r25, 0x01	; 1
    5b82:	50 40       	sbci	r21, 0x00	; 0
    5b84:	a9 f7       	brne	.-22     	; 0x5b70 <__mulsf3_pse+0x64>
    5b86:	9e 3f       	cpi	r25, 0xFE	; 254
    5b88:	51 05       	cpc	r21, r1
    5b8a:	70 f0       	brcs	.+28     	; 0x5ba8 <__mulsf3_pse+0x9c>
    5b8c:	60 cf       	rjmp	.-320    	; 0x5a4e <__fp_inf>
    5b8e:	aa cf       	rjmp	.-172    	; 0x5ae4 <__fp_szero>
    5b90:	5f 3f       	cpi	r21, 0xFF	; 255
    5b92:	ec f3       	brlt	.-6      	; 0x5b8e <__mulsf3_pse+0x82>
    5b94:	98 3e       	cpi	r25, 0xE8	; 232
    5b96:	dc f3       	brlt	.-10     	; 0x5b8e <__mulsf3_pse+0x82>
    5b98:	86 95       	lsr	r24
    5b9a:	77 95       	ror	r23
    5b9c:	67 95       	ror	r22
    5b9e:	b7 95       	ror	r27
    5ba0:	f7 95       	ror	r31
    5ba2:	e7 95       	ror	r30
    5ba4:	9f 5f       	subi	r25, 0xFF	; 255
    5ba6:	c1 f7       	brne	.-16     	; 0x5b98 <__mulsf3_pse+0x8c>
    5ba8:	fe 2b       	or	r31, r30
    5baa:	88 0f       	add	r24, r24
    5bac:	91 1d       	adc	r25, r1
    5bae:	96 95       	lsr	r25
    5bb0:	87 95       	ror	r24
    5bb2:	97 f9       	bld	r25, 7
    5bb4:	08 95       	ret

00005bb6 <__divmodhi4>:
    5bb6:	97 fb       	bst	r25, 7
    5bb8:	07 2e       	mov	r0, r23
    5bba:	16 f4       	brtc	.+4      	; 0x5bc0 <__divmodhi4+0xa>
    5bbc:	00 94       	com	r0
    5bbe:	06 d0       	rcall	.+12     	; 0x5bcc <__divmodhi4_neg1>
    5bc0:	77 fd       	sbrc	r23, 7
    5bc2:	08 d0       	rcall	.+16     	; 0x5bd4 <__divmodhi4_neg2>
    5bc4:	14 d0       	rcall	.+40     	; 0x5bee <__udivmodhi4>
    5bc6:	07 fc       	sbrc	r0, 7
    5bc8:	05 d0       	rcall	.+10     	; 0x5bd4 <__divmodhi4_neg2>
    5bca:	3e f4       	brtc	.+14     	; 0x5bda <__divmodhi4_exit>

00005bcc <__divmodhi4_neg1>:
    5bcc:	90 95       	com	r25
    5bce:	81 95       	neg	r24
    5bd0:	9f 4f       	sbci	r25, 0xFF	; 255
    5bd2:	08 95       	ret

00005bd4 <__divmodhi4_neg2>:
    5bd4:	70 95       	com	r23
    5bd6:	61 95       	neg	r22
    5bd8:	7f 4f       	sbci	r23, 0xFF	; 255

00005bda <__divmodhi4_exit>:
    5bda:	08 95       	ret

00005bdc <__tablejump2__>:
    5bdc:	ee 0f       	add	r30, r30
    5bde:	ff 1f       	adc	r31, r31
    5be0:	00 24       	eor	r0, r0
    5be2:	00 1c       	adc	r0, r0
    5be4:	0b be       	out	0x3b, r0	; 59
    5be6:	07 90       	elpm	r0, Z+
    5be8:	f6 91       	elpm	r31, Z
    5bea:	e0 2d       	mov	r30, r0
    5bec:	09 94       	ijmp

00005bee <__udivmodhi4>:
    5bee:	aa 1b       	sub	r26, r26
    5bf0:	bb 1b       	sub	r27, r27
    5bf2:	51 e1       	ldi	r21, 0x11	; 17
    5bf4:	07 c0       	rjmp	.+14     	; 0x5c04 <__udivmodhi4_ep>

00005bf6 <__udivmodhi4_loop>:
    5bf6:	aa 1f       	adc	r26, r26
    5bf8:	bb 1f       	adc	r27, r27
    5bfa:	a6 17       	cp	r26, r22
    5bfc:	b7 07       	cpc	r27, r23
    5bfe:	10 f0       	brcs	.+4      	; 0x5c04 <__udivmodhi4_ep>
    5c00:	a6 1b       	sub	r26, r22
    5c02:	b7 0b       	sbc	r27, r23

00005c04 <__udivmodhi4_ep>:
    5c04:	88 1f       	adc	r24, r24
    5c06:	99 1f       	adc	r25, r25
    5c08:	5a 95       	dec	r21
    5c0a:	a9 f7       	brne	.-22     	; 0x5bf6 <__udivmodhi4_loop>
    5c0c:	80 95       	com	r24
    5c0e:	90 95       	com	r25
    5c10:	bc 01       	movw	r22, r24
    5c12:	cd 01       	movw	r24, r26
    5c14:	08 95       	ret

00005c16 <__itoa_ncheck>:
    5c16:	bb 27       	eor	r27, r27
    5c18:	4a 30       	cpi	r20, 0x0A	; 10
    5c1a:	31 f4       	brne	.+12     	; 0x5c28 <__itoa_ncheck+0x12>
    5c1c:	99 23       	and	r25, r25
    5c1e:	22 f4       	brpl	.+8      	; 0x5c28 <__itoa_ncheck+0x12>
    5c20:	bd e2       	ldi	r27, 0x2D	; 45
    5c22:	90 95       	com	r25
    5c24:	81 95       	neg	r24
    5c26:	9f 4f       	sbci	r25, 0xFF	; 255
    5c28:	01 c0       	rjmp	.+2      	; 0x5c2c <__utoa_common>

00005c2a <__utoa_ncheck>:
    5c2a:	bb 27       	eor	r27, r27

00005c2c <__utoa_common>:
    5c2c:	fb 01       	movw	r30, r22
    5c2e:	55 27       	eor	r21, r21
    5c30:	aa 27       	eor	r26, r26
    5c32:	88 0f       	add	r24, r24
    5c34:	99 1f       	adc	r25, r25
    5c36:	aa 1f       	adc	r26, r26
    5c38:	a4 17       	cp	r26, r20
    5c3a:	10 f0       	brcs	.+4      	; 0x5c40 <__utoa_common+0x14>
    5c3c:	a4 1b       	sub	r26, r20
    5c3e:	83 95       	inc	r24
    5c40:	50 51       	subi	r21, 0x10	; 16
    5c42:	b9 f7       	brne	.-18     	; 0x5c32 <__utoa_common+0x6>
    5c44:	a0 5d       	subi	r26, 0xD0	; 208
    5c46:	aa 33       	cpi	r26, 0x3A	; 58
    5c48:	08 f0       	brcs	.+2      	; 0x5c4c <__utoa_common+0x20>
    5c4a:	a9 5d       	subi	r26, 0xD9	; 217
    5c4c:	a1 93       	st	Z+, r26
    5c4e:	00 97       	sbiw	r24, 0x00	; 0
    5c50:	79 f7       	brne	.-34     	; 0x5c30 <__utoa_common+0x4>
    5c52:	b1 11       	cpse	r27, r1
    5c54:	b1 93       	st	Z+, r27
    5c56:	11 92       	st	Z+, r1
    5c58:	cb 01       	movw	r24, r22
    5c5a:	00 c0       	rjmp	.+0      	; 0x5c5c <strrev>

00005c5c <strrev>:
    5c5c:	dc 01       	movw	r26, r24
    5c5e:	fc 01       	movw	r30, r24
    5c60:	67 2f       	mov	r22, r23
    5c62:	71 91       	ld	r23, Z+
    5c64:	77 23       	and	r23, r23
    5c66:	e1 f7       	brne	.-8      	; 0x5c60 <strrev+0x4>
    5c68:	32 97       	sbiw	r30, 0x02	; 2
    5c6a:	04 c0       	rjmp	.+8      	; 0x5c74 <strrev+0x18>
    5c6c:	7c 91       	ld	r23, X
    5c6e:	6d 93       	st	X+, r22
    5c70:	70 83       	st	Z, r23
    5c72:	62 91       	ld	r22, -Z
    5c74:	ae 17       	cp	r26, r30
    5c76:	bf 07       	cpc	r27, r31
    5c78:	c8 f3       	brcs	.-14     	; 0x5c6c <strrev+0x10>
    5c7a:	08 95       	ret

00005c7c <eeprom_read_byte>:
    5c7c:	e1 99       	sbic	0x1c, 1	; 28
    5c7e:	fe cf       	rjmp	.-4      	; 0x5c7c <eeprom_read_byte>
    5c80:	9f bb       	out	0x1f, r25	; 31
    5c82:	8e bb       	out	0x1e, r24	; 30
    5c84:	e0 9a       	sbi	0x1c, 0	; 28
    5c86:	99 27       	eor	r25, r25
    5c88:	8d b3       	in	r24, 0x1d	; 29
    5c8a:	08 95       	ret

00005c8c <eeprom_write_byte>:
    5c8c:	26 2f       	mov	r18, r22

00005c8e <eeprom_write_r18>:
    5c8e:	e1 99       	sbic	0x1c, 1	; 28
    5c90:	fe cf       	rjmp	.-4      	; 0x5c8e <eeprom_write_r18>
    5c92:	9f bb       	out	0x1f, r25	; 31
    5c94:	8e bb       	out	0x1e, r24	; 30
    5c96:	2d bb       	out	0x1d, r18	; 29
    5c98:	0f b6       	in	r0, 0x3f	; 63
    5c9a:	f8 94       	cli
    5c9c:	e2 9a       	sbi	0x1c, 2	; 28
    5c9e:	e1 9a       	sbi	0x1c, 1	; 28
    5ca0:	0f be       	out	0x3f, r0	; 63
    5ca2:	01 96       	adiw	r24, 0x01	; 1
    5ca4:	08 95       	ret

00005ca6 <_exit>:
    5ca6:	f8 94       	cli

00005ca8 <__stop_program>:
    5ca8:	ff cf       	rjmp	.-2      	; 0x5ca8 <__stop_program>
